(lp0
(lp1
S'UPPERCLASS'
p2
aS'SPELMAN'
p3
aS'025'
p4
aa(lp5
g2
ag3
aS'022'
p6
aa(lp7
g2
ag3
aS'032'
p8
aa(lp9
g2
ag3
aS'047'
p10
aa(lp11
g2
ag3
aS'048'
p12
aa(lp13
g2
ag3
aS'024'
p14
aa(lp15
g2
ag3
aS'076'
p16
aa(lp17
g2
ag3
aS'073'
p18
aa(lp19
g2
ag3
aS'066'
p20
aa(lp21
g2
ag3
aS'056'
p22
aa(lp23
g2
ag3
aS'064'
p24
aa(lp25
g2
ag3
aS'021'
p26
aa(lp27
g2
ag3
aS'055'
p28
aa(lp29
g2
ag3
aS'075'
p30
aa(lp31
g2
ag3
aS'074'
p32
aa(lp33
g2
ag3
aS'023'
p34
aa(lp35
g2
ag3
aS'054'
p36
aa(lp37
g2
ag3
aS'068'
p38
aa(lp39
g2
ag3
aS'067'
p40
aa(lp41
g2
ag3
aS'041'
p42
aa(lp43
g2
ag3
aS'045'
p44
aa(lp45
g2
ag3
aS'043'
p46
aa(lp47
g2
ag3
aS'083'
p48
aa(lp49
g2
ag3
aS'084'
p50
aa(lp51
g2
ag3
aS'037'
p52
aa(lp53
g2
ag3
aS'038'
p54
aa(lp55
g2
ag3
aS'034'
p56
aa(lp57
g2
ag3
aS'065'
p58
aa(lp59
g2
ag3
aS'085'
p60
aa(lp61
g2
ag3
aS'036'
p62
aa(lp63
g2
ag3
aS'016'
p64
aa(lp65
g2
ag3
aS'053'
p66
aa(lp67
g2
ag3
aS'035'
p68
aa(lp69
g2
ag3
aS'071'
p70
aa(lp71
g2
ag3
aS'011'
p72
aa(lp73
g2
ag3
aS'078'
p74
aa(lp75
g2
ag3
aS'077'
p76
aa(lp77
g2
ag3
aS'082'
p78
aa(lp79
g2
ag3
aS'017'
p80
aa(lp81
g2
ag3
aS'018'
p82
aa(lp83
g2
ag3
aS'086'
p84
aa(lp85
g2
ag3
aS'046'
p86
aa(lp87
g2
ag3
aS'052'
p88
aa(lp89
g2
ag3
aS'051'
p90
aa(lp91
g2
ag3
aS'026'
p92
aa(lp93
g2
ag3
aS'012'
p94
aa(lp95
g2
ag3
aS'063'
p96
aa(lp97
g2
ag3
aS'014'
p98
aa(lp99
g2
ag3
aS'081'
p100
aa(lp101
g2
ag3
aS'061'
p102
aa(lp103
g2
ag3
aS'015'
p104
aa(lp105
g2
ag3
aS'013'
p106
aa(lp107
g2
aS'WILF'
p108
aS'E406'
p109
aa(lp110
g2
aS'SCULLY'
p111
aS'171'
p112
aa(lp113
g2
ag111
aS'273'
p114
aa(lp115
g2
aS'LOCKHART'
p116
aS'224'
p117
aa(lp118
g2
aS'1903'
p119
aS'214'
p120
aa(lp121
g2
aS'PYNE'
p122
aS'114'
p123
aa(lp124
g2
aS'HENRY'
p125
aS'102'
p126
aa(lp127
g2
ag119
aS'112'
p128
aa(lp129
g2
ag116
aS'241'
p130
aa(lp131
g2
ag108
aS'E401'
p132
aa(lp133
g2
ag108
aS'E403'
p134
aa(lp135
g2
ag111
aS'367'
p136
aa(lp137
g2
ag111
aS'272'
p138
aa(lp139
g2
ag111
aS'173'
p140
aa(lp141
g2
ag111
aS'160'
p142
aa(lp143
g2
ag111
aS'162'
p144
aa(lp145
g2
ag111
aS'262'
p146
aa(lp147
g2
ag111
aS'260'
p148
aa(lp149
g2
ag111
aS'265'
p150
aa(lp151
g2
ag111
aS'267'
p152
aa(lp153
g2
aS'DOD'
p154
aS'211'
p155
aa(lp156
g2
aS'LITTLE'
p157
aS'A24'
p158
aa(lp159
g2
ag154
aS'115'
p160
aa(lp161
g2
ag119
aS'131'
p162
aa(lp163
g2
ag157
aS'A34'
p164
aa(lp165
g2
ag116
aS'242'
p166
aa(lp167
g2
ag111
aS'168'
p168
aa(lp169
g2
ag111
aS'274'
p170
aa(lp171
g2
ag111
aS'172'
p172
aa(lp173
g2
ag157
aS'A36'
p174
aa(lp175
g2
ag116
aS'225'
p176
aa(lp177
g2
ag154
aS'114'
p178
aa(lp179
g2
ag116
aS'302'
p180
aa(lp181
g2
ag122
aS'125'
p182
aa(lp183
g2
ag111
aS'271'
p184
aa(lp185
g2
ag154
aS'105'
p186
aa(lp187
g2
ag154
aS'200'
p188
aa(lp189
g2
aS'PATTON'
p190
aS'082'
p191
aa(lp192
g2
ag116
aS'303'
p193
aa(lp194
g2
ag154
aS'102S'
p195
aa(lp196
g2
ag111
aS'164'
p197
aa(lp198
g2
ag119
aS'126'
p199
aa(lp200
g2
ag157
aS'A28'
p201
aa(lp202
g2
ag154
aS'101S'
p203
aa(lp204
g2
ag111
aS'174'
p205
aa(lp206
g2
ag154
aS'102N'
p207
aa(lp208
g2
ag116
aS'212'
p209
aa(lp210
g2
ag116
aS'325'
p211
aa(lp212
g2
ag122
aS'116'
p213
aa(lp214
g2
ag111
aS'264'
p215
aa(lp216
g2
ag154
aS'212'
p217
aa(lp218
g2
ag116
aS'222'
p219
aa(lp220
g2
ag154
aS'104'
p221
aa(lp222
g2
ag111
aS'170'
p223
aa(lp224
g2
ag111
aS'266'
p225
aa(lp226
g2
ag111
aS'166'
p227
aa(lp228
g2
ag190
aS'080'
p229
aa(lp230
g2
ag122
aS'122'
p231
aa(lp232
g2
ag116
aS'201'
p233
aa(lp234
g2
ag154
aS'112'
p235
aa(lp236
g2
ag154
aS'116'
p237
aa(lp238
g2
ag154
aS'102'
p239
aa(lp240
g2
ag116
aS'322'
p241
aa(lp242
g2
ag125
aS'103'
p243
aa(lp244
g2
ag122
aS'133'
p245
aa(lp246
g2
ag157
aS'A16'
p247
aa(lp248
g2
ag190
aS'081'
p249
aa(lp250
g2
ag116
aS'324'
p251
aa(lp252
g2
ag116
aS'323'
p253
aa(lp254
g2
ag116
aS'211'
p255
aa(lp256
g2
ag125
aS'101'
p257
aa(lp258
g2
ag190
aS'085'
p259
aa(lp260
g2
ag108
aS'E402'
p261
aa(lp262
g2
ag122
aS'123'
p263
aa(lp264
g2
ag157
aS'A20'
p265
aa(lp266
g2
ag122
aS'135'
p267
aa(lp268
g2
ag119
aS'132'
p269
aa(lp270
g2
ag116
aS'213'
p271
aa(lp272
g2
ag154
aS'113'
p273
aa(lp274
g2
ag157
aS'A10'
p275
aa(lp276
g2
ag108
aS'E405'
p277
aa(lp278
g2
ag190
aS'090'
p279
aa(lp280
g2
ag116
aS'232'
p281
aa(lp282
g2
ag154
aS'103'
p283
aa(lp284
g2
ag119
aS'123'
p285
aa(lp286
g2
ag157
aS'A14'
p287
aa(lp288
g2
ag116
aS'231'
p289
aa(lp290
g2
ag122
aS'124'
p291
aa(lp292
S'WHITMAN'
p293
aS'FISHER'
p294
aS'A303'
p295
aa(lp296
S'BUTLER'
p297
aS'BLOOMBERG'
p298
aS'474'
p299
aa(lp300
S'MATHEY'
p301
aS'HAMILTON'
p302
aS'121'
p303
aa(lp304
S'BUTLER'
p305
aS'1976'
p306
aS'D304'
p307
aa(lp308
S'MATHEY'
p309
ag302
aS'221'
p310
aa(lp311
S'WHITMAN'
p312
aS'1981'
p313
aS'F201'
p314
aa(lp315
S'BUTLER'
p316
ag298
aS'309'
p317
aa(lp318
S'BUTLER'
p319
ag298
aS'311'
p320
aa(lp321
g293
ag294
aS'A224'
p322
aa(lp323
S'MATHEY'
p324
ag157
aS'047'
p325
aa(lp326
S'BUTLER'
p327
ag108
aS'E103'
p328
aa(lp329
S'WHITMAN'
p330
aS'BAKER E'
p331
aS'E113'
p332
aa(lp333
S'BUTLER'
p334
ag298
aS'465'
p335
aa(lp336
S'BUTLER'
p337
ag298
aS'461'
p338
aa(lp339
S'WHITMAN'
p340
aS'WENDELL C'
p341
aS'C214'
p342
aa(lp343
S'BUTLER'
p344
ag298
aS'463'
p345
aa(lp346
S'WHITMAN'
p347
ag294
aS'A323'
p348
aa(lp349
S'BUTLER'
p350
ag298
aS'430'
p351
aa(lp352
S'BUTLER'
p353
ag306
aS'D114'
p354
aa(lp355
S'WHITMAN'
p356
aS'WENDELL B'
p357
aS'B407'
p358
aa(lp359
S'BUTLER'
p360
ag298
aS'327'
p361
aa(lp362
S'MATHEY'
p363
ag157
aS'385'
p364
aa(lp365
S'BUTLER'
p366
ag298
aS'124'
p367
aa(lp368
S'WHITMAN'
p369
ag313
aS'F301'
p370
aa(lp371
S'MATHEY'
p372
ag157
aS'057'
p373
aa(lp374
S'BUTLER'
p375
ag298
aS'413'
p376
aa(lp377
S'BUTLER'
p378
ag298
aS'409'
p379
aa(lp380
S'BUTLER'
p381
ag298
aS'451'
p382
aa(lp383
S'WHITMAN'
p384
ag294
aS'A201'
p385
aa(lp386
S'MATHEY'
p387
ag157
aS'395'
p388
aa(lp389
S'BUTLER'
p390
ag298
aS'459'
p391
aa(lp392
S'BUTLER'
p393
ag298
aS'192'
p394
aa(lp395
S'MATHEY'
p396
ag157
aS'077'
p397
aa(lp398
S'WHITMAN'
p399
ag357
aS'B312'
p400
aa(lp401
S'BUTLER'
p402
ag298
aS'447'
p403
aa(lp404
S'BUTLER'
p405
ag298
aS'379'
p406
aa(lp407
S'WHITMAN'
p408
ag331
aS'E215'
p409
aa(lp410
S'WHITMAN'
p411
ag331
aS'E217'
p412
aa(lp413
S'MATHEY'
p414
ag157
aS'303'
p415
aa(lp416
S'WHITMAN'
p417
aS'BAKER S'
p418
aS'S106'
p419
aa(lp420
S'MATHEY'
p421
aS'JOLINE'
p422
aS'235'
p423
aa(lp424
S'WHITMAN'
p425
aS'LAURITZEN'
p426
aS'D314'
p427
aa(lp428
S'WHITMAN'
p429
ag418
aS'S204'
p430
aa(lp431
S'BUTLER'
p432
ag298
aS'407'
p433
aa(lp434
S'WHITMAN'
p435
ag331
aS'E206'
p436
aa(lp437
S'MATHEY'
p438
ag422
aS'225'
p439
aa(lp440
S'WHITMAN'
p441
ag426
aS'D311'
p442
aa(lp443
S'BUTLER'
p444
ag298
aS'349'
p445
aa(lp446
S'BUTLER'
p447
ag298
aS'469'
p448
aa(lp449
S'WHITMAN'
p450
ag294
aS'A101'
p451
aa(lp452
g305
ag306
aS'D316'
p453
aa(lp454
S'WHITMAN'
p455
ag294
aS'A225'
p456
aa(lp457
S'BUTLER'
p458
ag298
aS'449'
p459
aa(lp460
S'BUTLER'
p461
ag298
aS'443'
p462
aa(lp463
S'WHITMAN'
p464
ag313
aS'F229'
p465
aa(lp466
S'MATHEY'
p467
aS'BLAIR'
p468
aS'B83'
p469
aa(lp470
S'WHITMAN'
p471
aS'MURLEY-PIVIROTTO'
p472
aS'T402'
p473
aa(lp474
S'WHITMAN'
p475
aS'HARGADON'
p476
aS'G405'
p477
aa(lp478
S'MATHEY'
p479
ag157
aS'048'
p480
aa(lp481
S'BUTLER'
p482
ag298
aS'479'
p483
aa(lp484
S'WHITMAN'
p485
ag313
aS'F123'
p486
aa(lp487
S'BUTLER'
p488
ag298
aS'445'
p489
aa(lp490
S'MATHEY'
p491
ag157
aS'085'
p492
aa(lp493
S'BUTLER'
p494
ag108
aS'E308'
p495
aa(lp496
S'BUTLER'
p497
ag108
aS'E306'
p498
aa(lp499
g375
ag298
aS'248'
p500
aa(lp501
S'BUTLER'
p502
ag298
aS'324'
p503
aa(lp504
S'MATHEY'
p505
ag157
aS'302'
p506
aa(lp507
S'MATHEY'
p508
aS'EDWARDS'
p509
aS'106'
p510
aa(lp511
S'BUTLER'
p512
ag298
aS'314'
p513
aa(lp514
S'BUTLER'
p515
aS'BOGLE'
p516
aS'C203'
p517
aa(lp518
S'BUTLER'
p519
ag516
aS'C205'
p520
aa(lp521
S'MATHEY'
p522
ag157
aS'083'
p523
aa(lp524
S'BUTLER'
p525
ag298
aS'245'
p526
aa(lp527
S'BUTLER'
p528
ag298
aS'243'
p529
aa(lp530
S'BUTLER'
p531
ag108
aS'E208'
p532
aa(lp533
S'BUTLER'
p534
ag108
aS'E206'
p535
aa(lp536
S'BUTLER'
p537
ag298
aS'473'
p538
aa(lp539
S'MATHEY'
p540
ag422
aS'433'
p541
aa(lp542
S'BUTLER'
p543
ag298
aS'471'
p544
aa(lp545
S'BUTLER'
p546
ag108
aS'E201'
p547
aa(lp548
S'MATHEY'
p549
ag422
aS'422'
p550
aa(lp551
S'MATHEY'
p552
ag422
aS'332'
p553
aa(lp554
S'BUTLER'
p555
ag298
aS'281'
p556
aa(lp557
S'WHITMAN'
p558
ag418
aS'S205'
p559
aa(lp560
S'MATHEY'
p561
ag509
aS'502'
p562
aa(lp563
S'BUTLER'
p564
aS'1967'
p565
aS'B205'
p566
aa(lp567
S'WHITMAN'
p568
ag313
aS'F017'
p569
aa(lp570
S'WHITMAN'
p571
ag313
aS'F025'
p572
aa(lp573
S'WHITMAN'
p574
ag313
aS'F102'
p575
aa(lp576
S'MATHEY'
p577
ag157
aS'311'
p578
aa(lp579
g312
ag313
aS'F019'
p580
aa(lp581
S'WHITMAN'
p582
ag313
aS'F015'
p583
aa(lp584
S'WHITMAN'
p585
ag313
aS'F027'
p586
aa(lp587
S'BUTLER'
p588
ag108
aS'E104'
p589
aa(lp590
S'BUTLER'
p591
ag298
aS'348'
p592
aa(lp593
S'MATHEY'
p594
ag422
aS'212'
p595
aa(lp596
S'WHITMAN'
p597
ag476
aS'G309'
p598
aa(lp599
S'BUTLER'
p600
ag565
aS'B305'
p601
aa(lp602
S'MATHEY'
p603
ag509
aS'104'
p604
aa(lp605
g375
ag298
aS'250'
p606
aa(lp607
S'MATHEY'
p608
ag422
aS'213'
p609
aa(lp610
S'WHITMAN'
p611
ag313
aS'F023'
p612
aa(lp613
g375
ag298
aS'308'
p614
aa(lp615
S'WHITMAN'
p616
ag472
aS'T403'
p617
aa(lp618
S'MATHEY'
p619
ag509
aS'109'
p620
aa(lp621
g375
ag298
aS'112'
p622
aa(lp623
S'WHITMAN'
p624
ag313
aS'F101'
p625
aa(lp626
S'MATHEY'
p627
ag509
aS'113'
p628
aa(lp629
g603
ag509
aS'108'
p630
aa(lp631
S'BUTLER'
p632
aS'1915'
p633
aS'613'
p634
aa(lp635
S'WHITMAN'
p636
ag357
aS'B309'
p637
aa(lp638
S'BUTLER'
p639
ag298
aS'302'
p640
aa(lp641
S'WHITMAN'
p642
ag341
aS'C212'
p643
aa(lp644
S'WHITMAN'
p645
ag341
aS'C210'
p646
aa(lp647
S'BUTLER'
p648
ag565
aS'B309'
p649
aa(lp650
S'MATHEY'
p651
ag509
aS'111'
p652
aa(lp653
g2
ag108
aS'E106'
p654
aa(lp655
S'WHITMAN'
p656
ag341
aS'C208'
p657
aa(lp658
S'BUTLER'
p659
ag298
aS'301'
p660
aa(lp661
S'BUTLER'
p662
ag298
aS'310'
p663
aa(lp664
S'BUTLER'
p665
ag298
aS'322'
p666
aa(lp667
S'BUTLER'
p668
aS'YOSELOFF'
p669
aS'A207'
p670
aa(lp671
S'WHITMAN'
p672
ag476
aS'G401'
p673
aa(lp674
S'WHITMAN'
p675
ag357
aS'B216'
p676
aa(lp677
S'MATHEY'
p678
ag422
aS'311'
p679
aa(lp680
S'MATHEY'
p681
ag302
aS'324'
p682
aa(lp683
S'BUTLER'
p684
ag108
aS'E107'
p685
aa(lp686
g375
ag298
aS'403'
p687
aa(lp688
g2
ag357
aS'B210'
p689
aa(lp690
S'WHITMAN'
p691
ag476
aS'G403'
p692
aa(lp693
S'MATHEY'
p694
ag468
aS'114'
p695
aa(lp696
S'WHITMAN'
p697
ag476
aS'G404'
p698
aa(lp699
S'BUTLER'
p700
ag298
aS'340'
p701
aa(lp702
S'BUTLER'
p703
ag298
aS'341'
p704
aa(lp705
S'BUTLER'
p706
ag298
aS'344'
p707
aa(lp708
S'BUTLER'
p709
ag298
aS'325'
p710
aa(lp711
S'BUTLER'
p712
ag298
aS'326'
p713
aa(lp714
g356
ag357
aS'B417'
p715
aa(lp716
S'MATHEY'
p717
ag422
aS'234'
p718
aa(lp719
S'WHITMAN'
p720
ag331
aS'E317'
p721
aa(lp722
S'MATHEY'
p723
ag509
aS'105'
p724
aa(lp725
S'BUTLER'
p726
ag298
aS'346'
p727
aa(lp728
S'BUTLER'
p729
ag298
aS'381'
p730
aa(lp731
g312
ag313
aS'F218'
p732
aa(lp733
S'MATHEY'
p734
ag509
aS'110'
p735
aa(lp736
S'WHITMAN'
p737
ag426
aS'D114'
p738
aa(lp739
S'WHITMAN'
p740
ag476
aS'G311'
p741
aa(lp742
S'BUTLER'
p743
ag298
aS'307'
p744
aa(lp745
g375
ag298
aS'244'
p746
aa(lp747
g356
ag357
aS'B419'
p748
aa(lp749
S'WHITMAN'
p750
ag313
aS'F026'
p751
aa(lp752
S'WHITMAN'
p753
ag341
aS'C209'
p754
aa(lp755
S'MATHEY'
p756
ag157
aS'071'
p757
aa(lp758
S'MATHEY'
p759
ag422
aS'312'
p760
aa(lp761
S'MATHEY'
p762
ag157
aS'381'
p763
aa(lp764
S'MATHEY'
p765
ag157
aS'393'
p766
aa(lp767
S'BUTLER'
p768
ag669
aS'A105'
p769
aa(lp770
S'WHITMAN'
p771
ag331
aS'E205'
p772
aa(lp773
S'WHITMAN'
p774
ag357
aS'B408'
p775
aa(lp776
g2
ag476
aS'G203A'
p777
aa(lp778
S'WHITMAN'
p779
ag476
aS'G304A'
p780
aa(lp781
S'BUTLER'
p782
ag298
aS'405'
p783
aa(lp784
S'BUTLER'
p785
ag298
aS'457'
p786
aa(lp787
g2
ag298
aS'427'
p788
aa(lp789
S'BUTLER'
p790
ag298
aS'408'
p791
aa(lp792
S'BUTLER'
p793
ag298
aS'404'
p794
aa(lp795
S'BUTLER'
p796
ag298
aS'316'
p797
aa(lp798
S'WHITMAN'
p799
ag341
aS'C211'
p800
aa(lp801
S'WHITMAN'
p802
ag341
aS'C213'
p803
aa(lp804
S'WHITMAN'
p805
ag357
aS'B204'
p806
aa(lp807
S'MATHEY'
p808
ag157
aS'391'
p809
aa(lp810
S'WHITMAN'
p811
ag357
aS'B316'
p812
aa(lp813
g375
ag298
aS'339'
p814
aa(lp815
g375
ag298
aS'338'
p816
aa(lp817
S'BUTLER'
p818
ag298
aS'177'
p819
aa(lp820
S'BUTLER'
p821
ag298
aS'193'
p822
aa(lp823
S'MATHEY'
p824
ag422
aS'331'
p825
aa(lp826
S'WHITMAN'
p827
ag418
aS'S102'
p828
aa(lp829
S'FORBES'
p830
aS'FORBES MAIN INN'
p831
aS'106'
p832
aa(lp833
S'WILSON'
p834
aS'1938'
p835
aS'212'
p836
aa(lp837
S'FORBES'
p838
ag831
aS'305'
p839
aa(lp840
S'FORBES'
p841
ag831
aS'112'
p842
aa(lp843
S'WILSON'
p844
aS'1927'
p845
aS'132'
p846
aa(lp847
S'FORBES'
p848
ag831
aS'255'
p849
aa(lp850
S'WILSON'
p851
aS'WALKER'
p852
aS'327'
p853
aa(lp854
S'WILSON'
p855
ag852
aS'214'
p856
aa(lp857
S'FORBES'
p858
ag831
aS'328'
p859
aa(lp860
g858
ag831
aS'329'
p861
aa(lp862
S'FORBES'
p863
ag831
aS'254'
p864
aa(lp865
S'WILSON'
p866
ag845
aS'122'
p867
aa(lp868
g858
aS'FORBES ADDITION'
p869
aS'A158'
p870
aa(lp871
S'WILSON'
p872
ag852
aS'319'
p873
aa(lp874
S'FORBES'
p875
ag831
aS'301'
p876
aa(lp877
g858
ag831
aS'302'
p878
aa(lp879
S'FORBES'
p880
ag831
aS'154'
p881
aa(lp882
S'FORBES'
p883
ag831
aS'155'
p884
aa(lp885
S'WILSON'
p886
ag845
aS'121'
p887
aa(lp888
S'WILSON'
p889
ag852
aS'213'
p890
aa(lp891
S'FORBES'
p892
ag869
aS'A155'
p893
aa(lp894
S'FORBES'
p895
ag831
aS'251'
p896
aa(lp897
S'FORBES'
p898
ag831
aS'304'
p899
aa(lp900
S'FORBES'
p901
ag831
aS'303'
p902
aa(lp903
S'FORBES'
p904
ag831
aS'151'
p905
aa(lp906
S'WILSON'
p907
aS'1939'
p908
aS'331'
p909
aa(lp910
S'FORBES'
p911
ag831
aS'224N'
p912
aa(lp913
S'FORBES'
p914
ag869
aS'A258'
p915
aa(lp916
S'FORBES'
p917
ag869
aS'A268'
p918
aa(lp919
S'WILSON'
p920
aS'FEINBERG'
p921
aS'302'
p922
aa(lp923
S'WILSON'
p924
aS'DODGE OSBORN'
p925
aS'212'
p926
aa(lp927
S'WILSON'
p928
ag921
aS'301'
p929
aa(lp930
S'WILSON'
p931
ag852
aS'324'
p932
aa(lp933
S'WILSON'
p934
ag925
aS'204'
p935
aa(lp936
S'FORBES'
p937
ag869
aS'A270'
p938
aa(lp939
S'WILSON'
p940
ag835
aS'235'
p941
aa(lp942
g858
ag869
aS'A157'
p943
aa(lp944
S'WILSON'
p945
aS'CLAPP'
p946
aS'232'
p947
aa(lp948
S'FORBES'
p949
ag869
aS'A147'
p950
aa(lp951
S'FORBES'
p952
ag831
aS'262'
p953
aa(lp954
g858
ag831
aS'261'
p955
aa(lp956
S'WILSON'
p957
aS'GAUSS'
p958
aS'117'
p959
aa(lp960
S'WILSON'
p961
ag845
aS'111'
p962
aa(lp963
S'WILSON'
p964
ag852
aS'332'
p965
aa(lp966
g957
ag958
aS'130'
p967
aa(lp968
S'FORBES'
p969
ag831
aS'220'
p970
aa(lp971
S'FORBES'
p972
ag831
aS'219'
p973
aa(lp974
S'FORBES'
p975
ag869
aS'A133'
p976
aa(lp977
S'FORBES'
p978
ag831
aS'331'
p979
aa(lp980
S'WILSON'
p981
ag852
aS'132'
p982
aa(lp983
S'WILSON'
p984
ag925
aS'202'
p985
aa(lp986
S'WILSON'
p987
ag852
aS'331'
p988
aa(lp989
S'FORBES'
p990
ag831
aS'267'
p991
aa(lp992
S'FORBES'
p993
ag831
aS'264'
p994
aa(lp995
S'WILSON'
p996
ag852
aS'301'
p997
aa(lp998
S'FORBES'
p999
ag831
aS'268'
p1000
aa(lp1001
S'WILSON'
p1002
aS'1937'
p1003
aS'201'
p1004
aa(lp1005
S'WILSON'
p1006
ag1003
aS'204'
p1007
aa(lp1008
S'FORBES'
p1009
ag831
aS'266'
p1010
aa(lp1011
S'WILSON'
p1012
ag925
aS'123'
p1013
aa(lp1014
S'WILSON'
p1015
ag1003
aS'103'
p1016
aa(lp1017
S'WILSON'
p1018
ag946
aS'201'
p1019
aa(lp1020
S'FORBES'
p1021
ag869
aS'A148'
p1022
aa(lp1023
S'FORBES'
p1024
ag869
aS'A154'
p1025
aa(lp1026
S'FORBES'
p1027
ag869
aS'A152'
p1028
aa(lp1029
g1012
ag925
aS'226'
p1030
aa(lp1031
S'WILSON'
p1032
ag925
aS'227'
p1033
aa(lp1034
S'FORBES'
p1035
ag831
aS'324'
p1036
aa(lp1037
S'FORBES'
p1038
ag869
aS'A144'
p1039
aa(lp1040
S'FORBES'
p1041
ag869
aS'A142'
p1042
aa(lp1043
S'WILSON'
p1044
ag946
aS'202'
p1045
aa(lp1046
S'FORBES'
p1047
ag869
aS'A248'
p1048
aa(lp1049
S'FORBES'
p1050
ag869
aS'A146'
p1051
aa(lp1052
S'FORBES'
p1053
ag831
aS'321'
p1054
aa(lp1055
S'WILSON'
p1056
ag908
aS'126'
p1057
aa(lp1058
S'WILSON'
p1059
ag845
aS'131'
p1060
aa(lp1061
S'FORBES'
p1062
ag869
aS'A247'
p1063
aa(lp1064
S'FORBES'
p1065
ag869
aS'A257'
p1066
aa(lp1067
S'FORBES'
p1068
ag869
aS'A259'
p1069
aa(lp1070
S'FORBES'
p1071
ag831
aS'152'
p1072
aa(lp1073
g907
ag908
aS'116'
p1074
aa(lp1075
S'WILSON'
p1076
ag1003
aS'131'
p1077
aa(lp1078
g957
ag958
aS'115'
p1079
aa(lp1080
S'WILSON'
p1081
ag946
aS'212'
p1082
aa(lp1083
S'FORBES'
p1084
ag869
aS'A246'
p1085
aa(lp1086
S'WILSON'
p1087
ag1003
aS'122'
p1088
aa(lp1089
S'FORBES'
p1090
ag831
aS'108'
p1091
aa(lp1092
g858
ag831
aS'210'
p1093
aa(lp1094
S'FORBES'
p1095
ag831
aS'107'
p1096
aa(lp1097
S'WILSON'
p1098
ag925
aS'217'
p1099
aa(lp1100
S'WILSON'
p1101
ag845
aS'112'
p1102
aa(lp1103
S'WILSON'
p1104
ag958
aS'116'
p1105
aa(lp1106
S'WILSON'
p1107
ag835
aS'214'
p1108
aa(lp1109
S'WILSON'
p1110
ag958
aS'112'
p1111
aa(lp1112
S'FORBES'
p1113
ag831
aS'153'
p1114
aa(lp1115
S'WILSON'
p1116
ag958
aS'114'
p1117
aa(lp1118
S'WILSON'
p1119
ag1003
aS'121'
p1120
aa(lp1121
S'FORBES'
p1122
ag831
aS'252'
p1123
aa(lp1124
S'FORBES'
p1125
ag869
aS'A134'
p1126
aa(lp1127
S'FORBES'
p1128
ag869
aS'A135'
p1129
aa(lp1130
S'WILSON'
p1131
ag925
aS'122'
p1132
aa(lp1133
S'FORBES'
p1134
ag831
aS'253'
p1135
aa(lp1136
S'FORBES'
p1137
ag869
aS'A252'
p1138
aa(lp1139
S'FORBES'
p1140
ag869
aS'A250'
p1141
aa(lp1142
S'WILSON'
p1143
ag958
aS'101'
p1144
aa(lp1145
S'FORBES'
p1146
ag869
aS'A136'
p1147
aa(lp1148
S'FORBES'
p1149
ag831
aS'235'
p1150
aa(lp1151
S'FORBES'
p1152
ag869
aS'A242'
p1153
aa(lp1154
S'WILSON'
p1155
ag1003
aS'216'
p1156
aa(lp1157
S'FORBES'
p1158
ag831
aS'217'
p1159
aa(lp1160
S'FORBES'
p1161
ag869
aS'A256'
p1162
aa(lp1163
S'FORBES'
p1164
ag831
aS'263'
p1165
aa(lp1166
S'WILSON'
p1167
ag925
aS'121'
p1168
aa(lp1169
g920
ag921
aS'401'
p1170
aa(lp1171
g1059
ag845
aS'133'
p1172
aa(lp1173
S'FORBES'
p1174
ag869
aS'A254'
p1175
aa(lp1176
S'WILSON'
p1177
ag925
aS'201'
p1178
aa(lp1179
S'FORBES'
p1180
ag869
aS'A266'
p1181
aa(lp1182
S'FORBES'
p1183
ag869
aS'A260'
p1184
aa(lp1185
S'FORBES'
p1186
ag869
aS'A261'
p1187
aa(lp1188
S'FORBES'
p1189
ag869
aS'A263'
p1190
aa(lp1191
S'FORBES'
p1192
ag831
aS'234'
p1193
aa(lp1194
S'FORBES'
p1195
ag869
aS'A249'
p1196
aa(lp1197
S'WILSON'
p1198
ag1003
aS'205'
p1199
aa(lp1200
S'WILSON'
p1201
ag921
aS'402'
p1202
aa(lp1203
S'WILSON'
p1204
ag835
aS'112'
p1205
aa(lp1206
S'WILSON'
p1207
ag1003
aS'215'
p1208
aa(lp1209
g858
ag831
aS'216'
p1210
aa(lp1211
S'FORBES'
p1212
ag869
aS'A245'
p1213
aa(lp1214
S'FORBES'
p1215
ag831
aS'237'
p1216
aa(lp1217
S'WILSON'
p1218
ag835
aS'213'
p1219
aa(lp1220
S'WILSON'
p1221
ag835
aS'114'
p1222
aa(lp1223
S'WILSON'
p1224
ag925
aS'216'
p1225
aa(lp1226
S'WILSON'
p1227
ag1003
aS'105'
p1228
aa(lp1229
g957
ag958
aS'131'
p1230
aa(lp1231
g957
ag958
aS'134'
p1232
aa(lp1233
S'FORBES'
p1234
ag869
aS'A125'
p1235
aa(lp1236
S'FORBES'
p1237
ag869
aS'A145'
p1238
aa(lp1239
S'WILSON'
p1240
ag835
aS'211'
p1241
aa(lp1242
S'WILSON'
p1243
ag958
aS'113'
p1244
aa(lp1245
g1012
ag925
aS'223'
p1246
aa(lp1247
S'FORBES'
p1248
ag831
aS'239'
p1249
aa(lp1250
S'FORBES'
p1251
ag831
aS'206'
p1252
aa(lp1253
S'FORBES'
p1254
ag831
aS'221'
p1255
aa(lp1256
S'WILSON'
p1257
ag908
aS'336'
p1258
aa(lp1259
S'FORBES'
p1260
ag831
aS'111'
p1261
aa(lp1262
S'WILSON'
p1263
ag835
aS'132'
p1264
aa(lp1265
g1012
ag925
aS'124'
p1266
aa(lp1267
g1012
ag925
aS'125'
p1268
aa(lp1269
S'FORBES'
p1270
ag869
aS'A337'
p1271
aa(lp1272
g1018
ag946
aS'231'
p1273
aa(lp1274
S'WILSON'
p1275
ag845
aS'135'
p1276
aa(lp1277
S'FORBES'
p1278
ag831
aS'110'
p1279
aa(lp1280
S'WHITMAN'
p1281
ag341
aS'C215'
p1282
aa(lp1283
g907
ag908
aS'228'
p1284
aa(lp1285
S'FORBES'
p1286
ag869
aS'A231'
p1287
aa(lp1288
g957
ag958
aS'132'
p1289
aa(lp1290
g957
ag958
aS'133'
p1291
aa(lp1292
S'FORBES'
p1293
ag831
aS'207'
p1294
aa(lp1295
S'FORBES'
p1296
ag869
aS'A427'
p1297
aa(lp1298
S'WILSON'
p1299
ag925
aS'203'
p1300
aa(lp1301
S'FORBES'
p1302
ag869
aS'A265'
p1303
aa(lp1304
S'FORBES'
p1305
ag869
aS'A331'
p1306
aa(lp1307
S'WILSON'
p1308
ag852
aS'328'
p1309
aa(lp1310
g1308
ag852
aS'333'
p1311
aa(lp1312
S'FORBES'
p1313
ag831
aS'208'
p1314
aa(lp1315
S'FORBES'
p1316
ag869
aS'A377'
p1317
aa(lp1318
S'FORBES'
p1319
ag869
aS'A431'
p1320
aa(lp1321
S'FORBES'
p1322
ag869
aS'A327'
p1323
aa(lp1324
S'WILSON'
p1325
ag852
aS'322'
p1326
aa(lp1327
S'WILSON'
p1328
ag852
aS'302'
p1329
aa(lp1330
S'FORBES'
p1331
ag869
aS'A232'
p1332
aa(lp1333
S'WILSON'
p1334
ag852
aS'305'
p1335
aa(lp1336
S'FORBES'
p1337
ag869
aS'A238'
p1338
aa(lp1339
S'WILSON'
p1340
ag852
aS'312'
p1341
aa(lp1342
S'FORBES'
p1343
ag869
aS'A234'
p1344
aa(lp1345
S'FORBES'
p1346
ag869
aS'A236'
p1347
aa(lp1348
S'WILSON'
p1349
ag852
aS'303'
p1350
aa(lp1351
S'FORBES'
p1352
ag869
aS'A338'
p1353
aa(lp1354
S'FORBES'
p1355
ag869
aS'A323'
p1356
aa(lp1357
S'FORBES'
p1358
ag869
aS'A131'
p1359
aa(lp1360
S'FORBES'
p1361
ag869
aS'A332'
p1362
aa(lp1363
S'FORBES'
p1364
ag869
aS'A132'
p1365
aa(lp1366
S'FORBES'
p1367
ag869
aS'A328'
p1368
aa(lp1369
g858
ag869
aS'A371'
p1370
aa(lp1371
g858
ag869
aS'A438'
p1372
aa(lp1373
S'FORBES'
p1374
ag869
aS'A428'
p1375
aa(lp1376
g858
ag869
aS'A436'
p1377
aa(lp1378
g858
ag869
aS'A434'
p1379
aa(lp1380
S'FORBES'
p1381
ag869
aS'A432'
p1382
aa(lp1383
S'FORBES'
p1384
ag869
aS'A336'
p1385
aa(lp1386
S'FORBES'
p1387
ag869
aS'A334'
p1388
aa(lp1389
g858
ag869
aS'A424'
p1390
aa(lp1391
S'FORBES'
p1392
ag869
aS'A228'
p1393
aa(lp1394
S'FORBES'
p1395
ag869
aS'A137'
p1396
aa(lp1397
S'FORBES'
p1398
ag869
aS'A138'
p1399
aa(lp1400
g858
ag869
aS'A226'
p1401
aa(lp1402
S'FORBES'
p1403
ag869
aS'A426'
p1404
aa(lp1405
S'WILSON'
p1406
ag835
aS'121'
p1407
aa(lp1408
S'WHITMAN'
p1409
ag331
aS'E315'
p1410
aa(lp1411
S'BUTLER'
p1412
ag298
aS'429'
p1413
aa(lp1414
S'BUTLER'
p1415
ag298
aS'323'
p1416
aa(lp1417
g312
ag313
aS'F216'
p1418
aa(lp1419
S'BUTLER'
p1420
ag298
aS'467'
p1421
aa(lp1422
S'WHITMAN'
p1423
ag341
aS'C217'
p1424
aa(lp1425
S'WHITMAN'
p1426
ag426
aS'D108'
p1427
aa(lp1428
S'BUTLER'
p1429
ag298
aS'481'
p1430
aa(lp1431
S'WHITMAN'
p1432
ag476
aS'G407A'
p1433
aa(lp1434
S'WHITMAN'
p1435
ag357
aS'B409'
p1436
aa(lp1437
g356
ag357
aS'B424'
p1438
aa(lp1439
S'WHITMAN'
p1440
ag331
aS'E309'
p1441
aa(lp1442
S'BUTLER'
p1443
ag306
aS'D112'
p1444
aa(lp1445
S'BUTLER'
p1446
ag298
aS'423'
p1447
aa(lp1448
g2
ag357
aS'B310'
p1449
aa(lp1450
S'BUTLER'
p1451
ag298
aS'121'
p1452
aa(lp1453
S'BUTLER'
p1454
ag298
aS'304'
p1455
aa(lp1456
S'WHITMAN'
p1457
ag313
aS'F302'
p1458
aa(lp1459
g1426
ag426
aS'D308'
p1460
aa(lp1461
S'WHITMAN'
p1462
ag426
aS'D302'
p1463
aa(lp1464
S'BUTLER'
p1465
ag298
aS'181'
p1466
aa(lp1467
S'WHITMAN'
p1468
ag418
aS'S202'
p1469
aa(lp1470
S'WHITMAN'
p1471
ag341
aS'C216'
p1472
aa(lp1473
S'BUTLER'
p1474
ag565
aS'B214'
p1475
aa(lp1476
S'WHITMAN'
p1477
ag341
aS'C206'
p1478
aa(lp1479
S'WHITMAN'
p1480
ag341
aS'C207'
p1481
aa(lp1482
S'BUTLER'
p1483
ag108
aS'E108'
p1484
aa(lp1485
S'BUTLER'
p1486
ag108
aS'E102'
p1487
aa(lp1488
S'BUTLER'
p1489
ag669
aS'A205'
p1490
aa(lp1491
g564
ag565
aS'B208'
p1492
aa(lp1493
S'WHITMAN'
p1494
ag331
aS'E221'
p1495
aa(lp1496
S'WHITMAN'
p1497
ag331
aS'E109'
p1498
aa(lp1499
S'BUTLER'
p1500
ag298
aS'318'
p1501
aa(lp1502
S'BUTLER'
p1503
ag298
aS'320'
p1504
aa(lp1505
S'WHITMAN'
p1506
ag476
aS'G406'
p1507
aa(lp1508
g330
ag331
aS'E321'
p1509
aa(lp1510
g312
ag313
aS'F328'
p1511
aa(lp1512
S'WHITMAN'
p1513
ag331
aS'E314'
p1514
aa(lp1515
S'WHITMAN'
p1516
ag331
aS'E323'
p1517
aa(lp1518
S'WHITMAN'
p1519
ag331
aS'E306'
p1520
aa(lp1521
S'BUTLER'
p1522
ag633
aS'422'
p1523
aa(lp1524
g356
ag357
aS'B416'
p1525
aa(lp1526
S'BUTLER'
p1527
ag298
aS'329'
p1528
aa(lp1529
S'BUTLER'
p1530
ag298
aS'140'
p1531
aa(lp1532
S'BUTLER'
p1533
ag633
aS'615'
p1534
aa(lp1535
g356
ag341
aS'C306'
p1536
aa(lp1537
S'BUTLER'
p1538
ag298
aS'191'
p1539
aa(lp1540
S'WHITMAN'
p1541
ag426
aS'D107'
p1542
aa(lp1543
S'BUTLER'
p1544
ag633
aS'421'
p1545
aa(lp1546
S'BUTLER'
p1547
ag298
aS'458'
p1548
aa(lp1549
S'WHITMAN'
p1550
ag476
aS'G101D'
p1551
aa(lp1552
S'WHITMAN'
p1553
ag357
aS'B318'
p1554
aa(lp1555
S'BUTLER'
p1556
ag298
aS'132'
p1557
aa(lp1558
g356
ag341
aS'C302'
p1559
aa(lp1560
S'WHITMAN'
p1561
ag357
aS'B410'
p1562
aa(lp1563
g356
ag357
aS'B412'
p1564
aa(lp1565
g356
ag357
aS'B420'
p1566
aa(lp1567
g356
ag357
aS'B422'
p1568
aa(lp1569
S'BUTLER'
p1570
ag669
aS'A202'
p1571
aa(lp1572
S'BUTLER'
p1573
ag298
aS'182'
p1574
aa(lp1575
S'WHITMAN'
p1576
ag418
aS'S405'
p1577
aa(lp1578
g1426
ag426
aS'D418'
p1579
aa(lp1580
g1426
ag426
aS'D420'
p1581
aa(lp1582
S'WHITMAN'
p1583
ag331
aS'E223'
p1584
aa(lp1585
S'WHITMAN'
p1586
ag357
aS'B428'
p1587
aa(lp1588
S'BUTLER'
p1589
ag633
aS'614'
p1590
aa(lp1591
g330
ag418
aS'S206'
p1592
aa(lp1593
S'WHITMAN'
p1594
ag476
aS'G402'
p1595
aa(lp1596
S'BUTLER'
p1597
ag633
aS'624'
p1598
aa(lp1599
g375
ag298
aS'239'
p1600
aa(lp1601
S'BUTLER'
p1602
ag565
aS'B204'
p1603
aa(lp1604
S'WHITMAN'
p1605
ag426
aS'D201'
p1606
aa(lp1607
S'WHITMAN'
p1608
ag418
aS'S402'
p1609
aa(lp1610
S'WHITMAN'
p1611
ag357
aS'B317'
p1612
aa(lp1613
S'BUTLER'
p1614
ag306
aS'D212'
p1615
aa(lp1616
S'WHITMAN'
p1617
ag426
aS'D109'
p1618
aa(lp1619
S'WHITMAN'
p1620
ag426
aS'D105'
p1621
aa(lp1622
S'BUTLER'
p1623
ag633
aS'611'
p1624
aa(lp1625
S'BUTLER'
p1626
ag633
aS'511'
p1627
aa(lp1628
S'BUTLER'
p1629
ag633
aS'514'
p1630
aa(lp1631
S'WHITMAN'
p1632
ag426
aS'D307'
p1633
aa(lp1634
S'BUTLER'
p1635
ag633
aS'623'
p1636
aa(lp1637
S'BUTLER'
p1638
ag298
aS'454'
p1639
aa(lp1640
S'BUTLER'
p1641
ag669
aS'A203'
p1642
aa(lp1643
S'BUTLER'
p1644
ag633
aS'521'
p1645
aa(lp1646
S'BUTLER'
p1647
ag633
aS'513'
p1648
aa(lp1649
S'WHITMAN'
p1650
ag313
aS'F107'
p1651
aa(lp1652
S'WHITMAN'
p1653
ag331
aS'E108'
p1654
aa(lp1655
g293
ag294
aS'A308'
p1656
aa(lp1657
S'BUTLER'
p1658
ag633
aS'423'
p1659
aa(lp1660
S'BUTLER'
p1661
ag633
aS'425'
p1662
aa(lp1663
S'BUTLER'
p1664
ag633
aS'424'
p1665
aa(lp1666
S'BUTLER'
p1667
ag633
aS'414'
p1668
aa(lp1669
S'WHITMAN'
p1670
ag294
aS'A316'
p1671
aa(lp1672
S'WHITMAN'
p1673
ag294
aS'A312'
p1674
aa(lp1675
g293
ag294
aS'A305'
p1676
aa(lp1677
S'WHITMAN'
p1678
ag418
aS'S302'
p1679
aa(lp1680
S'BUTLER'
p1681
ag516
aS'C202'
p1682
aa(lp1683
S'BUTLER'
p1684
ag108
aS'E202'
p1685
aa(lp1686
S'BUTLER'
p1687
ag108
aS'E205'
p1688
aa(lp1689
S'WHITMAN'
p1690
ag426
aS'D305'
p1691
aa(lp1692
g293
ag294
aS'A302'
p1693
aa(lp1694
S'WHITMAN'
p1695
ag294
aS'A321'
p1696
aa(lp1697
S'WHITMAN'
p1698
ag313
aS'F103'
p1699
aa(lp1700
S'WHITMAN'
p1701
ag357
aS'B311'
p1702
aa(lp1703
S'BUTLER'
p1704
ag633
aS'524'
p1705
aa(lp1706
g2
ag633
aS'413'
p1707
aa(lp1708
S'BUTLER'
p1709
ag108
aS'E305'
p1710
aa(lp1711
S'WHITMAN'
p1712
ag426
aS'D203'
p1713
aa(lp1714
S'WHITMAN'
p1715
ag418
aS'S406'
p1716
aa(lp1717
S'WHITMAN'
p1718
ag418
aS'S404'
p1719
aa(lp1720
S'WHITMAN'
p1721
ag331
aS'E313'
p1722
aa(lp1723
S'WHITMAN'
p1724
ag331
aS'E311'
p1725
aa(lp1726
S'BUTLER'
p1727
ag108
aS'E302'
p1728
aa(lp1729
S'BUTLER'
p1730
ag633
aS'621'
p1731
aa(lp1732
g564
ag565
aS'B302'
p1733
aa(lp1734
S'BUTLER'
p1735
ag565
aS'B304'
p1736
aa(lp1737
S'WHITMAN'
p1738
ag313
aS'F105'
p1739
aa(lp1740
S'WHITMAN'
p1741
ag331
aS'E308'
p1742
aa(lp1743
S'BUTLER'
p1744
ag565
aS'B202'
p1745
aa(lp1746
S'WHITMAN'
p1747
ag331
aS'E319'
p1748
aa(lp1749
S'WHITMAN'
p1750
ag313
aS'F116'
p1751
aa(lp1752
S'WHITMAN'
p1753
ag357
aS'B314'
p1754
aa(lp1755
S'BUTLER'
p1756
ag633
aS'523'
p1757
aa(lp1758
S'BUTLER'
p1759
ag565
aS'B213'
p1760
aa(lp1761
g375
ag298
aS'347'
p1762
aa(lp1763
S'WHITMAN'
p1764
ag313
aS'F007'
p1765
aa(lp1766
S'WHITMAN'
p1767
ag426
aS'D303'
p1768
aa(lp1769
S'WHITMAN'
p1770
ag476
aS'G101A'
p1771
aa(lp1772
S'WHITMAN'
p1773
ag294
aS'A317'
p1774
aa(lp1775
S'BUTLER'
p1776
ag633
aS'512'
p1777
aa(lp1778
S'WHITMAN'
p1779
ag357
aS'B205'
p1780
aa(lp1781
S'WHITMAN'
p1782
ag476
aS'G407B'
p1783
aa(lp1784
S'WHITMAN'
p1785
ag472
aS'T302'
p1786
aa(lp1787
S'BUTLER'
p1788
ag633
aS'522'
p1789
aa(lp1790
S'WHITMAN'
p1791
ag313
aS'F024'
p1792
aa(lp1793
S'BUTLER'
p1794
ag633
aS'622'
p1795
aa(lp1796
S'WHITMAN'
p1797
ag313
aS'F114'
p1798
aa(lp1799
S'WHITMAN'
p1800
ag313
aS'F113'
p1801
aa(lp1802
g632
ag633
aS'612'
p1803
aa(lp1804
S'BUTLER'
p1805
ag669
aS'A113'
p1806
aa(lp1807
S'WHITMAN'
p1808
ag313
aS'F117'
p1809
aa(lp1810
S'WHITMAN'
p1811
ag313
aS'F226'
p1812
aa(lp1813
S'BUTLER'
p1814
ag565
aS'B212'
p1815
aa(lp1816
S'WHITMAN'
p1817
ag426
aS'D112'
p1818
aa(lp1819
S'WHITMAN'
p1820
ag313
aS'F018'
p1821
aa(lp1822
S'BUTLER'
p1823
ag306
aS'D312'
p1824
aa(lp1825
S'WHITMAN'
p1826
ag357
aS'B315'
p1827
aa(lp1828
g305
ag306
aS'D215'
p1829
aa(lp1830
g356
ag357
aS'B411'
p1831
aa(lp1832
g356
ag357
aS'B415'
p1833
aa(lp1834
S'WHITMAN'
p1835
ag357
aS'B320'
p1836
aa(lp1837
g668
ag669
aS'A115'
p1838
aa(lp1839
g356
ag341
aS'C204'
p1840
aa(lp1841
g668
ag669
aS'A215'
p1842
aa(lp1843
S'WHITMAN'
p1844
ag331
aS'E310'
p1845
aa(lp1846
g375
ag298
aS'335'
p1847
aa(lp1848
g305
ag306
aS'D110'
p1849
aa(lp1850
S'BUTLER'
p1851
ag565
aS'B211'
p1852
aa(lp1853
g375
ag298
aS'240'
p1854
aa(lp1855
g375
ag298
aS'330'
p1856
aa(lp1857
S'BUTLER'
p1858
ag516
aS'C102'
p1859
aa(lp1860
g375
ag298
aS'333'
p1861
aa(lp1862
S'BUTLER'
p1863
ag516
aS'C204'
p1864
aa(lp1865
S'MATHEY'
p1866
ag468
aS'061'
p1867
aa(lp1868
S'MATHEY'
p1869
ag468
aS'B71'
p1870
aa(lp1871
S'MATHEY'
p1872
ag468
aS'B52'
p1873
aa(lp1874
S'ROCKEFELLER'
p1875
aS'HOLDER'
p1876
aS'012'
p1877
aa(lp1878
S'MATHEY'
p1879
ag468
aS'B72'
p1880
aa(lp1881
S'ROCKEFELLER'
p1882
ag1876
aS'068'
p1883
aa(lp1884
S'MATHEY'
p1885
ag468
aS'B51'
p1886
aa(lp1887
S'MATHEY'
p1888
ag157
aS'015'
p1889
aa(lp1890
S'ROCKEFELLER'
p1891
ag1876
aS'079'
p1892
aa(lp1893
S'ROCKEFELLER'
p1894
ag1876
aS'076'
p1895
aa(lp1896
g603
ag509
aS'101'
p1897
aa(lp1898
S'ROCKEFELLER'
p1899
aS'WITHERSPOON'
p1900
aS'421'
p1901
aa(lp1902
S'MATHEY'
p1903
ag509
aS'103'
p1904
aa(lp1905
S'MATHEY'
p1906
ag468
aS'A02'
p1907
aa(lp1908
S'MATHEY'
p1909
ag509
aS'117'
p1910
aa(lp1911
S'ROCKEFELLER'
p1912
aS'BUYERS'
p1913
aS'B13'
p1914
aa(lp1915
S'MATHEY'
p1916
ag509
aS'512'
p1917
aa(lp1918
S'ROCKEFELLER'
p1919
ag1900
aS'417'
p1920
aa(lp1921
S'MATHEY'
p1922
ag468
aS'B82'
p1923
aa(lp1924
S'MATHEY'
p1925
ag468
aS'B73'
p1926
aa(lp1927
S'ROCKEFELLER'
p1928
ag1900
aS'517'
p1929
aa(lp1930
S'MATHEY'
p1931
ag157
aS'323'
p1932
aa(lp1933
S'MATHEY'
p1934
ag509
aS'513'
p1935
aa(lp1936
g1869
ag468
aS'B81'
p1937
aa(lp1938
S'MATHEY'
p1939
ag468
aS'096'
p1940
aa(lp1941
S'MATHEY'
p1942
ag157
aS'305'
p1943
aa(lp1944
S'ROCKEFELLER'
p1945
ag1900
aS'217'
p1946
aa(lp1947
S'MATHEY'
p1948
ag157
aS'387'
p1949
aa(lp1950
S'MATHEY'
p1951
ag509
aS'507'
p1952
aa(lp1953
S'MATHEY'
p1954
ag509
aS'508'
p1955
aa(lp1956
S'ROCKEFELLER'
p1957
ag1876
aS'142'
p1958
aa(lp1959
S'MATHEY'
p1960
ag509
aS'510'
p1961
aa(lp1962
S'ROCKEFELLER'
p1963
ag1900
aS'317'
p1964
aa(lp1965
S'ROCKEFELLER'
p1966
ag1900
aS'422'
p1967
aa(lp1968
S'MATHEY'
p1969
ag468
aS'093'
p1970
aa(lp1971
g1928
ag1900
aS'416'
p1972
aa(lp1973
S'ROCKEFELLER'
p1974
ag1900
aS'414'
p1975
aa(lp1976
S'MATHEY'
p1977
ag468
aS'B91'
p1978
aa(lp1979
S'MATHEY'
p1980
ag468
aS'097'
p1981
aa(lp1982
S'MATHEY'
p1983
ag302
aS'325'
p1984
aa(lp1985
S'MATHEY'
p1986
ag302
aS'322'
p1987
aa(lp1988
S'MATHEY'
p1989
ag468
aS'B92'
p1990
aa(lp1991
S'MATHEY'
p1992
ag509
aS'511'
p1993
aa(lp1994
S'ROCKEFELLER'
p1995
ag1876
aS'075'
p1996
aa(lp1997
S'ROCKEFELLER'
p1998
ag1900
aS'510'
p1999
aa(lp2000
g1928
ag1900
aS'512'
p2001
aa(lp2002
S'ROCKEFELLER'
p2003
ag1876
aS'067'
p2004
aa(lp2005
g1995
ag1876
aS'056'
p2006
aa(lp2007
S'MATHEY'
p2008
ag509
aS'505'
p2009
aa(lp2010
S'MATHEY'
p2011
ag509
aS'112'
p2012
aa(lp2013
S'MATHEY'
p2014
ag468
aS'098'
p2015
aa(lp2016
S'MATHEY'
p2017
ag422
aS'231'
p2018
aa(lp2019
S'MATHEY'
p2020
ag157
aS'325'
p2021
aa(lp2022
S'MATHEY'
p2023
ag157
aS'327'
p2024
aa(lp2025
S'MATHEY'
p2026
ag422
aS'434'
p2027
aa(lp2028
S'ROCKEFELLER'
p2029
ag1900
aS'321'
p2030
aa(lp2031
S'MATHEY'
p2032
aS'CAMPBELL'
p2033
aS'006A'
p2034
aa(lp2035
S'ROCKEFELLER'
p2036
ag1876
aS'061'
p2037
aa(lp2038
S'MATHEY'
p2039
ag509
aS'514'
p2040
aa(lp2041
S'MATHEY'
p2042
ag509
aS'509'
p2043
aa(lp2044
g603
ag509
aS'317'
p2045
aa(lp2046
S'ROCKEFELLER'
p2047
ag1900
aS'516'
p2048
aa(lp2049
S'MATHEY'
p2050
ag157
aS'329'
p2051
aa(lp2052
S'MATHEY'
p2053
ag157
aS'063'
p2054
aa(lp2055
S'MATHEY'
p2056
ag2033
aS'005B'
p2057
aa(lp2058
S'ROCKEFELLER'
p2059
ag1900
aS'117'
p2060
aa(lp2061
S'ROCKEFELLER'
p2062
ag1900
aS'222'
p2063
aa(lp2064
S'ROCKEFELLER'
p2065
ag1876
aS'074'
p2066
aa(lp2067
S'MATHEY'
p2068
ag422
aS'232'
p2069
aa(lp2070
S'MATHEY'
p2071
ag2033
aS'052'
p2072
aa(lp2073
S'MATHEY'
p2074
ag468
aS'045'
p2075
aa(lp2076
S'ROCKEFELLER'
p2077
ag1876
aS'011'
p2078
aa(lp2079
S'MATHEY'
p2080
ag422
aS'233'
p2081
aa(lp2082
S'ROCKEFELLER'
p2083
ag1913
aS'024'
p2084
aa(lp2085
S'MATHEY'
p2086
ag509
aS'515'
p2087
aa(lp2088
S'MATHEY'
p2089
ag157
aS'301'
p2090
aa(lp2091
g1995
ag1876
aS'115'
p2092
aa(lp2093
S'MATHEY'
p2094
ag157
aS'309'
p2095
aa(lp2096
S'ROCKEFELLER'
p2097
ag1900
aS'312'
p2098
aa(lp2099
S'ROCKEFELLER'
p2100
ag1900
aS'006'
p2101
aa(lp2102
g438
ag422
aS'323'
p2103
aa(lp2104
S'MATHEY'
p2105
ag157
aS'074'
p2106
aa(lp2107
S'ROCKEFELLER'
p2108
ag1913
aS'033'
p2109
aa(lp2110
S'MATHEY'
p2111
ag509
aS'102'
p2112
aa(lp2113
S'MATHEY'
p2114
ag157
aS'313'
p2115
aa(lp2116
S'MATHEY'
p2117
ag468
aS'095'
p2118
aa(lp2119
S'MATHEY'
p2120
ag2033
aS'052B'
p2121
aa(lp2122
S'MATHEY'
p2123
ag157
aS'321'
p2124
aa(lp2125
S'MATHEY'
p2126
ag2033
aS'063'
p2127
aa(lp2128
S'ROCKEFELLER'
p2129
ag1900
aS'403'
p2130
aa(lp2131
S'MATHEY'
p2132
ag468
aS'051'
p2133
aa(lp2134
S'ROCKEFELLER'
p2135
ag1900
aS'408'
p2136
aa(lp2137
S'ROCKEFELLER'
p2138
ag2033
aS'004B'
p2139
aa(lp2140
S'ROCKEFELLER'
p2141
ag1900
aS'410'
p2142
aa(lp2143
S'MATHEY'
p2144
ag2033
aS'052A'
p2145
aa(lp2146
S'ROCKEFELLER'
p2147
ag1900
aS'303'
p2148
aa(lp2149
S'ROCKEFELLER'
p2150
ag1876
aS'107'
p2151
aa(lp2152
S'MATHEY'
p2153
ag2033
aS'061'
p2154
aa(lp2155
S'MATHEY'
p2156
ag468
aS'305'
p2157
aa(lp2158
S'MATHEY'
p2159
ag468
aS'302'
p2160
aa(lp2161
S'ROCKEFELLER'
p2162
ag1913
aS'B21'
p2163
aa(lp2164
S'MATHEY'
p2165
ag468
aS'301'
p2166
aa(lp2167
S'MATHEY'
p2168
ag157
aS'073'
p2169
aa(lp2170
S'ROCKEFELLER'
p2171
ag1900
aS'405'
p2172
aa(lp2173
S'ROCKEFELLER'
p2174
ag1900
aS'316'
p2175
aa(lp2176
S'ROCKEFELLER'
p2177
ag1900
aS'121'
p2178
aa(lp2179
S'ROCKEFELLER'
p2180
ag1876
aS'078'
p2181
aa(lp2182
S'MATHEY'
p2183
ag157
aS'051'
p2184
aa(lp2185
S'MATHEY'
p2186
ag157
aS'053'
p2187
aa(lp2188
S'ROCKEFELLER'
p2189
ag1876
aS'047'
p2190
aa(lp2191
S'ROCKEFELLER'
p2192
ag1900
aS'415'
p2193
aa(lp2194
S'ROCKEFELLER'
p2195
ag1876
aS'097'
p2196
aa(lp2197
S'ROCKEFELLER'
p2198
ag1900
aS'203'
p2199
aa(lp2200
g1869
ag468
aS'064'
p2201
aa(lp2202
S'ROCKEFELLER'
p2203
ag1900
aS'201'
p2204
aa(lp2205
S'ROCKEFELLER'
p2206
ag1900
aS'401'
p2207
aa(lp2208
S'MATHEY'
p2209
ag468
aS'081'
p2210
aa(lp2211
S'MATHEY'
p2212
ag468
aS'102'
p2213
aa(lp2214
S'ROCKEFELLER'
p2215
ag1876
aS'126'
p2216
aa(lp2217
S'ROCKEFELLER'
p2218
ag1876
aS'086'
p2219
aa(lp2220
S'MATHEY'
p2221
ag468
aS'091'
p2222
aa(lp2223
S'MATHEY'
p2224
ag468
aS'083'
p2225
aa(lp2226
S'ROCKEFELLER'
p2227
ag1876
aS'096'
p2228
aa(lp2229
S'ROCKEFELLER'
p2230
ag1900
aS'211'
p2231
aa(lp2232
S'MATHEY'
p2233
ag468
aS'084'
p2234
aa(lp2235
g1928
ag1900
aS'514'
p2236
aa(lp2237
S'ROCKEFELLER'
p2238
ag2033
aS'003A'
p2239
aa(lp2240
g1912
ag1913
aS'023'
p2241
aa(lp2242
g438
ag422
aS'313'
p2243
aa(lp2244
S'MATHEY'
p2245
ag302
aS'124'
p2246
aa(lp2247
S'ROCKEFELLER'
p2248
ag2033
aS'013'
p2249
aa(lp2250
g1928
ag1900
aS'114'
p2251
aa(lp2252
g1995
ag1876
aS'136'
p2253
aa(lp2254
g1995
ag1876
aS'124'
p2255
aa(lp2256
S'MATHEY'
p2257
ag157
aS'012'
p2258
aa(lp2259
S'MATHEY'
p2260
ag2033
aS'062'
p2261
aa(lp2262
S'ROCKEFELLER'
p2263
ag1876
aS'046'
p2264
aa(lp2265
g438
ag422
aS'321'
p2266
aa(lp2267
S'MATHEY'
p2268
ag157
aS'033'
p2269
aa(lp2270
S'MATHEY'
p2271
ag157
aS'031'
p2272
aa(lp2273
S'ROCKEFELLER'
p2274
ag1900
aS'210'
p2275
aa(lp2276
S'ROCKEFELLER'
p2277
ag1900
aS'214'
p2278
aa(lp2279
S'ROCKEFELLER'
p2280
ag1900
aS'208'
p2281
aa(lp2282
S'ROCKEFELLER'
p2283
ag2033
aS'003C'
p2284
aa(lp2285
S'ROCKEFELLER'
p2286
ag1900
aS'221'
p2287
aa(lp2288
S'MATHEY'
p2289
ag468
aS'092'
p2290
aa(lp2291
S'MATHEY'
p2292
ag157
aS'013'
p2293
aa(lp2294
S'ROCKEFELLER'
p2295
ag1876
aS'063'
p2296
aa(lp2297
S'MATHEY'
p2298
ag468
aS'B61'
p2299
aa(lp2300
S'ROCKEFELLER'
p2301
ag1876
aS'025'
p2302
aa(lp2303
S'ROCKEFELLER'
p2304
ag1900
aS'306'
p2305
aa(lp2306
S'ROCKEFELLER'
p2307
ag1876
aS'024'
p2308
aa(lp2309
S'ROCKEFELLER'
p2310
ag1900
aS'014'
p2311
aa(lp2312
S'ROCKEFELLER'
p2313
ag1876
aS'027'
p2314
aa(lp2315
S'ROCKEFELLER'
p2316
ag1900
aS'206'
p2317
aa(lp2318
S'ROCKEFELLER'
p2319
ag1900
aS'205'
p2320
aa(lp2321
S'ROCKEFELLER'
p2322
ag1876
aS'022'
p2323
aa(lp2324
S'ROCKEFELLER'
p2325
ag1913
aS'017'
p2326
aa(lp2327
S'ROCKEFELLER'
p2328
ag1876
aS'066'
p2329
aa(lp2330
S'ROCKEFELLER'
p2331
ag1876
aS'081'
p2332
aa(lp2333
S'ROCKEFELLER'
p2334
ag1876
aS'095'
p2335
aa(lp2336
S'ROCKEFELLER'
p2337
ag2033
aS'022'
p2338
aa(lp2339
S'ROCKEFELLER'
p2340
ag1913
aS'032'
p2341
aa(lp2342
S'ROCKEFELLER'
p2343
ag2033
aS'003B'
p2344
aa(lp2345
S'ROCKEFELLER'
p2346
ag1876
aS'073'
p2347
aa(lp2348
g1928
ag1900
aS'305'
p2349
aa(lp2350
S'ROCKEFELLER'
p2351
ag1876
aS'041'
p2352
aa(lp2353
g1995
ag1876
aS'043'
p2354
aa(lp2355
S'ROCKEFELLER'
p2356
ag2033
aS'026'
p2357
aa(lp2358
S'ROCKEFELLER'
p2359
ag1876
aS'143'
p2360
aa(lp2361
S'ROCKEFELLER'
p2362
ag1913
aS'016'
p2363
aa(lp2364
S'ROCKEFELLER'
p2365
ag1876
aS'026'
p2366
aa(lp2367
S'ROCKEFELLER'
p2368
ag1876
aS'042'
p2369
aa(lp2370
S'ROCKEFELLER'
p2371
ag1876
aS'062'
p2372
aa(lp2373
S'ROCKEFELLER'
p2374
ag1876
aS'092'
p2375
aa(lp2376
S'ROCKEFELLER'
p2377
ag1900
aS'215'
p2378
aa(lp2379
g1995
ag1876
aS'111'
p2380
aa(lp2381
g1928
ag1900
aS'515'
p2382
aa(lp2383
S'ROCKEFELLER'
p2384
ag1900
aS'409'
p2385
aa(lp2386
S'ROCKEFELLER'
p2387
ag1876
aS'037'
p2388
aa(lp2389
S'ROCKEFELLER'
p2390
ag1900
aS'209'
p2391
aa(lp2392
g2071
ag2033
aS'028'
p2393
aa(lp2394
g2071
ag2033
aS'015'
p2395
aa(lp2396
g2
ag190
aS'076'
p2397
aa(lp2398
g2
aS'WRIGHT'
p2399
aS'306'
p2400
aa(lp2401
g2
ag2399
aS'303'
p2402
aa(lp2403
g2
aS'BROWN'
p2404
aS'210'
p2405
aa(lp2406
g2
ag154
aS'403'
p2407
aa(lp2408
g2
ag2404
aS'410'
p2409
aa(lp2410
g2
ag2404
aS'429'
p2411
aa(lp2412
g2
aS'1901'
p2413
aS'411'
p2414
aa(lp2415
g2
ag122
aS'623'
p2416
aa(lp2417
g2
ag2413
aS'404'
p2418
aa(lp2419
g2
aS'FOULKE'
p2420
aS'324'
p2421
aa(lp2422
g2
ag2420
aS'321'
p2423
aa(lp2424
g2
ag154
aS'200S'
p2425
aa(lp2426
g2
ag190
aS'313'
p2427
aa(lp2428
g2
ag154
aS'311'
p2429
aa(lp2430
g2
ag154
aS'316'
p2431
aa(lp2432
g2
aS'CUYLER'
p2433
aS'413'
p2434
aa(lp2435
g2
ag119
aS'523A'
p2436
aa(lp2437
g2
ag2433
aS'403'
p2438
aa(lp2439
g2
ag2433
aS'511'
p2440
aa(lp2441
g2
ag157
aS'095'
p2442
aa(lp2443
g2
ag111
aS'420'
p2444
aa(lp2445
g2
ag111
aS'133'
p2446
aa(lp2447
g2
ag154
aS'300N'
p2448
aa(lp2449
g2
ag119
aS'133'
p2450
aa(lp2451
g2
ag190
aS'T05'
p2452
aa(lp2453
g2
ag154
aS'204'
p2454
aa(lp2455
g2
ag154
aS'205'
p2456
aa(lp2457
g2
ag122
aS'332'
p2458
aa(lp2459
g2
ag190
aS'310'
p2460
aa(lp2461
g2
ag190
aS'T12'
p2462
aa(lp2463
g2
ag190
aS'408'
p2464
aa(lp2465
g2
ag119
aS'421'
p2466
aa(lp2467
g2
ag2433
aS'633'
p2468
aa(lp2469
g2
ag2433
aS'521'
p2470
aa(lp2471
g2
ag2413
aS'112'
p2472
aa(lp2473
g2
ag2404
aS'119'
p2474
aa(lp2475
g2
ag119
aS'422'
p2476
aa(lp2477
g2
ag119
aS'243'
p2478
aa(lp2479
g2
ag154
aS'401'
p2480
aa(lp2481
g2
ag154
aS'411'
p2482
aa(lp2483
g2
ag2420
aS'316'
p2484
aa(lp2485
g2
ag2420
aS'317'
p2486
aa(lp2487
g2
ag190
aS'064'
p2488
aa(lp2489
g2
ag190
aS'040'
p2490
aa(lp2491
g2
ag154
aS'413'
p2492
aa(lp2493
g2
ag154
aS'402S'
p2494
aa(lp2495
g2
ag119
aS'522'
p2496
aa(lp2497
g2
ag119
aS'212'
p2498
aa(lp2499
g2
ag119
aS'531'
p2500
aa(lp2501
g2
ag119
aS'216'
p2502
aa(lp2503
g2
ag122
aS'511'
p2504
aa(lp2505
g2
ag119
aS'532'
p2506
aa(lp2507
g2
ag116
aS'111'
p2508
aa(lp2509
g2
ag111
aS'102'
p2510
aa(lp2511
g2
ag119
aS'222'
p2512
aa(lp2513
g2
ag111
aS'230'
p2514
aa(lp2515
g2
ag190
aS'075'
p2516
aa(lp2517
g2
ag119
aS'401'
p2518
aa(lp2519
g2
ag116
aS'103'
p2520
aa(lp2521
g2
aS'LAUGHLIN'
p2522
aS'626'
p2523
aa(lp2524
g2
ag2433
aS'438'
p2525
aa(lp2526
g2
ag2433
aS'437'
p2527
aa(lp2528
g2
ag157
aS'399'
p2529
aa(lp2530
g2
ag154
aS'215'
p2531
aa(lp2532
g2
ag111
aS'331'
p2533
aa(lp2534
g2
ag154
aS'200N'
p2535
aa(lp2536
g2
ag154
aS'400S'
p2537
aa(lp2538
g2
ag190
aS'T08'
p2539
aa(lp2540
g2
ag154
aS'400N'
p2541
aa(lp2542
g2
ag122
aS'621'
p2543
aa(lp2544
g2
ag122
aS'221'
p2545
aa(lp2546
g2
ag111
aS'233'
p2547
aa(lp2548
g2
ag125
aS'217'
p2549
aa(lp2550
g2
ag119
aS'528'
p2551
aa(lp2552
g2
ag111
aS'122'
p2553
aa(lp2554
g2
ag119
aS'527'
p2555
aa(lp2556
g2
ag111
aS'330'
p2557
aa(lp2558
g2
ag154
aS'310'
p2559
aa(lp2560
g2
ag122
aS'211'
p2561
aa(lp2562
g2
ag154
aS'312'
p2563
aa(lp2564
g2
ag154
aS'317'
p2565
aa(lp2566
g2
ag157
aS'131'
p2567
aa(lp2568
g2
ag2404
aS'111'
p2569
aa(lp2570
g2
ag2413
aS'405'
p2571
aa(lp2572
g2
ag190
aS'307'
p2573
aa(lp2574
g2
ag111
aS'321'
p2575
aa(lp2576
g2
ag111
aS'448'
p2577
aa(lp2578
g2
ag111
aS'323'
p2579
aa(lp2580
g2
ag2404
aS'312'
p2581
aa(lp2582
g2
ag111
aS'117'
p2583
aa(lp2584
g2
ag190
aS'083'
p2585
aa(lp2586
g2
ag157
aS'146'
p2587
aa(lp2588
g2
ag111
aS'144'
p2589
aa(lp2590
g2
ag111
aS'131'
p2591
aa(lp2592
g2
ag119
aS'228'
p2593
aa(lp2594
g2
ag116
aS'101'
p2595
aa(lp2596
g2
ag119
aS'414'
p2597
aa(lp2598
g2
ag190
aS'041'
p2599
aa(lp2600
g2
ag125
aS'225'
p2601
aa(lp2602
g2
ag157
aS'115'
p2603
aa(lp2604
g2
ag122
aS'613'
p2605
aa(lp2606
g2
ag119
aS'517'
p2607
aa(lp2608
g2
ag125
aS'215'
p2609
aa(lp2610
g2
ag154
aS'202'
p2611
aa(lp2612
g2
ag2399
aS'302'
p2613
aa(lp2614
g2
ag2399
aS'404'
p2615
aa(lp2616
g2
ag2399
aS'301'
p2617
aa(lp2618
g2
ag111
aS'158'
p2619
aa(lp2620
g2
ag119
aS'237'
p2621
aa(lp2622
g2
ag2413
aS'325'
p2623
aa(lp2624
g2
ag2420
aS'305'
p2625
aa(lp2626
g2
ag154
aS'304'
p2627
aa(lp2628
g2
ag154
aS'305'
p2629
aa(lp2630
g2
ag2522
aS'523'
p2631
aa(lp2632
g2
ag154
aS'301'
p2633
aa(lp2634
g2
ag2413
aS'115'
p2635
aa(lp2636
g2
ag111
aS'334'
p2637
aa(lp2638
g2
ag119
aS'215'
p2639
aa(lp2640
g2
ag2404
aS'321'
p2641
aa(lp2642
g2
ag125
aS'115'
p2643
aa(lp2644
g2
ag111
aS'221'
p2645
aa(lp2646
g2
ag111
aS'223'
p2647
aa(lp2648
g2
ag116
aS'312'
p2649
aa(lp2650
g2
ag111
aS'436'
p2651
aa(lp2652
g2
ag190
aS'087'
p2653
aa(lp2654
g2
ag154
aS'214'
p2655
aa(lp2656
g2
ag154
aS'201S'
p2657
aa(lp2658
g2
ag2413
aS'313'
p2659
aa(lp2660
g2
ag119
aS'231'
p2661
aa(lp2662
g2
ag2413
aS'312'
p2663
aa(lp2664
g2
ag122
aS'322'
p2665
aa(lp2666
g2
ag122
aS'321'
p2667
aa(lp2668
g2
ag122
aS'213'
p2669
aa(lp2670
g2
ag122
aS'212'
p2671
aa(lp2672
g2
ag122
aS'313'
p2673
aa(lp2674
g2
ag119
aS'516'
p2675
aa(lp2676
g2
ag190
aS'089'
p2677
aa(lp2678
g2
ag2433
aS'401'
p2679
aa(lp2680
g2
ag154
aS'417'
p2681
aa(lp2682
g2
ag111
aS'217'
p2683
aa(lp2684
g2
ag111
aS'121'
p2685
aa(lp2686
g2
ag111
aS'333'
p2687
aa(lp2688
g2
ag111
aS'327'
p2689
aa(lp2690
g2
ag111
aS'125'
p2691
aa(lp2692
g2
ag111
aS'325'
p2693
aa(lp2694
g2
ag111
aS'231'
p2695
aa(lp2696
g2
ag111
aS'127'
p2697
aa(lp2698
g2
ag125
aS'116'
p2699
aa(lp2700
g2
ag122
aS'344'
p2701
aa(lp2702
g2
ag2420
aS'214'
p2703
aa(lp2704
g2
ag2522
aS'624'
p2705
aa(lp2706
g2
ag111
aS'261'
p2707
aa(lp2708
g2
ag119
aS'241'
p2709
aa(lp2710
g2
ag122
aS'421'
p2711
aa(lp2712
g2
ag122
aS'343'
p2713
aa(lp2714
g2
ag122
aS'632'
p2715
aa(lp2716
g2
ag122
aS'426'
p2717
aa(lp2718
g2
ag154
aS'207'
p2719
aa(lp2720
g2
ag125
aS'125'
p2721
aa(lp2722
g2
ag111
aS'328'
p2723
aa(lp2724
g2
ag190
aS'T01'
p2725
aa(lp2726
g2
ag2399
aS'401'
p2727
aa(lp2728
g2
ag122
aS'611'
p2729
aa(lp2730
g2
ag122
aS'704'
p2731
aa(lp2732
g2
ag122
aS'616'
p2733
aa(lp2734
g2
ag119
aS'314'
p2735
aa(lp2736
g2
ag2413
aS'421'
p2737
aa(lp2738
g2
ag2404
aS'213'
p2739
aa(lp2740
g2
ag154
aS'415'
p2741
aa(lp2742
g2
ag2404
aS'414'
p2743
aa(lp2744
g2
ag119
aS'432'
p2745
aa(lp2746
g2
ag2404
aS'219'
p2747
aa(lp2748
g2
ag154
aS'402N'
p2749
aa(lp2750
g2
ag122
aS'634'
p2751
aa(lp2752
g2
ag2433
aS'234'
p2753
aa(lp2754
g2
ag2404
aS'220'
p2755
aa(lp2756
g2
ag119
aS'227'
p2757
aa(lp2758
g2
ag154
aS'202S'
p2759
aa(lp2760
g2
ag119
aS'221'
p2761
aa(lp2762
g2
ag119
aS'225'
p2763
aa(lp2764
g2
ag119
aS'433'
p2765
aa(lp2766
g2
ag2399
aS'402'
p2767
aa(lp2768
g2
ag122
aS'312'
p2769
aa(lp2770
g2
ag122
aS'311'
p2771
aa(lp2772
g2
ag122
aS'315'
p2773
aa(lp2774
g2
ag122
aS'316'
p2775
aa(lp2776
g2
ag122
aS'411'
p2777
aa(lp2778
g2
ag2420
aS'325'
p2779
aa(lp2780
g2
ag2420
aS'315'
p2781
aa(lp2782
g2
ag2433
aS'432'
p2783
aa(lp2784
g2
ag119
aS'125'
p2785
aa(lp2786
g2
ag119
aS'332'
p2787
aa(lp2788
g2
ag119
aS'121'
p2789
aa(lp2790
g2
ag119
aS'124'
p2791
aa(lp2792
g2
ag119
aS'211'
p2793
aa(lp2794
g2
ag111
aS'355'
p2795
aa(lp2796
g2
ag2399
aS'403'
p2797
aa(lp2798
g2
ag2413
aS'323'
p2799
aa(lp2800
g2
ag111
aS'313'
p2801
aa(lp2802
g2
ag111
aS'315'
p2803
aa(lp2804
g2
ag111
aS'138'
p2805
aa(lp2806
g2
ag2420
aS'202'
p2807
aa(lp2808
g2
ag2420
aS'203'
p2809
aa(lp2810
g2
ag2420
aS'201'
p2811
aa(lp2812
g2
ag111
aS'140'
p2813
aa(lp2814
g2
ag2399
aS'406'
p2815
aa(lp2816
g2
ag119
aS'134'
p2817
aa(lp2818
g2
ag119
aS'312'
p2819
aa(lp2820
g2
ag119
aS'402'
p2821
aa(lp2822
g2
ag154
aS'217'
p2823
aa(lp2824
g2
ag119
aS'513'
p2825
aa(lp2826
g2
ag119
aS'514'
p2827
aa(lp2828
g2
ag119
aS'511'
p2829
aa(lp2830
g2
ag111
aS'340'
p2831
aa(lp2832
g2
ag111
aS'128'
p2833
aa(lp2834
g2
ag111
aS'130'
p2835
aa(lp2836
g2
ag111
aS'132'
p2837
aa(lp2838
g2
ag111
aS'134'
p2839
aa(lp2840
g2
ag2522
aS'513'
p2841
aa(lp2842
g2
ag119
aS'224'
p2843
aa(lp2844
g2
ag2420
aS'318'
p2845
aa(lp2846
g2
ag116
aS'401'
p2847
aa(lp2848
g2
ag125
aS'121'
p2849
aa(lp2850
g2
ag190
aS'030'
p2851
aa(lp2852
g2
ag119
aS'143'
p2853
aa(lp2854
g2
ag2420
aS'101'
p2855
aa(lp2856
g2
ag111
aS'215'
p2857
aa(lp2858
g2
ag111
aS'213'
p2859
aa(lp2860
g2
ag125
aS'321'
p2861
aa(lp2862
g2
ag125
aS'312'
p2863
aa(lp2864
g2
ag125
aS'311'
p2865
aa(lp2866
g2
ag125
aS'314'
p2867
aa(lp2868
g2
ag154
aS'301S'
p2869
aa(lp2870
g2
ag157
aS'111'
p2871
aa(lp2872
g2
ag154
aS'306'
p2873
aa(lp2874
g2
ag154
aS'406'
p2875
aa(lp2876
g2
ag154
aS'416'
p2877
aa(lp2878
g2
ag119
aS'323'
p2879
aa(lp2880
g2
ag119
aS'322'
p2881
aa(lp2882
g2
ag119
aS'521'
p2883
aa(lp2884
g2
ag154
aS'401N'
p2885
aa(lp2886
g2
ag119
aS'526'
p2887
aa(lp2888
g2
ag154
aS'307'
p2889
aa(lp2890
g2
ag2522
aS'618'
p2891
aa(lp2892
g2
ag2522
aS'622'
p2893
aa(lp2894
g2
ag2522
aS'627'
p2895
aa(lp2896
g2
ag2522
aS'623'
p2897
aa(lp2898
g2
ag122
aS'427'
p2899
aa(lp2900
g2
ag122
aS'625'
p2901
aa(lp2902
g2
ag122
aS'425'
p2903
aa(lp2904
g2
ag190
aS'T02'
p2905
aa(lp2906
g2
ag125
aS'141'
p2907
aa(lp2908
g2
ag125
aS'151'
p2909
aa(lp2910
g2
ag125
aS'132'
p2911
aa(lp2912
g2
ag111
aS'123'
p2913
aa(lp2914
g2
ag190
aS'T11'
p2915
aa(lp2916
g2
ag122
aS'224'
p2917
aa(lp2918
g2
ag122
aS'222'
p2919
aa(lp2920
g2
ag2413
aS'113'
p2921
aa(lp2922
g2
ag157
aS'142'
p2923
aa(lp2924
g2
ag2413
aS'132'
p2925
aa(lp2926
g2
ag119
aS'431'
p2927
aa(lp2928
g2
ag154
aS'407'
p2929
aa(lp2930
g2
ag154
aS'302N'
p2931
aa(lp2932
g2
ag2404
aS'113'
p2933
aa(lp2934
g2
ag154
aS'101N'
p2935
aa(lp2936
g2
ag119
aS'136'
p2937
aa(lp2938
g2
ag157
aS'A46'
p2939
aa(lp2940
g2
ag125
aS'226'
p2941
aa(lp2942
g2
ag125
aS'220'
p2943
aa(lp2944
g2
ag125
aS'224'
p2945
aa(lp2946
g2
ag125
aS'229'
p2947
aa(lp2948
g2
ag2413
aS'126'
p2949
aa(lp2950
g2
ag119
aS'223'
p2951
aa(lp2952
g2
ag111
aS'227'
p2953
aa(lp2954
g2
ag111
aS'225'
p2955
aa(lp2956
g2
ag119
aS'242'
p2957
aa(lp2958
g2
ag122
aS'433'
p2959
aa(lp2960
g2
ag122
aS'431'
p2961
aa(lp2962
g2
ag119
aS'235'
p2963
aa(lp2964
g2
ag119
aS'142'
p2965
aa(lp2966
g2
ag119
aS'234'
p2967
aa(lp2968
g2
ag119
aS'233'
p2969
aa(lp2970
g2
ag111
aS'270'
p2971
aa(lp2972
g2
ag119
aS'515'
p2973
aa(lp2974
g2
ag119
aS'523'
p2975
aa(lp2976
g2
ag2413
aS'402'
p2977
aa(lp2978
g2
ag2413
aS'201'
p2979
aa(lp2980
g2
ag2399
aS'305'
p2981
aa(lp2982
g2
ag2433
aS'232'
p2983
aa(lp2984
g2
ag2399
aS'304'
p2985
aa(lp2986
g2
ag2433
aS'431'
p2987
aa(lp2988
g2
ag2433
aS'634'
p2989
aa(lp2990
g2
ag119
aS'411'
p2991
aa(lp2992
g2
ag2433
aS'233'
p2993
aa(lp2994
g2
ag190
aS'073'
p2995
aa(lp2996
g2
ag111
aS'302'
p2997
aa(lp2998
g2
ag111
aS'202'
p2999
aa(lp3000
g2
ag111
aS'438'
p3001
aa(lp3002
g2
ag111
aS'253'
p3003
aa(lp3004
g2
ag119
aS'503'
p3005
aa(lp3006
g2
ag111
aS'258'
p3007
aa(lp3008
g2
ag111
aS'446'
p3009
aa(lp3010
g2
ag2413
aS'331'
p3011
aa(lp3012
g2
ag190
aS'T10'
p3013
aa(lp3014
g2
ag2413
aS'114'
p3015
aa(lp3016
g2
ag125
aS'301'
p3017
aa(lp3018
g2
ag2404
aS'123'
p3019
aa(lp3020
g2
ag2404
aS'125'
p3021
aa(lp3022
g2
ag154
aS'202N'
p3023
aa(lp3024
g2
ag111
aS'240'
p3025
aa(lp3026
g2
ag119
aS'232'
p3027
aa(lp3028
g2
ag2433
aS'404'
p3029
aa(lp3030
g2
ag2522
aS'512'
p3031
aa(lp3032
g2
ag2404
aS'326'
p3033
aa(lp3034
g2
ag122
aS'624'
p3035
aa(lp3036
g2
ag122
aS'622'
p3037
aa(lp3038
g2
ag2420
aS'123'
p3039
aa(lp3040
g2
ag2404
aS'325'
p3041
aa(lp3042
g2
ag2433
aS'421'
p3043
aa(lp3044
g2
ag122
aS'603'
p3045
aa(lp3046
g2
ag111
aS'150'
p3047
aa(lp3048
g2
ag157
aS'141'
p3049
aa(lp3050
g2
ag111
aS'354'
p3051
aa(lp3052
g2
ag2420
aS'341'
p3053
aa(lp3054
g2
ag2522
aS'615'
p3055
aa(lp3056
g2
ag119
aS'525'
p3057
aa(lp3058
g2
ag2404
aS'226'
p3059
aa(lp3060
g2
ag111
aS'236'
p3061
aa(lp3062
g2
ag111
aS'232'
p3063
aa(lp3064
g2
ag111
aS'234'
p3065
aa(lp3066
g2
ag111
aS'238'
p3067
aa(lp3068
g2
ag2420
aS'102'
p3069
aa(lp3070
g2
ag2399
aS'011'
p3071
aa(lp3072
g2
ag190
aS'072'
p3073
aa(lp3074
g2
ag2433
aS'235'
p3075
aa(lp3076
g2
ag111
aS'350'
p3077
aa(lp3078
g2
ag111
aS'348'
p3079
aa(lp3080
g2
ag125
aS'206'
p3081
aa(lp3082
g2
ag125
aS'205'
p3083
aa(lp3084
g2
ag2420
aS'331'
p3085
aa(lp3086
g2
ag2522
aS'522'
p3087
aa(lp3088
g2
ag122
aS'601'
p3089
aa(lp3090
g2
ag122
aS'612'
p3091
aa(lp3092
g2
ag122
aS'602'
p3093
aa(lp3094
g2
ag2433
aS'601'
p3095
aa(lp3096
g2
ag2433
aS'632'
p3097
aa(lp3098
g2
ag154
aS'201N'
p3099
aa(lp3100
g2
ag2404
aS'426'
p3101
aa(lp3102
g2
ag2404
aS'425'
p3103
aa(lp3104
g2
ag2404
aS'222'
p3105
aa(lp3106
g2
ag119
aS'135'
p3107
aa(lp3108
g2
ag111
aS'153'
p3109
aa(lp3110
g2
ag2404
aS'322'
p3111
aa(lp3112
g2
ag111
aS'364'
p3113
aa(lp3114
g2
ag111
aS'362'
p3115
aa(lp3116
g2
ag111
aS'326'
p3117
aa(lp3118
g2
ag2404
aS'413'
p3119
aa(lp3120
g2
ag157
aS'122'
p3121
aa(lp3122
g2
ag157
aS'A56'
p3123
aa(lp3124
g2
ag111
aS'148'
p3125
aa(lp3126
g2
ag2404
aS'318'
p3127
aa(lp3128
g2
ag154
aS'301N'
p3129
aa(lp3130
g2
ag116
aS'402'
p3131
aa(lp3132
g2
ag157
aS'123'
p3133
aa(lp3134
g2
ag2420
aS'333'
p3135
aa(lp3136
g2
ag111
aS'104'
p3137
aa(lp3138
g2
ag2413
aS'233'
p3139
aa(lp3140
g2
ag2433
aS'435'
p3141
aa(lp3142
g2
ag2404
aS'117'
p3143
aa(lp3144
g2
ag2404
aS'114'
p3145
aa(lp3146
g2
ag111
aS'360'
p3147
aa(lp3148
g2
ag111
aS'124'
p3149
aa(lp3150
g2
ag111
aS'126'
p3151
aa(lp3152
g2
ag111
aS'440'
p3153
aa(lp3154
g2
ag2522
aS'621'
p3155
aa(lp3156
g2
ag125
aS'207'
p3157
aa(lp3158
g2
ag2433
aS'231'
p3159
aa(lp3160
g2
ag2399
aS'032'
p3161
aa(lp3162
g2
ag111
aS'347'
p3163
aa(lp3164
g2
ag2413
aS'141'
p3165
aa(lp3166
g2
ag111
aS'208'
p3167
aa(lp3168
g2
ag2522
aS'617'
p3169
aa(lp3170
g2
ag154
aS'401S'
p3171
aa(lp3172
g2
ag125
aS'134'
p3173
aa(lp3174
g2
ag154
aS'302S'
p3175
aa(lp3176
g2
ag111
aS'268'
p3177
aa(lp3178
g2
ag122
aS'323'
p3179
aa(lp3180
g2
ag2413
aS'102'
p3181
aa(lp3182
g2
ag2522
aS'614'
p3183
aa(lp3184
g2
ag111
aS'247'
p3185
aa(lp3186
g2
ag157
aS'121'
p3187
aa(lp3188
g2
ag119
aS'413'
p3189
aa(lp3190
g2
ag2404
aS'420'
p3191
aa(lp3192
g2
ag122
aS'641'
p3193
aa(lp3194
g2
ag2404
aS'422'
p3195
aa(lp3196
g2
ag116
aS'313'
p3197
aa(lp3198
g2
ag116
aS'314'
p3199
aa(lp3200
g2
ag190
aS'308'
p3201
aa(lp3202
g2
ag2404
aS'319'
p3203
aa(lp3204
g2
ag116
aS'413'
p3205
aa(lp3206
g2
ag116
aS'315'
p3207
aa(lp3208
g2
ag122
aS'422'
p3209
aa(lp3210
g2
ag111
aS'114'
p3211
aa(lp3212
g2
ag2420
aS'323'
p3213
aa(lp3214
g2
ag2420
aS'124'
p3215
aa(lp3216
g2
ag116
aS'411'
p3217
aa(lp3218
g2
ag125
aS'233'
p3219
aa(lp3220
g2
ag111
aS'156'
p3221
aa(lp3222
g2
ag2522
aS'531'
p3223
aa(lp3224
g2
ag111
aS'254'
p3225
aa(lp3226
g2
ag2404
aS'121'
p3227
aa(lp3228
g2
ag157
aS'143'
p3229
aa(lp3230
g2
ag125
aS'236'
p3231
aa(lp3232
g2
ag111
aS'222'
p3233
aa(lp3234
g2
ag2404
aS'126'
p3235
aa(lp3236
g2
ag2404
aS'328'
p3237
aa(lp3238
g2
ag125
aS'211'
p3239
aa(lp3240
g2
ag111
aS'142'
p3241
aa(lp3242
g2
ag122
aS'144'
p3243
aa(lp3244
g2
ag111
aS'310'
p3245
aa(lp3246
g2
ag111
aS'316'
p3247
aa(lp3248
g2
ag111
aS'322'
p3249
aa(lp3250
g2
ag111
aS'308'
p3251
aa(lp3252
g2
ag111
aS'318'
p3253
aa(lp3254
g2
ag2433
aS'631'
p3255
aa(lp3256
g2
ag111
aS'370'
p3257
aa(lp3258
g2
ag111
aS'224'
p3259
aa(lp3260
g2
ag111
aS'226'
p3261
aa(lp3262
g2
ag122
aS'741'
p3263
aa(lp3264
g2
ag2420
aS'303'
p3265
aa(lp3266
g2
ag2420
aS'302'
p3267
aa(lp3268
g2
ag111
aS'101'
p3269
aa(lp3270
g2
ag125
aS'231'
p3271
aa(lp3272
g2
ag125
aS'235'
p3273
aa(lp3274
g2
ag2420
aS'301'
p3275
aa(lp3276
g2
ag125
aS'123'
p3277
aa(lp3278
g2
ag116
aS'433'
p3279
aa(lp3280
g2
ag111
aS'106'
p3281
aa(lp3282
g2
ag2420
aS'133'
p3283
aa(lp3284
g2
ag111
aS'108'
p3285
aa(lp3286
g2
ag111
aS'110'
p3287
aa(lp3288
g2
ag2433
aS'112'
p3289
aa(lp3290
g2
ag157
aS'A40'
p3291
aa(lp3292
g2
ag125
aS'133'
p3293
aa(lp3294
g2
ag2433
aS'236'
p3295
aa(lp3296
g2
ag190
aS'311'
p3297
aa(lp3298
g2
ag111
aS'314'
p3299
aa(lp3300
g2
ag2433
aS'311'
p3301
aa(lp3302
g2
ag2433
aS'611'
p3303
aa(lp3304
g2
ag2433
aS'436'
p3305
aa(lp3306
g2
ag111
aS'361'
p3307
aa(lp3308
g2
ag111
aS'242'
p3309
aa(lp3310
g2
ag125
aS'213'
p3311
aa(lp3312
g2
ag125
aS'214'
p3313
aa(lp3314
g2
ag125
aS'218'
p3315
aa(lp3316
g2
ag157
aS'A38'
p3317
aa(lp3318
g2
ag111
aS'307'
p3319
aa(lp3320
g2
ag119
aS'226'
p3321
aa(lp3322
g2
ag190
aS'060'
p3323
aa(lp3324
g2
ag116
aS'214'
p3325
aa(lp3326
g2
ag116
aS'421'
p3327
aa(lp3328
g2
ag111
aS'432'
p3329
aa(lp3330
g2
ag2433
aS'322'
p3331
aa(lp3332
g2
ag2433
aS'321'
p3333
aa(lp3334
g2
ag111
aS'417'
p3335
aa(lp3336
g2
ag111
aS'416'
p3337
aa(lp3338
g2
ag111
aS'418'
p3339
aa(lp3340
g2
ag111
aS'422'
p3341
aa(lp3342
g2
ag2433
aS'414'
p3343
aa(lp3344
g2
ag2413
aS'101'
p3345
aa(lp3346
g2
ag122
aS'134'
p3347
aa(lp3348
g2
ag116
aS'114'
p3349
aa(lp3350
g2
ag111
aS'324'
p3351
aa(lp3352
g2
ag111
aS'301'
p3353
aa(lp3354
g2
ag2433
aS'621'
p3355
aa(lp3356
g2
ag2420
aS'222'
p3357
aa(lp3358
g2
ag119
aS'501'
p3359
aa(lp3360
g2
ag111
aS'332'
p3361
aa(lp3362
g2
ag122
aS'728'
p3363
aa(lp3364
g2
ag2413
aS'413'
p3365
aa(lp3366
g2
ag190
aS'062'
p3367
aa(lp3368
g2
ag2413
aS'117'
p3369
aa(lp3370
g2
ag125
aS'202'
p3371
aa(lp3372
g2
ag111
aS'403'
p3373
aa(lp3374
g2
ag122
aS'719'
p3375
aa(lp3376
g2
ag125
aS'201'
p3377
aa(lp3378
g2
ag190
aS'061'
p3379
aa(lp3380
g2
ag2420
aS'215'
p3381
aa(lp3382
g2
ag2413
aS'322'
p3383
aa(lp3384
g2
ag2420
aS'112'
p3385
aa(lp3386
g2
ag111
aS'374'
p3387
aa(lp3388
g2
ag2413
aS'311'
p3389
aa(lp3390
g2
ag2413
aS'213'
p3391
aa(lp3392
g2
ag122
aS'141'
p3393
aa(lp3394
g2
ag111
aS'413'
p3395
aa(lp3396
g2
ag111
aS'415'
p3397
aa(lp3398
g2
ag2399
aS'031'
p3399
aa(lp3400
g2
ag111
aS'406'
p3401
aa(lp3402
g2
ag111
aS'410'
p3403
aa(lp3404
g2
ag111
aS'404'
p3405
aa(lp3406
g2
ag154
aS'213'
p3407
aa(lp3408
g2
ag111
aS'372'
p3409
aa(lp3410
g2
ag2413
aS'203'
p3411
aa(lp3412
g2
ag2413
aS'202'
p3413
aa(lp3414
g2
ag2420
aS'306'
p3415
aa(lp3416
g2
ag2433
aS'612'
p3417
aa(lp3418
g2
ag2404
aS'212'
p3419
aa(lp3420
g2
ag2399
aS'010'
p3421
aa(lp3422
g2
ag2420
aS'308'
p3423
aa(lp3424
g2
ag119
aS'512'
p3425
aa(lp3426
g2
ag122
aS'715'
p3427
aa(lp3428
g2
ag2420
aS'312'
p3429
aa(lp3430
g2
ag2413
aS'224'
p3431
aa(lp3432
g2
ag2420
aS'122'
p3433
aa(lp3434
g2
ag122
aS'711'
p3435
aa(lp3436
g2
ag122
aS'713'
p3437
aa(lp3438
g2
ag111
aS'444'
p3439
aa(lp3440
g2
ag157
aS'134'
p3441
aa(lp3442
g2
ag111
aS'149'
p3443
aa(lp3444
g2
ag2433
aS'122'
p3445
aa(lp3446
g2
ag111
aS'366'
p3447
aa(lp3448
g2
ag190
aS'T06'
p3449
aa(lp3450
g2
ag111
aS'368'
p3451
aa(lp3452
g2
ag154
aS'313'
p3453
aa(lp3454
g2
ag111
aS'353'
p3455
aa(lp3456
g2
ag111
aS'107'
p3457
aa(lp3458
g2
ag111
aS'430'
p3459
aa(lp3460
g2
ag111
aS'437'
p3461
aa(lp3462
g2
ag122
aS'712'
p3463
aa(lp3464
g2
ag122
aS'705'
p3465
aa(lp3466
g2
ag122
aS'701'
p3467
aa(lp3468
g2
ag111
aS'435'
p3469
aa(lp3470
g2
ag111
aS'439'
p3471
aa(lp3472
g2
ag122
aS'333'
p3473
aa(lp3474
g2
ag111
aS'349'
p3475
aa(lp3476
g2
ag111
aS'407'
p3477
aa(lp3478
g2
ag111
aS'207'
p3479
aa(lp3480
S'MATHEY'
p3481
ag111
aS'447'
p3482
aa(lp3483
g2
ag111
aS'228'
p3484
aa(lp3485
g2
ag111
aS'147'
p3486
aa(lp3487
g2
ag111
aS'405'
p3488
aa(lp3489
g2
ag122
aS'716'
p3490
aa(lp3491
g2
ag122
aS'717'
p3492
aa(lp3493
g2
ag2404
aS'127'
p3494
aa(lp3495
g2
ag2399
aS'021'
p3496
aa(lp3497
g2
ag116
aS'223'
p3498
aa(lp3499
g2
ag2413
aS'225'
p3500
aa(lp3501
g2
ag2413
aS'226'
p3502
aa(lp3503
g2
ag2413
aS'215'
p3504
aa(lp3505
g2
ag122
aS'702'
p3506
aa(lp3507
g2
ag119
aS'236'
p3508
aa(lp3509
g2
ag122
aS'703'
p3510
aa(lp3511
g2
ag2404
aS'427'
p3512
aa(lp3513
g2
ag190
aS'063'
p3514
aa(lp3515
g2
ag2522
aS'616'
p3516
aa(lp3517
g2
ag2433
aS'211'
p3518
aa(lp3519
g2
ag154
aS'303'
p3520
aa(lp3521
g2
ag2413
aS'119'
p3522
aa(lp3523
g2
ag116
aS'121'
p3524
aa(lp3525
g2
ag157
aS'097'
p3526
aa(lp3527
g2
ag122
aS'233'
p3528
aa(lp3529
g2
ag116
aS'423'
p3530
aa(lp3531
g2
ag2404
aS'228'
p3532
aa(lp3533
g2
ag122
aS'232'
p3534
aa(lp3535
g2
ag122
aS'432'
p3536
aa(lp3537
g2
ag119
aS'321'
p3538
aa(lp3539
g2
ag119
aS'324'
p3540
aa(lp3541
g2
ag122
aS'725'
p3542
aa(lp3543
g2
ag190
aS'312'
p3544
aa(lp3545
g2
ag122
aS'724'
p3546
aa(lp3547
g2
ag122
aS'626'
p3548
aa(lp3549
g2
ag125
aS'232'
p3550
aa(lp3551
g2
ag125
aS'222A'
p3552
aa(lp3553
g2
ag125
aS'223'
p3554
aa(lp3555
g2
ag190
aS'T03'
p3556
aa(lp3557
g2
ag2413
aS'223A'
p3558
aa(lp3559
g2
ag125
aS'230'
p3560
aa(lp3561
g2
ag125
aS'131'
p3562
aa(lp3563
g2
ag2433
aS'312'
p3564
aa(lp3565
g2
ag2413
aS'334'
p3566
aa(lp3567
g2
ag190
aS'088'
p3568
aa(lp3569
g2
ag2420
aS'329'
p3570
aa(lp3571
g2
ag2420
aS'114'
p3572
aa(lp3573
g2
ag2404
aS'419'
p3574
aa(lp3575
g2
ag122
aS'439'
p3576
aa(lp3577
g2
ag2522
aS'534'
p3578
aa(lp3579
g2
ag2413
aS'232'
p3580
aa(lp3581
g2
ag116
aS'112'
p3582
aa(lp3583
g2
ag122
aS'743'
p3584
aa(lp3585
g2
ag2413
aS'321'
p3586
aa(lp3587
g2
ag2399
aS'407'
p3588
aa(lp3589
g2
ag2399
aS'020'
p3590
aa(lp3591
g2
ag2433
aS'121'
p3592
aa(lp3593
g2
ag2433
aS'522'
p3594
aa(lp3595
g2
ag2413
aS'124'
p3596
aa(lp3597
g2
ag2413
aS'121'
p3598
aa(lp3599
g2
ag116
aS'311'
p3600
aa(lp3601
g2
ag122
aS'143'
p3602
aa(lp3603
g2
ag125
aS'234'
p3604
aa(lp3605
g2
ag125
aS'323'
p3606
aa(lp3607
g2
ag2413
aS'301'
p3608
aa(lp3609
g2
ag2420
aS'327'
p3610
aa(lp3611
g2
ag122
aS'441A'
p3612
aa(lp3613
g2
ag2404
aS'227'
p3614
aa(lp3615
g2
ag125
aS'227'
p3616
aa(lp3617
g2
ag125
aS'332'
p3618
aa(lp3619
g2
ag2413
aS'131'
p3620
aa(lp3621
g2
ag2420
aS'221'
p3622
aa(lp3623
g2
ag125
aS'331'
p3624
aa(lp3625
g2
ag125
aS'228'
p3626
aa(lp3627
g2
ag2522
aS'612'
p3628
aa(lp3629
g2
ag122
aS'440'
p3630
aa(lp3631
g2
ag2433
aS'622'
p3632
aa(lp3633
g2
ag122
aS'314'
p3634
aa(lp3635
g2
ag2433
aS'221'
p3636
aa(lp3637
g2
ag116
aS'102'
p3638
aa(lp3639
g2
ag2420
aS'322'
p3640
aa(lp3641
g2
ag2433
aS'623'
p3642
aa(lp3643
g2
ag2433
aS'222'
p3644
aa(lp3645
g2
ag122
aS'442'
p3646
aa(lp3647
g2
ag2433
aS'613'
p3648
aa(lp3649
g2
ag157
aS'101'
p3650
aa(lp3651
g2
ag2413
aS'222'
p3652
aa(lp3653
g2
ag122
aS'230'
p3654
aa(lp3655
g2
ag2413
aS'122'
p3656
aa(lp3657
g2
ag2433
aS'422'
p3658
aa(lp3659
g2
ag2433
aS'212'
p3660
aa(lp3661
g2
ag119
aS'535'
p3662
aa(lp3663
g2
ag2433
aS'412'
p3664
aa(lp3665
g2
ag125
aS'113'
p3666
aa(lp3667
g2
ag116
aS'431'
p3668
aa(lp3669
g2
ag2404
aS'418'
p3670
aa(lp3671
g2
ag2420
aS'121'
p3672
aa(lp3673
g2
ag2433
aS'111'
p3674
aa(lp3675
g2
ag122
aS'131'
p3676
aa(lp3677
g2
ag2433
aS'402'
p3678
aa(lp3679
g2
ag119
aS'502'
p3680
aa(lp3681
g2
ag2413
aS'118'
p3682
aa(lp3683
g2
ag122
aS'121'
p3684
aa(lp3685
g2
ag157
aS'103'
p3686
aa(lp3687
g2
ag157
aS'145'
p3688
aa(lp3689
g2
ag2413
aS'133'
p3690
aa(lp3691
g2
ag2404
aS'122'
p3692
aa(lp3693
g2
ag2413
aS'104'
p3694
aa(lp3695
g2
ag2413
aS'125'
p3696
aa(lp3697
g2
ag125
aS'114'
p3698
aa(lp3699
g2
ag122
aS'443'
p3700
aa(lp3701
g2
ag2404
aS'128'
p3702
aa(lp3703
g2
ag119
aS'213'
p3704
aa(lp3705
g2
ag2420
aS'311'
p3706
aa(lp3707
g2
ag122
aS'614'
p3708
aa(lp3709
g2
ag122
aS'734'
p3710
aa(lp3711
g2
ag122
aS'718'
p3712
aa(lp3713
g2
ag2420
aS'304'
p3714
aa(lp3715
g2
ag2522
aS'631'
p3716
aa(lp3717
g2
ag125
aS'112'
p3718
aa(lp3719
g2
ag125
aS'111'
p3720
aa(lp3721
g2
ag157
aS'091'
p3722
aa(lp3723
g2
ag2404
aS'221'
p3724
aa(lp3725
g2
ag157
aS'A54'
p3726
aa(lp3727
g2
ag157
aS'A48'
p3728
aa(lp3729
g2
ag2420
aS'111'
p3730
aa(lp3731
g2
ag125
aS'124'
p3732
aa(lp3733
g2
ag2404
aS'320'
p3734
aa(lp3735
g2
ag2404
aS'327'
p3736
aa(lp3737
g2
ag122
aS'435'
p3738
aa(lp3739
g2
ag2420
aS'131'
p3740
aa(lp3741
g2
ag125
aS'333'
p3742
aa(lp3743
g2
ag116
aS'432'
p3744
aa(lp3745
g2
ag125
aS'122'
p3746
aa(lp3747
g2
ag157
aS'105'
p3748
aa(lp3749
g2
ag2413
aS'212'
p3750
aa(lp3751
g2
ag116
aS'321'
p3752
aa(lp3753
g2
ag2404
aS'112'
p3754
aa(lp3755
g2
ag2404
aS'211'
p3756
aa(lp3757
g2
ag2404
aS'412'
p3758
aa(lp3759
g2
ag2404
aS'428'
p3760
aa(lp3761
g2
ag2404
aS'421'
p3762
aa(lp3763
g2
ag122
aS'428'
p3764
aa(lp3765
g2
ag122
aS'242'
p3766
aa(lp3767
g2
ag2420
aS'326'
p3768
aa(lp3769
g2
ag116
aS'113'
p3770
aa(lp3771
g2
ag125
aS'302'
p3772
aa(lp3773
g2
ag2404
aS'311'
p3774
aa(lp3775
g2
ag2522
aS'625'
p3776
aa(lp3777
g2
ag157
aS'093'
p3778
aa(lp3779
g2
ag2522
aS'632'
p3780
aa(lp3781
g2
ag2522
aS'521'
p3782
aa(lp3783
g2
ag2522
aS'511'
p3784
aa.