(lp0
(lp1
S'UPPERCLASS'
p2
aS'SPELMAN'
p3
aS'024'
p4
aa(lp5
g2
ag3
aS'023'
p6
aa(lp7
g2
ag3
aS'084'
p8
aa(lp9
g2
ag3
aS'054'
p10
aa(lp11
g2
ag3
aS'076'
p12
aa(lp13
g2
ag3
aS'052'
p14
aa(lp15
g2
ag3
aS'021'
p16
aa(lp17
g2
ag3
aS'022'
p18
aa(lp19
g2
ag3
aS'056'
p20
aa(lp21
g2
ag3
aS'055'
p22
aa(lp23
g2
ag3
aS'011'
p24
aa(lp25
g2
ag3
aS'045'
p26
aa(lp27
g2
ag3
aS'046'
p28
aa(lp29
g2
ag3
aS'012'
p30
aa(lp31
g2
aS'SCULLY'
p32
aS'265'
p33
aa(lp34
g2
ag3
aS'017'
p35
aa(lp36
g2
aS'DOD'
p37
aS'115'
p38
aa(lp39
g2
ag32
aS'267'
p40
aa(lp41
g2
ag3
aS'068'
p42
aa(lp43
g2
aS'WILF'
p44
aS'E408'
p45
aa(lp46
g2
ag3
aS'015'
p47
aa(lp48
g2
ag44
aS'E406'
p49
aa(lp50
g2
aS'PYNE'
p51
aS'113'
p52
aa(lp53
g2
ag3
aS'082'
p54
aa(lp55
g2
aS'1903'
p56
aS'214'
p57
aa(lp58
g2
ag3
aS'026'
p59
aa(lp60
g2
ag37
aS'112'
p61
aa(lp62
g2
ag32
aS'170'
p63
aa(lp64
g2
ag3
aS'034'
p65
aa(lp66
g2
ag3
aS'035'
p67
aa(lp68
g2
ag3
aS'043'
p69
aa(lp70
g2
aS'LITTLE'
p71
aS'A34'
p72
aa(lp73
g2
ag44
aS'E401'
p74
aa(lp75
g2
ag51
aS'112'
p76
aa(lp77
g2
ag3
aS'063'
p78
aa(lp79
g2
ag3
aS'078'
p80
aa(lp81
g2
ag3
aS'065'
p82
aa(lp83
g2
ag3
aS'066'
p84
aa(lp85
g2
aS'PATTON'
p86
aS'086'
p87
aa(lp88
g2
ag32
aS'273'
p89
aa(lp90
g2
ag3
aS'073'
p91
aa(lp92
g2
ag3
aS'064'
p93
aa(lp94
g2
ag71
aS'A24'
p95
aa(lp96
g2
ag71
aS'A36'
p97
aa(lp98
g2
ag3
aS'041'
p99
aa(lp100
g2
ag37
aS'114'
p101
aa(lp102
g2
ag3
aS'053'
p103
aa(lp104
g2
ag3
aS'048'
p105
aa(lp106
g2
ag37
aS'111'
p107
aa(lp108
g2
ag3
aS'036'
p109
aa(lp110
g2
ag3
aS'077'
p111
aa(lp112
g2
ag32
aS'174'
p113
aa(lp114
g2
ag3
aS'037'
p115
aa(lp116
g2
ag3
aS'038'
p117
aa(lp118
g2
ag32
aS'260'
p119
aa(lp120
g2
ag3
aS'075'
p121
aa(lp122
g2
ag32
aS'262'
p123
aa(lp124
g2
ag86
aS'071'
p125
aa(lp126
g2
ag37
aS'101'
p127
aa(lp128
g2
ag3
aS'032'
p129
aa(lp130
g2
aS'LOCKHART'
p131
aS'225'
p132
aa(lp133
g2
ag131
aS'224'
p134
aa(lp135
g2
ag3
aS'014'
p136
aa(lp137
g2
ag3
aS'074'
p138
aa(lp139
g2
ag37
aS'104'
p140
aa(lp141
g2
ag3
aS'061'
p142
aa(lp143
g2
ag3
aS'025'
p144
aa(lp145
g2
ag32
aS'168'
p146
aa(lp147
g2
ag3
aS'086'
p148
aa(lp149
g2
ag3
aS'085'
p150
aa(lp151
g2
aS'HENRY'
p152
aS'103'
p153
aa(lp154
g2
ag3
aS'016'
p155
aa(lp156
g2
ag3
aS'013'
p157
aa(lp158
g2
ag131
aS'303'
p159
aa(lp160
g2
ag3
aS'081'
p161
aa(lp162
g2
ag3
aS'047'
p163
aa(lp164
g2
ag3
aS'051'
p165
aa(lp166
g2
ag3
aS'083'
p167
aa(lp168
g2
ag32
aS'172'
p169
aa(lp170
g2
ag3
aS'067'
p171
aa(lp172
g2
ag152
aS'102'
p173
aa(lp174
g2
ag152
aS'101'
p175
aa(lp176
g2
ag37
aS'105'
p177
aa(lp178
g2
ag3
aS'018'
p179
aa(lp180
g2
ag131
aS'302'
p181
aa(lp182
g2
ag51
aS'121'
p183
aa(lp184
g2
ag3
aS'071'
p185
aa(lp186
g2
ag51
aS'115'
p187
aa(lp188
g2
ag51
aS'116'
p189
aa(lp190
g2
ag44
aS'E403'
p191
aa(lp192
g2
ag131
aS'235'
p193
aa(lp194
g2
ag131
aS'231'
p195
aa(lp196
g2
ag32
aS'271'
p197
aa(lp198
g2
ag37
aS'116'
p199
aa(lp200
g2
ag37
aS'106'
p201
aa(lp202
g2
ag37
aS'102'
p203
aa(lp204
g2
ag37
aS'107'
p205
aa(lp206
g2
ag44
aS'E405'
p207
aa(lp208
g2
ag32
aS'367'
p209
aa(lp210
g2
ag131
aS'304'
p211
aa(lp212
g2
ag86
aS'085'
p213
aa(lp214
g2
ag131
aS'222'
p215
aa(lp216
g2
ag131
aS'221'
p217
aa(lp218
g2
ag131
aS'323'
p219
aa(lp220
g2
ag131
aS'322'
p221
aa(lp222
g2
ag131
aS'301'
p223
aa(lp224
g2
ag86
aS'082'
p225
aa(lp226
g2
ag51
aS'132'
p227
aa(lp228
g2
ag51
aS'114'
p229
aa(lp230
g2
ag131
aS'233'
p231
aa(lp232
g2
ag71
aS'A14'
p233
aa(lp234
g2
ag71
aS'A16'
p235
aa(lp236
g2
ag37
aS'117'
p237
aa(lp238
g2
ag131
aS'324'
p239
aa(lp240
g2
ag37
aS'113'
p241
aa(lp242
g2
ag51
aS'124'
p243
aa(lp244
S'WHITMAN'
p245
aS'HARGADON'
p246
aS'G304B'
p247
aa(lp248
S'BUTLER'
p249
aS'BLOOMBERG'
p250
aS'112'
p251
aa(lp252
S'MATHEY'
p253
ag71
aS'047'
p254
aa(lp255
S'MATHEY'
p256
ag71
aS'062'
p257
aa(lp258
S'WHITMAN'
p259
aS'WENDELL B'
p260
aS'B407'
p261
aa(lp262
S'WHITMAN'
p263
aS'WENDELL C'
p264
aS'C208'
p265
aa(lp266
S'MATHEY'
p267
ag71
aS'055'
p268
aa(lp269
S'MATHEY'
p270
ag71
aS'057'
p271
aa(lp272
S'BUTLER'
p273
aS'1976'
p274
aS'D204'
p275
aa(lp276
S'WHITMAN'
p277
aS'BAKER E'
p278
aS'E113'
p279
aa(lp280
S'MATHEY'
p281
ag71
aS'087'
p282
aa(lp283
S'WHITMAN'
p284
ag246
aS'G203B'
p285
aa(lp286
S'BUTLER'
p287
ag44
aS'E103'
p288
aa(lp289
S'MATHEY'
p290
ag71
aS'085'
p291
aa(lp292
S'WHITMAN'
p293
ag278
aS'E206'
p294
aa(lp295
S'WHITMAN'
p296
ag246
aS'G309'
p297
aa(lp298
S'WHITMAN'
p299
aS'BAKER S'
p300
aS'S204'
p301
aa(lp302
S'MATHEY'
p303
aS'EDWARDS'
p304
aS'108'
p305
aa(lp306
S'BUTLER'
p307
ag250
aS'425'
p308
aa(lp309
S'MATHEY'
p310
ag71
aS'395'
p311
aa(lp312
S'WHITMAN'
p313
ag300
aS'S305'
p314
aa(lp315
S'WHITMAN'
p316
ag278
aS'E105'
p317
aa(lp318
S'BUTLER'
p319
aS'BOGLE'
p320
aS'C205'
p321
aa(lp322
S'BUTLER'
p323
ag320
aS'C203'
p324
aa(lp325
S'MATHEY'
p326
ag71
aS'385'
p327
aa(lp328
S'MATHEY'
p329
ag304
aS'113'
p330
aa(lp331
S'MATHEY'
p332
ag304
aS'405'
p333
aa(lp334
S'WHITMAN'
p335
ag300
aS'S104'
p336
aa(lp337
S'BUTLER'
p338
ag274
aS'D114'
p339
aa(lp340
S'MATHEY'
p341
ag71
aS'318'
p342
aa(lp343
S'WHITMAN'
p344
ag246
aS'G311'
p345
aa(lp346
S'BUTLER'
p347
ag250
aS'270'
p348
aa(lp349
S'BUTLER'
p350
ag250
aS'474'
p351
aa(lp352
S'BUTLER'
p353
ag320
aS'C105'
p354
aa(lp355
S'BUTLER'
p356
ag320
aS'C103'
p357
aa(lp358
S'WHITMAN'
p359
ag246
aS'G401'
p360
aa(lp361
S'WHITMAN'
p362
ag246
aS'G403'
p363
aa(lp364
S'WHITMAN'
p365
ag246
aS'G404'
p366
aa(lp367
S'BUTLER'
p368
ag250
aS'277'
p369
aa(lp370
S'MATHEY'
p371
aS'BLAIR'
p372
aS'B71'
p373
aa(lp374
S'MATHEY'
p375
ag71
aS'303'
p376
aa(lp377
S'BUTLER'
p378
ag250
aS'124'
p379
aa(lp380
S'BUTLER'
p381
ag250
aS'279'
p382
aa(lp383
S'WHITMAN'
p384
ag278
aS'E317'
p385
aa(lp386
S'BUTLER'
p387
ag250
aS'430'
p388
aa(lp389
S'MATHEY'
p390
ag71
aS'389'
p391
aa(lp392
S'MATHEY'
p393
aS'JOLINE'
p394
aS'225'
p395
aa(lp396
S'WHITMAN'
p397
ag264
aS'C210'
p398
aa(lp399
S'WHITMAN'
p400
ag264
aS'C202'
p401
aa(lp402
S'WHITMAN'
p403
ag264
aS'C206'
p404
aa(lp405
S'BUTLER'
p406
aS'1967'
p407
aS'B205'
p408
aa(lp409
S'BUTLER'
p410
ag407
aS'B209'
p411
aa(lp412
S'WHITMAN'
p413
ag264
aS'C212'
p414
aa(lp415
S'WHITMAN'
p416
ag264
aS'C214'
p417
aa(lp418
S'BUTLER'
p419
ag250
aS'307'
p420
aa(lp421
S'MATHEY'
p422
ag71
aS'083'
p423
aa(lp424
S'BUTLER'
p425
ag250
aS'305'
p426
aa(lp427
S'WHITMAN'
p428
aS'FISHER'
p429
aS'A224'
p430
aa(lp431
S'BUTLER'
p432
ag250
aS'192'
p433
aa(lp434
S'WHITMAN'
p435
ag260
aS'B408'
p436
aa(lp437
S'WHITMAN'
p438
ag264
aS'C216'
p439
aa(lp440
S'WHITMAN'
p441
ag300
aS'S205'
p442
aa(lp443
S'BUTLER'
p444
ag407
aS'B309'
p445
aa(lp446
S'WHITMAN'
p447
ag429
aS'A316'
p448
aa(lp449
S'BUTLER'
p450
ag407
aS'B305'
p451
aa(lp452
S'BUTLER'
p453
ag250
aS'451'
p454
aa(lp455
S'MATHEY'
p456
aS'HAMILTON'
p457
aS'113'
p458
aa(lp459
S'WHITMAN'
p460
aS'LAURITZEN'
p461
aS'D108'
p462
aa(lp463
S'BUTLER'
p464
ag250
aS'463'
p465
aa(lp466
S'BUTLER'
p467
ag250
aS'405'
p468
aa(lp469
S'BUTLER'
p470
ag250
aS'334'
p471
aa(lp472
S'WHITMAN'
p473
ag429
aS'A323'
p474
aa(lp475
S'BUTLER'
p476
ag250
aS'379'
p477
aa(lp478
S'WHITMAN'
p479
ag300
aS'S203'
p480
aa(lp481
S'WHITMAN'
p482
ag429
aS'A214'
p483
aa(lp484
S'BUTLER'
p485
ag250
aS'409'
p486
aa(lp487
S'BUTLER'
p488
ag250
aS'401'
p489
aa(lp490
g2
ag429
aS'A318'
p491
aa(lp492
S'BUTLER'
p493
ag250
aS'434'
p494
aa(lp495
S'BUTLER'
p496
ag44
aS'E104'
p497
aa(lp498
S'BUTLER'
p499
aS'YOSELOFF'
p500
aS'A207'
p501
aa(lp502
S'BUTLER'
p503
ag250
aS'479'
p504
aa(lp505
S'MATHEY'
p506
ag457
aS'121'
p507
aa(lp508
S'BUTLER'
p509
ag304
aS'415'
p510
aa(lp511
S'MATHEY'
p512
ag304
aS'114'
p513
aa(lp514
S'BUTLER'
p515
ag250
aS'269'
p516
aa(lp517
S'WHITMAN'
p518
ag300
aS'S303'
p519
aa(lp520
S'WHITMAN'
p521
aS'1981'
p522
aS'F201'
p523
aa(lp524
S'BUTLER'
p525
ag250
aS'449'
p526
aa(lp527
S'BUTLER'
p528
ag44
aS'E308'
p529
aa(lp530
S'BUTLER'
p531
ag250
aS'193'
p532
aa(lp533
S'WHITMAN'
p534
ag461
aS'D304'
p535
aa(lp536
S'BUTLER'
p537
ag250
aS'311'
p538
aa(lp539
S'BUTLER'
p540
ag44
aS'E208'
p541
aa(lp542
S'BUTLER'
p543
ag44
aS'E206'
p544
aa(lp545
S'BUTLER'
p546
ag44
aS'E105'
p547
aa(lp548
S'BUTLER'
p549
ag44
aS'E107'
p550
aa(lp551
g2
ag522
aS'F303'
p552
aa(lp553
S'WHITMAN'
p554
ag522
aS'F301'
p555
aa(lp556
S'WHITMAN'
p557
ag278
aS'E213'
p558
aa(lp559
S'BUTLER'
p560
ag44
aS'E301'
p561
aa(lp562
S'BUTLER'
p563
ag44
aS'E303'
p564
aa(lp565
S'BUTLER'
p566
ag250
aS'369'
p567
aa(lp568
S'BUTLER'
p569
ag250
aS'429'
p570
aa(lp571
S'WHITMAN'
p572
ag429
aS'A223'
p573
aa(lp574
S'BUTLER'
p575
ag250
aS'447'
p576
aa(lp577
S'WHITMAN'
p578
ag260
aS'B212'
p579
aa(lp580
S'WHITMAN'
p581
ag522
aS'F104'
p582
aa(lp583
S'BUTLER'
p584
ag250
aS'349'
p585
aa(lp586
S'BUTLER'
p587
ag250
aS'309'
p588
aa(lp589
S'WHITMAN'
p590
ag278
aS'E217'
p591
aa(lp592
S'BUTLER'
p593
ag250
aS'314'
p594
aa(lp595
S'BUTLER'
p596
ag250
aS'271'
p597
aa(lp598
S'MATHEY'
p599
ag394
aS'235'
p600
aa(lp601
g2
ag51
aS'125'
p602
aa(lp603
S'BUTLER'
p604
ag250
aS'348'
p605
aa(lp606
S'MATHEY'
p607
ag304
aS'105'
p608
aa(lp609
g2
ag522
aS'F225'
p610
aa(lp611
S'MATHEY'
p612
ag394
aS'212'
p613
aa(lp614
S'WHITMAN'
p615
aS'MURLEY-PIVIROTTO'
p616
aS'T403'
p617
aa(lp618
S'WHITMAN'
p619
ag461
aS'D314'
p620
aa(lp621
S'BUTLER'
p622
ag250
aS'310'
p623
aa(lp624
S'WHITMAN'
p625
ag429
aS'A201'
p626
aa(lp627
S'BUTLER'
p628
ag250
aS'456'
p629
aa(lp630
S'BUTLER'
p631
ag250
aS'411'
p632
aa(lp633
S'BUTLER'
p634
ag250
aS'357'
p635
aa(lp636
S'MATHEY'
p637
ag71
aS'077'
p638
aa(lp639
S'MATHEY'
p640
ag394
aS'412'
p641
aa(lp642
S'WHITMAN'
p643
ag246
aS'G301'
p644
aa(lp645
S'WHITMAN'
p646
ag461
aS'D306'
p647
aa(lp648
S'BUTLER'
p649
ag250
aS'121'
p650
aa(lp651
S'BUTLER'
p652
ag250
aS'301'
p653
aa(lp654
S'WHITMAN'
p655
ag522
aS'F102'
p656
aa(lp657
S'BUTLER'
p658
ag250
aS'177'
p659
aa(lp660
S'BUTLER'
p661
ag250
aS'274'
p662
aa(lp663
S'WHITMAN'
p664
ag522
aS'F101'
p665
aa(lp666
S'MATHEY'
p667
ag394
aS'422'
p668
aa(lp669
S'WHITMAN'
p670
ag246
aS'G405'
p671
aa(lp672
S'BUTLER'
p673
ag250
aS'407'
p674
aa(lp675
S'WHITMAN'
p676
ag429
aS'A101'
p677
aa(lp678
S'WHITMAN'
p679
ag522
aS'F027'
p680
aa(lp681
S'MATHEY'
p682
ag71
aS'302'
p683
aa(lp684
S'MATHEY'
p685
ag71
aS'048'
p686
aa(lp687
S'WHITMAN'
p688
ag264
aS'C215'
p689
aa(lp690
g2
ag44
aS'E106'
p691
aa(lp692
S'MATHEY'
p693
ag304
aS'115'
p694
aa(lp695
S'WHITMAN'
p696
ag246
aS'G205'
p697
aa(lp698
S'MATHEY'
p699
ag394
aS'332'
p700
aa(lp701
S'WHITMAN'
p702
ag246
aS'G407A'
p703
aa(lp704
S'MATHEY'
p705
ag304
aS'111'
p706
aa(lp707
S'BUTLER'
p708
ag250
aS'346'
p709
aa(lp710
g2
ag51
aS'133'
p711
aa(lp712
S'BUTLER'
p713
ag250
aS'226'
p714
aa(lp715
S'WHITMAN'
p716
ag522
aS'F025'
p717
aa(lp718
S'MATHEY'
p719
ag304
aS'107'
p720
aa(lp721
S'BUTLER'
p722
ag250
aS'457'
p723
aa(lp724
S'MATHEY'
p725
ag394
aS'333'
p726
aa(lp727
S'BUTLER'
p728
ag250
aS'461'
p729
aa(lp730
S'MATHEY'
p731
ag394
aS'433'
p732
aa(lp733
S'BUTLER'
p734
aS'1915'
p735
aS'411'
p736
aa(lp737
S'MATHEY'
p738
ag372
aS'045'
p739
aa(lp740
S'WHITMAN'
p741
ag429
aS'A225'
p742
aa(lp743
g2
ag246
aS'G203A'
p744
aa(lp745
S'BUTLER'
p746
ag250
aS'281'
p747
aa(lp748
S'BUTLER'
p749
ag44
aS'E203'
p750
aa(lp751
S'BUTLER'
p752
ag44
aS'E201'
p753
aa(lp754
S'WHITMAN'
p755
ag278
aS'E305'
p756
aa(lp757
S'BUTLER'
p758
ag250
aS'278'
p759
aa(lp760
S'MATHEY'
p761
ag71
aS'393'
p762
aa(lp763
S'MATHEY'
p764
ag372
aS'114'
p765
aa(lp766
S'WHITMAN'
p767
ag246
aS'G207'
p768
aa(lp769
S'MATHEY'
p770
ag394
aS'213'
p771
aa(lp772
S'BUTLER'
p773
ag250
aS'302'
p774
aa(lp775
S'MATHEY'
p776
ag372
aS'B52'
p777
aa(lp778
S'MATHEY'
p779
ag372
aS'A02'
p780
aa(lp781
S'BUTLER'
p782
ag274
aS'D216'
p783
aa(lp784
S'MATHEY'
p785
ag304
aS'117'
p786
aa(lp787
S'BUTLER'
p788
ag250
aS'469'
p789
aa(lp790
S'WHITMAN'
p791
ag522
aS'F302'
p792
aa(lp793
g2
ag260
aS'B310'
p794
aa(lp795
S'WHITMAN'
p796
ag260
aS'B312'
p797
aa(lp798
g2
ag260
aS'B210'
p799
aa(lp800
S'WHITMAN'
p801
ag260
aS'B316'
p802
aa(lp803
S'MATHEY'
p804
ag457
aS'221'
p805
aa(lp806
S'BUTLER'
p807
ag250
aS'342'
p808
aa(lp809
S'MATHEY'
p810
ag394
aS'234'
p811
aa(lp812
S'BUTLER'
p813
ag250
aS'276'
p814
aa(lp815
S'BUTLER'
p816
ag250
aS'381'
p817
aa(lp818
S'BUTLER'
p819
ag250
aS'304'
p820
aa(lp821
S'WHITMAN'
p822
ag616
aS'T402'
p823
aa(lp824
S'BUTLER'
p825
ag250
aS'465'
p826
aa(lp827
S'WHITMAN'
p828
ag278
aS'E307'
p829
aa(lp830
S'WHITMAN'
p831
ag278
aS'E205'
p832
aa(lp833
S'WHITMAN'
p834
ag278
aS'E207'
p835
aa(lp836
S'BUTLER'
p837
ag500
aS'A205'
p838
aa(lp839
S'BUTLER'
p840
ag44
aS'E306'
p841
aa(lp842
S'MATHEY'
p843
aS'CAMPBELL'
p844
aS'052'
p845
aa(lp846
S'WHITMAN'
p847
ag278
aS'E223'
p848
aa(lp849
S'BUTLER'
p850
ag250
aS'459'
p851
aa(lp852
S'WHITMAN'
p853
ag278
aS'E221'
p854
aa(lp855
S'WHITMAN'
p856
ag522
aS'F123'
p857
aa(lp858
S'BUTLER'
p859
ag274
aS'D210'
p860
aa(lp861
S'WHITMAN'
p862
ag260
aS'B409'
p863
aa(lp864
S'WHITMAN'
p865
ag246
aS'G304A'
p866
aa(lp867
S'WHITMAN'
p868
ag246
aS'G306'
p869
aa(lp870
S'BUTLER'
p871
ag44
aS'E108'
p872
aa(lp873
S'MATHEY'
p874
ag372
aS'B53'
p875
aa(lp876
g2
ag304
aS'504'
p877
aa(lp878
S'MATHEY'
p879
ag372
aS'B83'
p880
aa(lp881
S'MATHEY'
p882
ag304
aS'106'
p883
aa(lp884
S'WHITMAN'
p885
ag264
aS'C207'
p886
aa(lp887
S'BUTLER'
p888
ag250
aS'402'
p889
aa(lp890
S'MATHEY'
p891
ag71
aS'323'
p892
aa(lp893
S'WHITMAN'
p894
ag461
aS'D110'
p895
aa(lp896
S'WHITMAN'
p897
ag522
aS'F017'
p898
aa(lp899
S'MATHEY'
p900
ag304
aS'109'
p901
aa(lp902
S'BUTLER'
p903
ag250
aS'406'
p904
aa(lp905
S'WHITMAN'
p906
ag522
aS'F023'
p907
aa(lp908
S'WHITMAN'
p909
ag260
aS'B309'
p910
aa(lp911
S'BUTLER'
p912
ag250
aS'303'
p913
aa(lp914
S'MATHEY'
p915
ag394
aS'312'
p916
aa(lp917
S'WHITMAN'
p918
ag260
aS'B318'
p919
aa(lp920
S'BUTLER'
p921
ag250
aS'340'
p922
aa(lp923
S'BUTLER'
p924
ag250
aS'326'
p925
aa(lp926
S'BUTLER'
p927
ag44
aS'E102'
p928
aa(lp929
S'MATHEY'
p930
ag394
aS'214'
p931
aa(lp932
S'WHITMAN'
p933
ag278
aS'E118'
p934
aa(lp935
S'WHITMAN'
p936
ag260
aS'B204'
p937
aa(lp938
S'BUTLER'
p939
ag250
aS'408'
p940
aa(lp941
S'MATHEY'
p942
ag304
aS'110'
p943
aa(lp944
S'WHITMAN'
p945
ag264
aS'C211'
p946
aa(lp947
S'WHITMAN'
p948
ag264
aS'C209'
p949
aa(lp950
S'WHITMAN'
p951
ag278
aS'E427'
p952
aa(lp953
S'WHITMAN'
p954
ag278
aS'E425'
p955
aa(lp956
S'BUTLER'
p957
ag250
aS'241'
p958
aa(lp959
S'MATHEY'
p960
ag457
aS'324'
p961
aa(lp962
S'MATHEY'
p963
ag71
aS'391'
p964
aa(lp965
g2
ag278
aS'E120'
p966
aa(lp967
S'BUTLER'
p968
ag250
aS'350'
p969
aa(lp970
S'BUTLER'
p971
ag250
aS'343'
p972
aa(lp973
S'BUTLER'
p974
ag250
aS'344'
p975
aa(lp976
S'MATHEY'
p977
ag372
aS'B73'
p978
aa(lp979
S'WHITMAN'
p980
ag522
aS'F121'
p981
aa(lp982
S'MATHEY'
p983
ag304
aS'103'
p984
aa(lp985
S'BUTLER'
p986
ag250
aS'436'
p987
aa(lp988
S'BUTLER'
p989
ag250
aS'443'
p990
aa(lp991
S'BUTLER'
p992
ag250
aS'316'
p993
aa(lp994
S'WHITMAN'
p995
ag461
aS'D302'
p996
aa(lp997
S'WHITMAN'
p998
ag461
aS'D106'
p999
aa(lp1000
S'WHITMAN'
p1001
ag461
aS'D303'
p1002
aa(lp1003
S'BUTLER'
p1004
ag250
aS'404'
p1005
aa(lp1006
S'MATHEY'
p1007
ag71
aS'015'
p1008
aa(lp1009
S'BUTLER'
p1010
ag250
aS'336'
p1011
aa(lp1012
S'BUTLER'
p1013
ag250
aS'243'
p1014
aa(lp1015
S'BUTLER'
p1016
ag250
aS'341'
p1017
aa(lp1018
S'BUTLER'
p1019
ag250
aS'245'
p1020
aa(lp1021
S'BUTLER'
p1022
ag250
aS'445'
p1023
aa(lp1024
S'MATHEY'
p1025
ag394
aS'331'
p1026
aa(lp1027
S'MATHEY'
p1028
ag394
aS'232'
p1029
aa(lp1030
g2
ag250
aS'427'
p1031
aa(lp1032
g2
ag51
aS'122'
p1033
aa(lp1034
S'MATHEY'
p1035
ag71
aS'063'
p1036
aa(lp1037
S'MATHEY'
p1038
ag304
aS'515'
p1039
aa(lp1040
S'MATHEY'
p1041
ag372
aS'305'
p1042
aa(lp1043
S'MATHEY'
p1044
ag394
aS'311'
p1045
aa(lp1046
S'MATHEY'
p1047
ag457
aS'325'
p1048
aa(lp1049
S'MATHEY'
p1050
ag457
aS'322'
p1051
aa(lp1052
S'MATHEY'
p1053
ag394
aS'231'
p1054
aa(lp1055
S'MATHEY'
p1056
ag457
aS'321'
p1057
aa(lp1058
S'MATHEY'
p1059
ag71
aS'381'
p1060
aa(lp1061
S'MATHEY'
p1062
ag457
aS'124'
p1063
aa(lp1064
S'MATHEY'
p1065
ag372
aS'B82'
p1066
aa(lp1067
S'MATHEY'
p1068
ag372
aS'B91'
p1069
aa(lp1070
S'MATHEY'
p1071
ag372
aS'098'
p1072
aa(lp1073
S'MATHEY'
p1074
ag304
aS'502'
p1075
aa(lp1076
S'MATHEY'
p1077
ag372
aS'096'
p1078
aa(lp1079
S'MATHEY'
p1080
ag372
aS'082'
p1081
aa(lp1082
S'MATHEY'
p1083
ag372
aS'095'
p1084
aa(lp1085
S'MATHEY'
p1086
ag372
aS'097'
p1087
aa(lp1088
S'MATHEY'
p1089
ag372
aS'102'
p1090
aa(lp1091
S'MATHEY'
p1092
ag844
aS'065'
p1093
aa(lp1094
S'MATHEY'
p1095
ag71
aS'073'
p1096
aa(lp1097
S'MATHEY'
p1098
ag844
aS'061'
p1099
aa(lp1100
S'MATHEY'
p1101
ag372
aS'093'
p1102
aa(lp1103
S'MATHEY'
p1104
ag372
aS'301'
p1105
aa(lp1106
S'MATHEY'
p1107
ag372
aS'302'
p1108
aa(lp1109
S'MATHEY'
p1110
ag304
aS'513'
p1111
aa(lp1112
S'MATHEY'
p1113
ag844
aS'062'
p1114
aa(lp1115
S'MATHEY'
p1116
ag394
aS'434'
p1117
aa(lp1118
S'MATHEY'
p1119
ag394
aS'334'
p1120
aa(lp1121
S'MATHEY'
p1122
ag304
aS'404'
p1123
aa(lp1124
S'MATHEY'
p1125
ag844
aS'006A'
p1126
aa(lp1127
S'MATHEY'
p1128
ag844
aS'052B'
p1129
aa(lp1130
S'MATHEY'
p1131
ag844
aS'005B'
p1132
aa(lp1133
S'MATHEY'
p1134
ag71
aS'012'
p1135
aa(lp1136
S'MATHEY'
p1137
ag304
aS'116'
p1138
aa(lp1139
S'MATHEY'
p1140
ag304
aS'512'
p1141
aa(lp1142
g2
ag51
aS'135'
p1143
aa(lp1144
S'BUTLER'
p1145
ag250
aS'181'
p1146
aa(lp1147
S'BUTLER'
p1148
ag250
aS'327'
p1149
aa(lp1150
S'BUTLER'
p1151
ag250
aS'371'
p1152
aa(lp1153
S'BUTLER'
p1154
ag250
aS'439'
p1155
aa(lp1156
S'BUTLER'
p1157
ag250
aS'441'
p1158
aa(lp1159
S'BUTLER'
p1160
ag250
aS'191'
p1161
aa(lp1162
S'BUTLER'
p1163
ag250
aS'481'
p1164
aa(lp1165
S'BUTLER'
p1166
ag500
aS'A105'
p1167
aa(lp1168
S'BUTLER'
p1169
ag250
aS'345'
p1170
aa(lp1171
S'BUTLER'
p1172
ag274
aS'D312'
p1173
aa(lp1174
S'BUTLER'
p1175
ag250
aS'132'
p1176
aa(lp1177
S'BUTLER'
p1178
ag250
aS'140'
p1179
aa(lp1180
S'BUTLER'
p1181
ag250
aS'329'
p1182
aa(lp1183
S'BUTLER'
p1184
ag250
aS'182'
p1185
aa(lp1186
S'BUTLER'
p1187
ag250
aS'378'
p1188
aa(lp1189
S'BUTLER'
p1190
ag500
aS'A213'
p1191
aa(lp1192
S'BUTLER'
p1193
ag250
aS'376'
p1194
aa(lp1195
S'BUTLER'
p1196
ag500
aS'A113'
p1197
aa(lp1198
S'BUTLER'
p1199
ag500
aS'A203'
p1200
aa(lp1201
S'BUTLER'
p1202
ag274
aS'D112'
p1203
aa(lp1204
S'BUTLER'
p1205
ag250
aS'467'
p1206
aa(lp1207
S'BUTLER'
p1208
ag500
aS'A202'
p1209
aa(lp1210
S'BUTLER'
p1211
ag250
aS'471'
p1212
aa(lp1213
S'BUTLER'
p1214
ag250
aS'318'
p1215
aa(lp1216
S'BUTLER'
p1217
ag250
aS'323'
p1218
aa(lp1219
S'BUTLER'
p1220
ag250
aS'374'
p1221
aa(lp1222
S'BUTLER'
p1223
ag250
aS'324'
p1224
aa(lp1225
S'BUTLER'
p1226
ag250
aS'320'
p1227
aa(lp1228
S'BUTLER'
p1229
ag250
aS'224'
p1230
aa(lp1231
S'BUTLER'
p1232
ag274
aS'D212'
p1233
aa(lp1234
S'BUTLER'
p1235
ag250
aS'325'
p1236
aa(lp1237
S'BUTLER'
p1238
ag250
aS'322'
p1239
aa(lp1240
S'BUTLER'
p1241
ag250
aS'458'
p1242
aa(lp1243
S'BUTLER'
p1244
ag250
aS'410'
p1245
aa(lp1246
S'BUTLER'
p1247
ag250
aS'423'
p1248
aa(lp1249
S'BUTLER'
p1250
ag250
aS'454'
p1251
aa(lp1252
S'BUTLER'
p1253
ag250
aS'476'
p1254
aa(lp1255
S'BUTLER'
p1256
ag250
aS'478'
p1257
aa(lp1258
S'BUTLER'
p1259
ag500
aS'A208'
p1260
aa(lp1261
S'BUTLER'
p1262
ag407
aS'B313'
p1263
aa(lp1264
S'BUTLER'
p1265
ag407
aS'B214'
p1266
aa(lp1267
S'BUTLER'
p1268
ag407
aS'B204'
p1269
aa(lp1270
S'BUTLER'
p1271
ag274
aS'D106'
p1272
aa(lp1273
S'BUTLER'
p1274
ag735
aS'624'
p1275
aa(lp1276
S'BUTLER'
p1277
ag735
aS'625'
p1278
aa(lp1279
S'BUTLER'
p1280
ag250
aS'356'
p1281
aa(lp1282
S'BUTLER'
p1283
ag250
aS'373'
p1284
aa(lp1285
S'BUTLER'
p1286
ag735
aS'614'
p1287
aa(lp1288
S'BUTLER'
p1289
ag250
aS'473'
p1290
aa(lp1291
S'BUTLER'
p1292
ag735
aS'615'
p1293
aa(lp1294
S'BUTLER'
p1295
ag735
aS'621'
p1296
aa(lp1297
S'BUTLER'
p1298
ag735
aS'622'
p1299
aa(lp1300
S'BUTLER'
p1301
ag735
aS'412'
p1302
aa(lp1303
S'BUTLER'
p1304
ag407
aS'B304'
p1305
aa(lp1306
S'BUTLER'
p1307
ag44
aS'E205'
p1308
aa(lp1309
S'BUTLER'
p1310
ag44
aS'E202'
p1311
aa(lp1312
S'BUTLER'
p1313
ag250
aS'131'
p1314
aa(lp1315
S'BUTLER'
p1316
ag735
aS'514'
p1317
aa(lp1318
S'BUTLER'
p1319
ag735
aS'423'
p1320
aa(lp1321
S'BUTLER'
p1322
ag735
aS'422'
p1323
aa(lp1324
S'BUTLER'
p1325
ag44
aS'E305'
p1326
aa(lp1327
S'BUTLER'
p1328
ag44
aS'E302'
p1329
aa(lp1330
S'BUTLER'
p1331
ag320
aS'C202'
p1332
aa(lp1333
S'BUTLER'
p1334
ag735
aS'421'
p1335
aa(lp1336
S'BUTLER'
p1337
ag735
aS'511'
p1338
aa(lp1339
S'BUTLER'
p1340
ag407
aS'B211'
p1341
aa(lp1342
S'BUTLER'
p1343
ag407
aS'B212'
p1344
aa(lp1345
S'BUTLER'
p1346
ag407
aS'B202'
p1347
aa(lp1348
S'BUTLER'
p1349
ag407
aS'B213'
p1350
aa(lp1351
S'BUTLER'
p1352
ag320
aS'C102'
p1353
aa(lp1354
S'BUTLER'
p1355
ag735
aS'415'
p1356
aa(lp1357
S'BUTLER'
p1358
ag735
aS'414'
p1359
aa(lp1360
S'BUTLER'
p1361
ag320
aS'C104'
p1362
aa(lp1363
S'FORBES'
p1364
aS'FORBES MAIN INN'
p1365
aS'327'
p1366
aa(lp1367
S'FORBES'
p1368
ag1365
aS'155'
p1369
aa(lp1370
S'FORBES'
p1371
ag1365
aS'112'
p1372
aa(lp1373
S'FORBES'
p1374
ag1365
aS'326'
p1375
aa(lp1376
S'FORBES'
p1377
ag1365
aS'106'
p1378
aa(lp1379
S'FORBES'
p1380
ag1365
aS'251'
p1381
aa(lp1382
S'FORBES'
p1383
aS'FORBES ADDITION'
p1384
aS'A126'
p1385
aa(lp1386
S'FORBES'
p1387
ag1365
aS'255'
p1388
aa(lp1389
S'FORBES'
p1390
ag1365
aS'305'
p1391
aa(lp1392
S'FORBES'
p1393
ag1384
aS'A252'
p1394
aa(lp1395
S'FORBES'
p1396
ag1384
aS'A254'
p1397
aa(lp1398
S'FORBES'
p1399
ag1384
aS'A258'
p1400
aa(lp1401
S'FORBES'
p1402
ag1384
aS'A256'
p1403
aa(lp1404
S'FORBES'
p1405
ag1384
aS'A240'
p1406
aa(lp1407
S'FORBES'
p1408
ag1384
aS'A231'
p1409
aa(lp1410
S'FORBES'
p1411
ag1365
aS'252'
p1412
aa(lp1413
S'FORBES'
p1414
ag1365
aS'224'
p1415
aa(lp1416
S'FORBES'
p1417
ag1365
aS'266'
p1418
aa(lp1419
S'FORBES'
p1420
ag1365
aS'267'
p1421
aa(lp1422
S'FORBES'
p1423
ag1365
aS'323'
p1424
aa(lp1425
S'FORBES'
p1426
ag1365
aS'319'
p1427
aa(lp1428
S'FORBES'
p1429
ag1365
aS'322'
p1430
aa(lp1431
S'FORBES'
p1432
ag1365
aS'254'
p1433
aa(lp1434
S'FORBES'
p1435
ag1365
aS'235'
p1436
aa(lp1437
S'FORBES'
p1438
ag1365
aS'320'
p1439
aa(lp1440
S'FORBES'
p1441
ag1365
aS'156'
p1442
aa(lp1443
S'FORBES'
p1444
ag1365
aS'306'
p1445
aa(lp1446
S'FORBES'
p1447
ag1365
aS'307'
p1448
aa(lp1449
S'FORBES'
p1450
ag1365
aS'154'
p1451
aa(lp1452
S'FORBES'
p1453
ag1365
aS'308'
p1454
aa(lp1455
S'FORBES'
p1456
ag1365
aS'309'
p1457
aa(lp1458
S'FORBES'
p1459
ag1384
aS'A377'
p1460
aa(lp1461
S'FORBES'
p1462
ag1365
aS'268'
p1463
aa(lp1464
S'FORBES'
p1465
ag1365
aS'264'
p1466
aa(lp1467
S'FORBES'
p1468
ag1365
aS'262'
p1469
aa(lp1470
S'FORBES'
p1471
ag1365
aS'324'
p1472
aa(lp1473
S'FORBES'
p1474
ag1365
aS'318'
p1475
aa(lp1476
S'FORBES'
p1477
ag1365
aS'310'
p1478
aa(lp1479
S'FORBES'
p1480
ag1365
aS'301'
p1481
aa(lp1482
S'FORBES'
p1483
ag1365
aS'224N'
p1484
aa(lp1485
S'FORBES'
p1486
ag1365
aS'304'
p1487
aa(lp1488
S'FORBES'
p1489
ag1384
aS'A227'
p1490
aa(lp1491
S'FORBES'
p1492
ag1384
aS'A248'
p1493
aa(lp1494
S'FORBES'
p1495
ag1384
aS'A331'
p1496
aa(lp1497
S'FORBES'
p1498
ag1384
aS'A247'
p1499
aa(lp1500
S'FORBES'
p1501
ag1384
aS'A246'
p1502
aa(lp1503
S'FORBES'
p1504
ag1384
aS'A268'
p1505
aa(lp1506
S'FORBES'
p1507
ag1384
aS'A265'
p1508
aa(lp1509
S'FORBES'
p1510
ag1384
aS'A270'
p1511
aa(lp1512
S'FORBES'
p1513
ag1365
aS'253'
p1514
aa(lp1515
S'FORBES'
p1516
ag1384
aS'A266'
p1517
aa(lp1518
S'FORBES'
p1519
ag1384
aS'A244'
p1520
aa(lp1521
S'FORBES'
p1522
ag1384
aS'A242'
p1523
aa(lp1524
S'FORBES'
p1525
ag1365
aS'152'
p1526
aa(lp1527
S'FORBES'
p1528
ag1384
aS'A155'
p1529
aa(lp1530
S'FORBES'
p1531
ag1384
aS'A156'
p1532
aa(lp1533
S'FORBES'
p1534
ag1365
aS'219'
p1535
aa(lp1536
S'FORBES'
p1537
ag1365
aS'220'
p1538
aa(lp1539
S'FORBES'
p1540
ag1365
aS'160'
p1541
aa(lp1542
S'FORBES'
p1543
ag1384
aS'A255'
p1544
aa(lp1545
S'FORBES'
p1546
ag1365
aS'221'
p1547
aa(lp1548
S'FORBES'
p1549
ag1365
aS'321'
p1550
aa(lp1551
S'FORBES'
p1552
ag1365
aS'209'
p1553
aa(lp1554
S'FORBES'
p1555
ag1384
aS'A154'
p1556
aa(lp1557
S'FORBES'
p1558
ag1365
aS'217'
p1559
aa(lp1560
S'BUTLER'
p1561
ag274
aS'D306'
p1562
aa(lp1563
S'FORBES'
p1564
ag1365
aS'234'
p1565
aa(lp1566
S'FORBES'
p1567
ag1365
aS'239'
p1568
aa(lp1569
S'FORBES'
p1570
ag1365
aS'263'
p1571
aa(lp1572
S'FORBES'
p1573
ag1365
aS'331'
p1574
aa(lp1575
S'FORBES'
p1576
ag1365
aS'237'
p1577
aa(lp1578
S'FORBES'
p1579
ag1384
aS'A148'
p1580
aa(lp1581
S'FORBES'
p1582
ag1365
aS'159'
p1583
aa(lp1584
S'FORBES'
p1585
ag1365
aS'151'
p1586
aa(lp1587
S'FORBES'
p1588
ag1365
aS'153'
p1589
aa(lp1590
S'FORBES'
p1591
ag1365
aS'215'
p1592
aa(lp1593
S'FORBES'
p1594
ag1365
aS'213'
p1595
aa(lp1596
S'FORBES'
p1597
ag1365
aS'211'
p1598
aa(lp1599
S'FORBES'
p1600
ag1384
aS'A147'
p1601
aa(lp1602
S'FORBES'
p1603
ag1384
aS'A150'
p1604
aa(lp1605
S'FORBES'
p1606
ag1384
aS'A250'
p1607
aa(lp1608
S'FORBES'
p1609
ag1384
aS'A136'
p1610
aa(lp1611
S'FORBES'
p1612
ag1384
aS'A134'
p1613
aa(lp1614
S'FORBES'
p1615
ag1365
aS'113'
p1616
aa(lp1617
S'FORBES'
p1618
ag1384
aS'A146'
p1619
aa(lp1620
S'FORBES'
p1621
ag1384
aS'A261'
p1622
aa(lp1623
S'FORBES'
p1624
ag1384
aS'A263'
p1625
aa(lp1626
S'FORBES'
p1627
ag1384
aS'A257'
p1628
aa(lp1629
S'FORBES'
p1630
ag1384
aS'A245'
p1631
aa(lp1632
S'FORBES'
p1633
ag1384
aS'A259'
p1634
aa(lp1635
S'FORBES'
p1636
ag1384
aS'A260'
p1637
aa(lp1638
S'FORBES'
p1639
ag1384
aS'A152'
p1640
aa(lp1641
S'FORBES'
p1642
ag1384
aS'A142'
p1643
aa(lp1644
S'FORBES'
p1645
ag1384
aS'A145'
p1646
aa(lp1647
S'FORBES'
p1648
ag1384
aS'A144'
p1649
aa(lp1650
S'FORBES'
p1651
ag1384
aS'A149'
p1652
aa(lp1653
S'FORBES'
p1654
ag1384
aS'A249'
p1655
aa(lp1656
S'FORBES'
p1657
ag1384
aS'A437'
p1658
aa(lp1659
S'FORBES'
p1660
ag1384
aS'A431'
p1661
aa(lp1662
S'FORBES'
p1663
ag1384
aS'A133'
p1664
aa(lp1665
S'FORBES'
p1666
ag1384
aS'A135'
p1667
aa(lp1668
S'FORBES'
p1669
ag1384
aS'A174'
p1670
aa(lp1671
S'FORBES'
p1672
ag1384
aS'A427'
p1673
aa(lp1674
S'FORBES'
p1675
ag1365
aS'218'
p1676
aa(lp1677
S'FORBES'
p1678
ag1365
aS'206'
p1679
aa(lp1680
S'FORBES'
p1681
ag1365
aS'108'
p1682
aa(lp1683
S'FORBES'
p1684
ag1365
aS'111'
p1685
aa(lp1686
S'FORBES'
p1687
ag1365
aS'109'
p1688
aa(lp1689
S'FORBES'
p1690
ag1365
aS'107'
p1691
aa(lp1692
S'FORBES'
p1693
ag1365
aS'110'
p1694
aa(lp1695
S'FORBES'
p1696
ag1365
aS'208'
p1697
aa(lp1698
S'FORBES'
p1699
ag1384
aS'A131'
p1700
aa(lp1701
S'FORBES'
p1702
ag1365
aS'207'
p1703
aa(lp1704
S'FORBES'
p1705
ag1384
aS'A132'
p1706
aa(lp1707
S'BUTLER'
p1708
ag320
aS'C204'
p1709
aa(lp1710
S'FORBES'
p1711
ag1384
aS'A328'
p1712
aa(lp1713
S'FORBES'
p1714
ag1384
aS'A125'
p1715
aa(lp1716
S'FORBES'
p1717
ag1384
aS'A178'
p1718
aa(lp1719
S'FORBES'
p1720
ag1384
aS'A323'
p1721
aa(lp1722
S'FORBES'
p1723
ag1384
aS'A327'
p1724
aa(lp1725
S'FORBES'
p1726
ag1384
aS'A237'
p1727
aa(lp1728
S'FORBES'
p1729
ag1384
aS'A236'
p1730
aa(lp1731
S'FORBES'
p1732
ag1384
aS'A238'
p1733
aa(lp1734
S'FORBES'
p1735
ag1384
aS'A232'
p1736
aa(lp1737
S'FORBES'
p1738
ag1384
aS'A137'
p1739
aa(lp1740
S'FORBES'
p1741
ag1384
aS'A138'
p1742
aa(lp1743
S'FORBES'
p1744
ag1384
aS'A228'
p1745
aa(lp1746
S'FORBES'
p1747
ag1384
aS'A336'
p1748
aa(lp1749
S'FORBES'
p1750
ag1384
aS'A334'
p1751
aa(lp1752
S'FORBES'
p1753
ag1384
aS'A332'
p1754
aa(lp1755
S'FORBES'
p1756
ag1384
aS'A234'
p1757
aa(lp1758
S'BUTLER'
p1759
ag735
aS'611'
p1760
aa(lp1761
S'FORBES'
p1762
ag1384
aS'A426'
p1763
aa(lp1764
S'FORBES'
p1765
ag1384
aS'A428'
p1766
aa(lp1767
S'FORBES'
p1768
ag1384
aS'A337'
p1769
aa(lp1770
S'FORBES'
p1771
ag1365
aS'303'
p1772
aa(lp1773
S'FORBES'
p1774
ag1384
aS'A338'
p1775
aa(lp1776
S'FORBES'
p1777
ag1384
aS'A432'
p1778
aa(lp1779
S'FORBES'
p1780
ag1384
aS'A378'
p1781
aa(lp1782
S'MATHEY'
p1783
ag844
aS'063'
p1784
aa(lp1785
S'MATHEY'
p1786
ag304
aS'514'
p1787
aa(lp1788
S'MATHEY'
p1789
ag71
aS'301'
p1790
aa(lp1791
S'MATHEY'
p1792
ag71
aS'329'
p1793
aa(lp1794
S'MATHEY'
p1795
ag71
aS'051'
p1796
aa(lp1797
S'MATHEY'
p1798
ag71
aS'311'
p1799
aa(lp1800
S'MATHEY'
p1801
ag71
aS'387'
p1802
aa(lp1803
S'MATHEY'
p1804
ag71
aS'074'
p1805
aa(lp1806
S'MATHEY'
p1807
ag372
aS'B92'
p1808
aa(lp1809
S'MATHEY'
p1810
ag71
aS'305'
p1811
aa(lp1812
S'MATHEY'
p1813
ag71
aS'071'
p1814
aa(lp1815
S'MATHEY'
p1816
ag372
aS'B51'
p1817
aa(lp1818
S'MATHEY'
p1819
ag71
aS'307'
p1820
aa(lp1821
S'MATHEY'
p1822
ag372
aS'B72'
p1823
aa(lp1824
S'MATHEY'
p1825
ag304
aS'112'
p1826
aa(lp1827
S'MATHEY'
p1828
ag304
aS'506'
p1829
aa(lp1830
S'MATHEY'
p1831
ag304
aS'508'
p1832
aa(lp1833
S'MATHEY'
p1834
ag372
aS'B61'
p1835
aa(lp1836
S'MATHEY'
p1837
ag71
aS'313'
p1838
aa(lp1839
S'MATHEY'
p1840
ag71
aS'309'
p1841
aa(lp1842
S'MATHEY'
p1843
ag372
aS'061'
p1844
aa(lp1845
S'MATHEY'
p1846
ag71
aS'013'
p1847
aa(lp1848
S'MATHEY'
p1849
ag372
aS'091'
p1850
aa(lp1851
S'MATHEY'
p1852
ag71
aS'042'
p1853
aa(lp1854
S'MATHEY'
p1855
ag71
aS'401'
p1856
aa(lp1857
S'MATHEY'
p1858
ag372
aS'084'
p1859
aa(lp1860
S'MATHEY'
p1861
ag372
aS'083'
p1862
aa(lp1863
S'MATHEY'
p1864
ag304
aS'511'
p1865
aa(lp1866
S'MATHEY'
p1867
ag304
aS'507'
p1868
aa(lp1869
S'MATHEY'
p1870
ag304
aS'503'
p1871
aa(lp1872
S'MATHEY'
p1873
ag304
aS'510'
p1874
aa(lp1875
S'MATHEY'
p1876
ag304
aS'501'
p1877
aa(lp1878
S'MATHEY'
p1879
ag71
aS'018'
p1880
aa(lp1881
S'MATHEY'
p1882
ag71
aS'031'
p1883
aa(lp1884
S'MATHEY'
p1885
ag71
aS'325'
p1886
aa(lp1887
S'MATHEY'
p1888
ag71
aS'327'
p1889
aa(lp1890
S'MATHEY'
p1891
ag304
aS'509'
p1892
aa(lp1893
S'MATHEY'
p1894
ag304
aS'505'
p1895
aa(lp1896
S'MATHEY'
p1897
ag394
aS'233'
p1898
aa(lp1899
S'MATHEY'
p1900
ag372
aS'081'
p1901
aa(lp1902
S'MATHEY'
p1903
ag71
aS'321'
p1904
aa(lp1905
S'MATHEY'
p1906
ag457
aS'212'
p1907
aa(lp1908
S'MATHEY'
p1909
ag457
aS'115'
p1910
aa(lp1911
S'MATHEY'
p1912
ag71
aS'053'
p1913
aa(lp1914
S'MATHEY'
p1915
ag71
aS'033'
p1916
aa(lp1917
S'MATHEY'
p1918
ag372
aS'053'
p1919
aa(lp1920
S'MATHEY'
p1921
ag372
aS'051'
p1922
aa(lp1923
S'MATHEY'
p1924
ag457
aS'211'
p1925
aa(lp1926
S'MATHEY'
p1927
ag372
aS'065'
p1928
aa(lp1929
S'MATHEY'
p1930
ag372
aS'092'
p1931
aa(lp1932
S'MATHEY'
p1933
ag372
aS'B41'
p1934
aa(lp1935
S'MATHEY'
p1936
ag304
aS'102'
p1937
aa(lp1938
S'MATHEY'
p1939
ag844
aS'052A'
p1940
aa(lp1941
S'MATHEY'
p1942
ag71
aS'081'
p1943
aa(lp1944
S'MATHEY'
p1945
ag394
aS'123'
p1946
aa(lp1947
S'MATHEY'
p1948
ag372
aS'B62'
p1949
aa(lp1950
S'MATHEY'
p1951
ag372
aS'B42'
p1952
aa(lp1953
S'ROCKEFELLER'
p1954
aS'WITHERSPOON'
p1955
aS'517'
p1956
aa(lp1957
S'ROCKEFELLER'
p1958
ag1955
aS'422'
p1959
aa(lp1960
S'ROCKEFELLER'
p1961
aS'HOLDER'
p1962
aS'088'
p1963
aa(lp1964
S'ROCKEFELLER'
p1965
ag1955
aS'417'
p1966
aa(lp1967
S'ROCKEFELLER'
p1968
ag1962
aS'012'
p1969
aa(lp1970
S'ROCKEFELLER'
p1971
aS'BUYERS'
p1972
aS'B13'
p1973
aa(lp1974
S'ROCKEFELLER'
p1975
ag1972
aS'034'
p1976
aa(lp1977
S'ROCKEFELLER'
p1978
ag1955
aS'421'
p1979
aa(lp1980
S'ROCKEFELLER'
p1981
ag1972
aS'024'
p1982
aa(lp1983
S'ROCKEFELLER'
p1984
ag1962
aS'076'
p1985
aa(lp1986
S'ROCKEFELLER'
p1987
ag1955
aS'006'
p1988
aa(lp1989
S'ROCKEFELLER'
p1990
ag1962
aS'074'
p1991
aa(lp1992
S'ROCKEFELLER'
p1993
ag1962
aS'068'
p1994
aa(lp1995
S'ROCKEFELLER'
p1996
ag1962
aS'142'
p1997
aa(lp1998
S'ROCKEFELLER'
p1999
ag1955
aS'317'
p2000
aa(lp2001
S'ROCKEFELLER'
p2002
ag1962
aS'079'
p2003
aa(lp2004
S'ROCKEFELLER'
p2005
ag1962
aS'011'
p2006
aa(lp2007
S'ROCKEFELLER'
p2008
ag1955
aS'117'
p2009
aa(lp2010
S'ROCKEFELLER'
p2011
ag1955
aS'222'
p2012
aa(lp2013
S'ROCKEFELLER'
p2014
ag844
aS'022'
p2015
aa(lp2016
S'ROCKEFELLER'
p2017
ag1955
aS'217'
p2018
aa(lp2019
S'ROCKEFELLER'
p2020
ag1955
aS'405'
p2021
aa(lp2022
S'ROCKEFELLER'
p2023
ag1955
aS'521'
p2024
aa(lp2025
S'ROCKEFELLER'
p2026
ag1955
aS'415'
p2027
aa(lp2028
S'ROCKEFELLER'
p2029
ag1955
aS'516'
p2030
aa(lp2031
S'ROCKEFELLER'
p2032
ag1955
aS'503'
p2033
aa(lp2034
S'ROCKEFELLER'
p2035
ag1955
aS'409'
p2036
aa(lp2037
S'ROCKEFELLER'
p2038
ag1955
aS'412'
p2039
aa(lp2040
S'ROCKEFELLER'
p2041
ag1955
aS'410'
p2042
aa(lp2043
S'ROCKEFELLER'
p2044
ag1955
aS'312'
p2045
aa(lp2046
S'ROCKEFELLER'
p2047
ag1955
aS'303'
p2048
aa(lp2049
S'ROCKEFELLER'
p2050
ag1955
aS'403'
p2051
aa(lp2052
S'ROCKEFELLER'
p2053
ag1955
aS'203'
p2054
aa(lp2055
S'ROCKEFELLER'
p2056
ag1955
aS'321'
p2057
aa(lp2058
S'ROCKEFELLER'
p2059
ag1955
aS'506'
p2060
aa(lp2061
S'ROCKEFELLER'
p2062
ag1955
aS'408'
p2063
aa(lp2064
S'ROCKEFELLER'
p2065
ag1955
aS'401'
p2066
aa(lp2067
S'ROCKEFELLER'
p2068
ag1962
aS'116'
p2069
aa(lp2070
S'ROCKEFELLER'
p2071
ag1972
aS'032'
p2072
aa(lp2073
S'ROCKEFELLER'
p2074
ag1955
aS'201'
p2075
aa(lp2076
S'ROCKEFELLER'
p2077
ag1962
aS'085'
p2078
aa(lp2079
S'ROCKEFELLER'
p2080
ag1972
aS'B22'
p2081
aa(lp2082
S'ROCKEFELLER'
p2083
ag1955
aS'205'
p2084
aa(lp2085
S'ROCKEFELLER'
p2086
ag1955
aS'208'
p2087
aa(lp2088
S'ROCKEFELLER'
p2089
ag1955
aS'206'
p2090
aa(lp2091
S'ROCKEFELLER'
p2092
ag1962
aS'067'
p2093
aa(lp2094
S'ROCKEFELLER'
p2095
ag1962
aS'057'
p2096
aa(lp2097
S'ROCKEFELLER'
p2098
ag1962
aS'047'
p2099
aa(lp2100
S'ROCKEFELLER'
p2101
ag1962
aS'027'
p2102
aa(lp2103
S'ROCKEFELLER'
p2104
ag1955
aS'121'
p2105
aa(lp2106
S'ROCKEFELLER'
p2107
ag844
aS'004B'
p2108
aa(lp2109
S'ROCKEFELLER'
p2110
ag844
aS'013'
p2111
aa(lp2112
S'ROCKEFELLER'
p2113
ag1955
aS'310'
p2114
aa(lp2115
S'ROCKEFELLER'
p2116
ag1972
aS'016'
p2117
aa(lp2118
S'ROCKEFELLER'
p2119
ag844
aS'014'
p2120
aa(lp2121
S'ROCKEFELLER'
p2122
ag1955
aS'215'
p2123
aa(lp2124
S'ROCKEFELLER'
p2125
ag1955
aS'211'
p2126
aa(lp2127
S'ROCKEFELLER'
p2128
ag1955
aS'216'
p2129
aa(lp2130
S'ROCKEFELLER'
p2131
ag1955
aS'221'
p2132
aa(lp2133
S'ROCKEFELLER'
p2134
ag1955
aS'210'
p2135
aa(lp2136
S'ROCKEFELLER'
p2137
ag1962
aS'066'
p2138
aa(lp2139
S'ROCKEFELLER'
p2140
ag1955
aS'214'
p2141
aa(lp2142
S'ROCKEFELLER'
p2143
ag1972
aS'018'
p2144
aa(lp2145
S'ROCKEFELLER'
p2146
ag1955
aS'209'
p2147
aa(lp2148
S'ROCKEFELLER'
p2149
ag1972
aS'B21'
p2150
aa(lp2151
S'ROCKEFELLER'
p2152
ag1962
aS'126'
p2153
aa(lp2154
S'ROCKEFELLER'
p2155
ag1962
aS'026'
p2156
aa(lp2157
S'ROCKEFELLER'
p2158
ag1955
aS'014'
p2159
aa(lp2160
S'ROCKEFELLER'
p2161
ag1955
aS'012'
p2162
aa(lp2163
S'ROCKEFELLER'
p2164
ag1962
aS'024'
p2165
aa(lp2166
S'ROCKEFELLER'
p2167
ag1962
aS'025'
p2168
aa(lp2169
S'ROCKEFELLER'
p2170
ag1962
aS'097'
p2171
aa(lp2172
S'ROCKEFELLER'
p2173
ag1962
aS'055'
p2174
aa(lp2175
S'ROCKEFELLER'
p2176
ag1955
aS'316'
p2177
aa(lp2178
S'ROCKEFELLER'
p2179
ag844
aS'003A'
p2180
aa(lp2181
S'ROCKEFELLER'
p2182
ag844
aS'003C'
p2183
aa(lp2184
S'ROCKEFELLER'
p2185
ag1962
aS'046'
p2186
aa(lp2187
S'ROCKEFELLER'
p2188
ag1962
aS'022'
p2189
aa(lp2190
S'ROCKEFELLER'
p2191
ag1955
aS'510'
p2192
aa(lp2193
S'ROCKEFELLER'
p2194
ag1962
aS'107'
p2195
aa(lp2196
S'ROCKEFELLER'
p2197
ag1962
aS'037'
p2198
aa(lp2199
S'ROCKEFELLER'
p2200
ag1955
aS'508'
p2201
aa(lp2202
S'ROCKEFELLER'
p2203
ag1955
aS'306'
p2204
aa(lp2205
S'ROCKEFELLER'
p2206
ag1955
aS'414'
p2207
aa(lp2208
S'ROCKEFELLER'
p2209
ag1972
aS'B23'
p2210
aa(lp2211
S'ROCKEFELLER'
p2212
ag844
aS'003B'
p2213
aa(lp2214
S'ROCKEFELLER'
p2215
ag1955
aS'404'
p2216
aa(lp2217
S'ROCKEFELLER'
p2218
ag1962
aS'095'
p2219
aa(lp2220
S'ROCKEFELLER'
p2221
ag1972
aS'033'
p2222
aa(lp2223
S'ROCKEFELLER'
p2224
ag1962
aS'063'
p2225
aa(lp2226
S'ROCKEFELLER'
p2227
ag1972
aS'B31'
p2228
aa(lp2229
S'ROCKEFELLER'
p2230
ag1962
aS'078'
p2231
aa(lp2232
S'ROCKEFELLER'
p2233
ag1962
aS'086'
p2234
aa(lp2235
S'ROCKEFELLER'
p2236
ag1962
aS'096'
p2237
aa(lp2238
S'ROCKEFELLER'
p2239
ag1962
aS'061'
p2240
aa(lp2241
S'ROCKEFELLER'
p2242
ag1972
aS'017'
p2243
aa(lp2244
S'ROCKEFELLER'
p2245
ag1955
aS'204'
p2246
aa(lp2247
S'ROCKEFELLER'
p2248
ag1962
aS'081'
p2249
aa(lp2250
S'ROCKEFELLER'
p2251
ag1962
aS'073'
p2252
aa(lp2253
S'ROCKEFELLER'
p2254
ag1962
aS'041'
p2255
aa(lp2256
S'ROCKEFELLER'
p2257
ag844
aS'026'
p2258
aa(lp2259
S'ROCKEFELLER'
p2260
ag1962
aS'062'
p2261
aa(lp2262
S'ROCKEFELLER'
p2263
ag1962
aS'143'
p2264
aa(lp2265
S'ROCKEFELLER'
p2266
ag1962
aS'042'
p2267
aa(lp2268
S'ROCKEFELLER'
p2269
ag1962
aS'092'
p2270
aa(lp2271
S'BUTLER'
p2272
ag735
aS'425'
p2273
aa(lp2274
S'WHITMAN'
p2275
ag278
aS'E209'
p2276
aa(lp2277
S'WHITMAN'
p2278
ag278
aS'E309'
p2279
aa(lp2280
S'WHITMAN'
p2281
ag522
aS'F015'
p2282
aa(lp2283
S'WHITMAN'
p2284
ag429
aS'A310'
p2285
aa(lp2286
S'WHITMAN'
p2287
ag246
aS'G406'
p2288
aa(lp2289
S'WHITMAN'
p2290
ag522
aS'F229'
p2291
aa(lp2292
S'WHITMAN'
p2293
ag246
aS'G402'
p2294
aa(lp2295
S'WHITMAN'
p2296
ag278
aS'E222'
p2297
aa(lp2298
S'WHITMAN'
p2299
ag264
aS'C213'
p2300
aa(lp2301
S'WHITMAN'
p2302
ag246
aS'G407B'
p2303
aa(lp2304
S'WHITMAN'
p2305
ag260
aS'B216'
p2306
aa(lp2307
S'WHITMAN'
p2308
ag264
aS'C217'
p2309
aa(lp2310
S'WHITMAN'
p2311
ag278
aS'E109'
p2312
aa(lp2313
S'WHITMAN'
p2314
ag278
aS'E108'
p2315
aa(lp2316
S'WHITMAN'
p2317
ag461
aS'D114'
p2318
aa(lp2319
S'WHITMAN'
p2320
ag461
aS'D107'
p2321
aa(lp2322
S'WHITMAN'
p2323
ag278
aS'E211'
p2324
aa(lp2325
S'WHITMAN'
p2326
ag278
aS'E123'
p2327
aa(lp2328
S'WHITMAN'
p2329
ag260
aS'B317'
p2330
aa(lp2331
S'WHITMAN'
p2332
ag278
aS'E318'
p2333
aa(lp2334
S'WHITMAN'
p2335
ag278
aS'E320'
p2336
aa(lp2337
S'WHITMAN'
p2338
ag300
aS'S102'
p2339
aa(lp2340
S'WHITMAN'
p2341
ag278
aS'E308'
p2342
aa(lp2343
S'WHITMAN'
p2344
ag278
aS'E125'
p2345
aa(lp2346
S'WHITMAN'
p2347
ag429
aS'A312'
p2348
aa(lp2349
S'WHITMAN'
p2350
ag278
aS'E107'
p2351
aa(lp2352
S'WHITMAN'
p2353
ag461
aS'D301'
p2354
aa(lp2355
S'WHITMAN'
p2356
ag278
aS'E419'
p2357
aa(lp2358
S'WHITMAN'
p2359
ag300
aS'S405'
p2360
aa(lp2361
S'WHITMAN'
p2362
ag300
aS'S406'
p2363
aa(lp2364
S'WHITMAN'
p2365
ag300
aS'S404'
p2366
aa(lp2367
S'WHITMAN'
p2368
ag300
aS'S403'
p2369
aa(lp2370
S'WHITMAN'
p2371
ag461
aS'D105'
p2372
aa(lp2373
S'WHITMAN'
p2374
ag278
aS'E323'
p2375
aa(lp2376
S'WHITMAN'
p2377
ag300
aS'S106'
p2378
aa(lp2379
S'WHITMAN'
p2380
ag278
aS'E312'
p2381
aa(lp2382
S'WHITMAN'
p2383
ag522
aS'F026'
p2384
aa(lp2385
S'WHITMAN'
p2386
ag522
aS'F305'
p2387
aa(lp2388
S'WHITMAN'
p2389
ag522
aS'F016'
p2390
aa(lp2391
S'WHITMAN'
p2392
ag522
aS'F024'
p2393
aa(lp2394
S'WHITMAN'
p2395
ag278
aS'E212'
p2396
aa(lp2397
S'WHITMAN'
p2398
ag278
aS'E214'
p2399
aa(lp2400
S'WHITMAN'
p2401
ag461
aS'D201'
p2402
aa(lp2403
S'WHITMAN'
p2404
ag461
aS'D209'
p2405
aa(lp2406
S'WHITMAN'
p2407
ag461
aS'D203'
p2408
aa(lp2409
S'WHITMAN'
p2410
ag461
aS'D311'
p2411
aa(lp2412
S'WHITMAN'
p2413
ag429
aS'A321'
p2414
aa(lp2415
S'WHITMAN'
p2416
ag429
aS'A317'
p2417
aa(lp2418
S'WHITMAN'
p2419
ag522
aS'F212'
p2420
aa(lp2421
S'WHITMAN'
p2422
ag260
aS'B311'
p2423
aa(lp2424
S'WHITMAN'
p2425
ag278
aS'E313'
p2426
aa(lp2427
S'WHITMAN'
p2428
ag260
aS'B205'
p2429
aa(lp2430
S'WHITMAN'
p2431
ag278
aS'E319'
p2432
aa(lp2433
S'WHITMAN'
p2434
ag300
aS'S202'
p2435
aa(lp2436
S'WHITMAN'
p2437
ag260
aS'B313'
p2438
aa(lp2439
S'WHITMAN'
p2440
ag461
aS'D307'
p2441
aa(lp2442
S'WHITMAN'
p2443
ag461
aS'D305'
p2444
aa(lp2445
S'WHITMAN'
p2446
ag522
aS'F228'
p2447
aa(lp2448
S'WHITMAN'
p2449
ag522
aS'F226'
p2450
aa(lp2451
S'WHITMAN'
p2452
ag278
aS'E310'
p2453
aa(lp2454
S'WHITMAN'
p2455
ag300
aS'S302'
p2456
aa(lp2457
S'WHITMAN'
p2458
ag300
aS'S402'
p2459
aa(lp2460
S'WHITMAN'
p2461
ag461
aS'D112'
p2462
aa(lp2463
S'WHITMAN'
p2464
ag260
aS'B410'
p2465
aa(lp2466
S'WHITMAN'
p2467
ag260
aS'B428'
p2468
aa(lp2469
S'WHITMAN'
p2470
ag522
aS'F114'
p2471
aa(lp2472
S'WHITMAN'
p2473
ag260
aS'B218'
p2474
aa(lp2475
S'WHITMAN'
p2476
ag429
aS'A221'
p2477
aa(lp2478
S'WHITMAN'
p2479
ag278
aS'E429'
p2480
aa(lp2481
S'WHITMAN'
p2482
ag429
aS'A216'
p2483
aa(lp2484
S'WHITMAN'
p2485
ag522
aS'F103'
p2486
aa(lp2487
S'WHITMAN'
p2488
ag522
aS'F007'
p2489
aa(lp2490
S'WHITMAN'
p2491
ag522
aS'F107'
p2492
aa(lp2493
S'WHITMAN'
p2494
ag461
aS'D109'
p2495
aa(lp2496
S'WHITMAN'
p2497
ag278
aS'E224'
p2498
aa(lp2499
S'WHITMAN'
p2500
ag278
aS'E215'
p2501
aa(lp2502
S'WHITMAN'
p2503
ag278
aS'E315'
p2504
aa(lp2505
S'WHITMAN'
p2506
ag278
aS'E311'
p2507
aa(lp2508
S'WHITMAN'
p2509
ag522
aS'F307'
p2510
aa(lp2511
S'WHITMAN'
p2512
ag278
aS'E306'
p2513
aa(lp2514
S'WHITMAN'
p2515
ag260
aS'B315'
p2516
aa(lp2517
S'WHITMAN'
p2518
ag278
aS'E316'
p2519
aa(lp2520
S'WHITMAN'
p2521
ag260
aS'B314'
p2522
aa(lp2523
S'WHITMAN'
p2524
ag616
aS'T302'
p2525
aa(lp2526
S'WHITMAN'
p2527
ag616
aS'T304'
p2528
aa(lp2529
S'WHITMAN'
p2530
ag278
aS'E218'
p2531
aa(lp2532
S'WHITMAN'
p2533
ag522
aS'F105'
p2534
aa(lp2535
S'WHITMAN'
p2536
ag278
aS'E219'
p2537
aa(lp2538
S'WHITMAN'
p2539
ag522
aS'F018'
p2540
aa(lp2541
S'WHITMAN'
p2542
ag278
aS'E314'
p2543
aa(lp2544
S'WHITMAN'
p2545
ag429
aS'A301'
p2546
aa(lp2547
S'WHITMAN'
p2548
ag522
aS'F116'
p2549
aa(lp2550
S'WHITMAN'
p2551
ag278
aS'E208'
p2552
aa(lp2553
S'WHITMAN'
p2554
ag260
aS'B320'
p2555
aa(lp2556
S'WHITMAN'
p2557
ag246
aS'G101D'
p2558
aa(lp2559
S'WILSON'
p2560
aS'WALKER'
p2561
aS'313'
p2562
aa(lp2563
S'WILSON'
p2564
ag2561
aS'324'
p2565
aa(lp2566
S'WILSON'
p2567
ag2561
aS'325'
p2568
aa(lp2569
S'WHITMAN'
p2570
ag522
aS'F117'
p2571
aa(lp2572
S'WILSON'
p2573
aS'1937'
p2574
aS'226'
p2575
aa(lp2576
S'WILSON'
p2577
ag2561
aS'304'
p2578
aa(lp2579
S'WILSON'
p2580
ag2561
aS'331'
p2581
aa(lp2582
S'WILSON'
p2583
ag2561
aS'314'
p2584
aa(lp2585
S'WILSON'
p2586
ag2561
aS'327'
p2587
aa(lp2588
S'WILSON'
p2589
ag2561
aS'319'
p2590
aa(lp2591
S'WILSON'
p2592
ag2561
aS'123'
p2593
aa(lp2594
S'WILSON'
p2595
ag2561
aS'214'
p2596
aa(lp2597
S'WILSON'
p2598
ag2561
aS'132'
p2599
aa(lp2600
S'WILSON'
p2601
ag2561
aS'232'
p2602
aa(lp2603
S'WILSON'
p2604
aS'DODGE OSBORN'
p2605
aS'226'
p2606
aa(lp2607
S'WILSON'
p2608
ag2561
aS'220'
p2609
aa(lp2610
S'WILSON'
p2611
ag2561
aS'223'
p2612
aa(lp2613
S'WILSON'
p2614
aS'1939'
p2615
aS'331'
p2616
aa(lp2617
S'WILSON'
p2618
ag2615
aS'120'
p2619
aa(lp2620
S'WILSON'
p2621
aS'1927'
p2622
aS'131'
p2623
aa(lp2624
S'WILSON'
p2625
ag2615
aS'115'
p2626
aa(lp2627
S'WILSON'
p2628
ag2615
aS'126'
p2629
aa(lp2630
S'WILSON'
p2631
ag2622
aS'122'
p2632
aa(lp2633
S'WILSON'
p2634
ag2574
aS'201'
p2635
aa(lp2636
S'WILSON'
p2637
ag2574
aS'204'
p2638
aa(lp2639
S'WILSON'
p2640
aS'GAUSS'
p2641
aS'117'
p2642
aa(lp2643
S'WILSON'
p2644
aS'1938'
p2645
aS'215'
p2646
aa(lp2647
S'WILSON'
p2648
ag2641
aS'116'
p2649
aa(lp2650
S'WILSON'
p2651
ag2615
aS'338'
p2652
aa(lp2653
S'WILSON'
p2654
ag2615
aS'339'
p2655
aa(lp2656
S'WILSON'
p2657
ag2615
aS'335'
p2658
aa(lp2659
S'WILSON'
p2660
ag2615
aS'337'
p2661
aa(lp2662
S'WILSON'
p2663
ag2615
aS'340'
p2664
aa(lp2665
S'WILSON'
p2666
ag2561
aS'231'
p2667
aa(lp2668
S'WILSON'
p2669
ag2561
aS'213'
p2670
aa(lp2671
S'WILSON'
p2672
ag2574
aS'122'
p2673
aa(lp2674
S'WILSON'
p2675
ag2615
aS'232'
p2676
aa(lp2677
S'WILSON'
p2678
ag2574
aS'213'
p2679
aa(lp2680
S'WILSON'
p2681
ag2574
aS'216'
p2682
aa(lp2683
S'WILSON'
p2684
ag2574
aS'232'
p2685
aa(lp2686
S'WILSON'
p2687
ag2605
aS'122'
p2688
aa(lp2689
S'WILSON'
p2690
ag2605
aS'227'
p2691
aa(lp2692
S'WILSON'
p2693
ag2574
aS'131'
p2694
aa(lp2695
S'WILSON'
p2696
ag2605
aS'212'
p2697
aa(lp2698
S'WILSON'
p2699
ag2622
aS'132'
p2700
aa(lp2701
S'WILSON'
p2702
ag2574
aS'104'
p2703
aa(lp2704
S'WILSON'
p2705
ag2605
aS'202'
p2706
aa(lp2707
S'WILSON'
p2708
ag2622
aS'112'
p2709
aa(lp2710
S'WILSON'
p2711
ag2605
aS'201'
p2712
aa(lp2713
S'WILSON'
p2714
ag2605
aS'217'
p2715
aa(lp2716
S'WILSON'
p2717
ag2645
aS'214'
p2718
aa(lp2719
S'WILSON'
p2720
ag2561
aS'221'
p2721
aa(lp2722
S'WILSON'
p2723
ag2645
aS'234'
p2724
aa(lp2725
S'WILSON'
p2726
ag2605
aS'121'
p2727
aa(lp2728
S'WILSON'
p2729
ag2605
aS'216'
p2730
aa(lp2731
S'WILSON'
p2732
ag2605
aS'213'
p2733
aa(lp2734
S'WILSON'
p2735
ag2605
aS'116'
p2736
aa(lp2737
S'WILSON'
p2738
aS'CLAPP'
p2739
aS'201'
p2740
aa(lp2741
S'WILSON'
p2742
ag2615
aS'222'
p2743
aa(lp2744
S'WILSON'
p2745
aS'FEINBERG'
p2746
aS'401'
p2747
aa(lp2748
S'WILSON'
p2749
ag2615
aS'342'
p2750
aa(lp2751
S'WILSON'
p2752
ag2615
aS'343'
p2753
aa(lp2754
S'WILSON'
p2755
ag2574
aS'206'
p2756
aa(lp2757
S'WILSON'
p2758
ag2574
aS'205'
p2759
aa(lp2760
S'WILSON'
p2761
ag2645
aS'225'
p2762
aa(lp2763
S'WILSON'
p2764
ag2645
aS'222'
p2765
aa(lp2766
S'WILSON'
p2767
ag2605
aS'211'
p2768
aa(lp2769
S'WILSON'
p2770
ag2645
aS'213'
p2771
aa(lp2772
S'WILSON'
p2773
ag2645
aS'212'
p2774
aa(lp2775
S'WILSON'
p2776
ag2645
aS'112'
p2777
aa(lp2778
S'WILSON'
p2779
ag2645
aS'235'
p2780
aa(lp2781
S'WILSON'
p2782
ag2645
aS'113'
p2783
aa(lp2784
S'WILSON'
p2785
ag2645
aS'211'
p2786
aa(lp2787
S'WILSON'
p2788
ag2574
aS'236'
p2789
aa(lp2790
S'WILSON'
p2791
ag2574
aS'202'
p2792
aa(lp2793
S'WILSON'
p2794
ag2574
aS'233'
p2795
aa(lp2796
S'WILSON'
p2797
ag2574
aS'203'
p2798
aa(lp2799
S'WILSON'
p2800
ag2739
aS'202'
p2801
aa(lp2802
S'WILSON'
p2803
ag2574
aS'103'
p2804
aa(lp2805
S'WILSON'
p2806
ag2615
aS'341'
p2807
aa(lp2808
S'WILSON'
p2809
ag2574
aS'126'
p2810
aa(lp2811
S'WILSON'
p2812
ag2605
aS'203'
p2813
aa(lp2814
S'WILSON'
p2815
ag2739
aS'212'
p2816
aa(lp2817
S'WILSON'
p2818
ag2615
aS'334'
p2819
aa(lp2820
S'WILSON'
p2821
ag2622
aS'135'
p2822
aa(lp2823
S'WILSON'
p2824
ag2739
aS'232'
p2825
aa(lp2826
S'WILSON'
p2827
ag2641
aS'114'
p2828
aa(lp2829
S'WILSON'
p2830
ag2641
aS'112'
p2831
aa(lp2832
S'WILSON'
p2833
ag2641
aS'111'
p2834
aa(lp2835
S'WILSON'
p2836
ag2622
aS'121'
p2837
aa(lp2838
S'WILSON'
p2839
ag2622
aS'111'
p2840
aa(lp2841
S'WILSON'
p2842
ag2574
aS'105'
p2843
aa(lp2844
S'WILSON'
p2845
ag2561
aS'301'
p2846
aa(lp2847
S'WILSON'
p2848
ag2641
aS'113'
p2849
aa(lp2850
S'WILSON'
p2851
ag2574
aS'123'
p2852
aa(lp2853
S'WILSON'
p2854
ag2645
aS'132'
p2855
aa(lp2856
S'WILSON'
p2857
ag2746
aS'301'
p2858
aa(lp2859
S'WILSON'
p2860
ag2746
aS'102'
p2861
aa(lp2862
S'WILSON'
p2863
ag2746
aS'402'
p2864
aa(lp2865
S'WILSON'
p2866
ag2615
aS'333'
p2867
aa(lp2868
S'WILSON'
p2869
ag2561
aS'322'
p2870
aa(lp2871
S'WILSON'
p2872
ag2561
aS'312'
p2873
aa(lp2874
S'WILSON'
p2875
ag2561
aS'305'
p2876
aa(lp2877
S'WILSON'
p2878
ag2561
aS'332'
p2879
aa(lp2880
S'WILSON'
p2881
ag2641
aS'101'
p2882
aa(lp2883
S'WILSON'
p2884
ag2615
aS'332'
p2885
aa(lp2886
S'WILSON'
p2887
ag2605
aS'204'
p2888
aa(lp2889
S'WILSON'
p2890
ag2561
aS'302'
p2891
aa(lp2892
S'WILSON'
p2893
ag2574
aS'121'
p2894
aa(lp2895
S'WILSON'
p2896
ag2641
aS'120'
p2897
aa(lp2898
S'WILSON'
p2899
ag2561
aS'303'
p2900
aa(lp2901
g2
ag56
aS'523A'
p2902
aa(lp2903
g2
ag86
aS'313'
p2904
aa(lp2905
g2
ag56
aS'522'
p2906
aa(lp2907
g2
aS'WRIGHT'
p2908
aS'306'
p2909
aa(lp2910
g2
ag56
aS'421'
p2911
aa(lp2912
g2
ag152
aS'115'
p2913
aa(lp2914
g2
ag152
aS'125'
p2915
aa(lp2916
g2
ag86
aS'T12'
p2917
aa(lp2918
g2
aS'BROWN'
p2919
aS'210'
p2920
aa(lp2921
g2
ag56
aS'502'
p2922
aa(lp2923
g2
ag51
aS'221'
p2924
aa(lp2925
g2
ag56
aS'212'
p2926
aa(lp2927
g2
aS'CUYLER'
p2928
aS'403'
p2929
aa(lp2930
g2
ag2919
aS'329'
p2931
aa(lp2932
g2
ag37
aS'413'
p2933
aa(lp2934
g2
aS'FOULKE'
p2935
aS'316'
p2936
aa(lp2937
g2
ag2935
aS'321'
p2938
aa(lp2939
g2
ag32
aS'150'
p2940
aa(lp2941
g2
ag32
aS'148'
p2942
aa(lp2943
g2
ag56
aS'402'
p2944
aa(lp2945
g2
ag37
aS'403'
p2946
aa(lp2947
S'WHITMAN'
p2948
ag522
aS'F113'
p2949
aa(lp2950
g2
ag71
aS'124'
p2951
aa(lp2952
g2
ag37
aS'401'
p2953
aa(lp2954
g2
ag56
aS'531'
p2955
aa(lp2956
g2
ag56
aS'517'
p2957
aa(lp2958
g2
ag56
aS'532'
p2959
aa(lp2960
g2
ag56
aS'528'
p2961
aa(lp2962
g2
ag2935
aS'318'
p2963
aa(lp2964
g2
ag2935
aS'317'
p2965
aa(lp2966
g2
ag51
aS'322'
p2967
aa(lp2968
g2
ag37
aS'411'
p2969
aa(lp2970
g2
ag37
aS'401S'
p2971
aa(lp2972
g2
aS'1901'
p2973
aS'411'
p2974
aa(lp2975
g2
ag2973
aS'421'
p2976
aa(lp2977
g2
ag51
aS'621'
p2978
aa(lp2979
g2
ag51
aS'623'
p2980
aa(lp2981
g2
ag2919
aS'410'
p2982
aa(lp2983
g2
ag71
aS'095'
p2984
aa(lp2985
g2
ag2919
aS'429'
p2986
aa(lp2987
g2
ag51
aS'511'
p2988
aa(lp2989
g2
ag37
aS'401N'
p2990
aa(lp2991
g2
ag51
aS'211'
p2992
aa(lp2993
g2
ag2928
aS'413'
p2994
aa(lp2995
g2
ag56
aS'241'
p2996
aa(lp2997
g2
ag32
aS'244'
p2998
aa(lp2999
g2
ag32
aS'232'
p3000
aa(lp3001
g2
ag32
aS'215'
p3002
aa(lp3003
g2
ag32
aS'213'
p3004
aa(lp3005
g2
ag32
aS'302'
p3006
aa(lp3007
g2
ag32
aS'234'
p3008
aa(lp3009
g2
ag2919
aS'225'
p3010
aa(lp3011
g2
ag37
aS'201'
p3012
aa(lp3013
g2
ag32
aS'233'
p3014
aa(lp3015
g2
ag2919
aS'214'
p3016
aa(lp3017
g2
ag32
aS'231'
p3018
aa(lp3019
g2
ag32
aS'225'
p3020
aa(lp3021
g2
ag32
aS'108'
p3022
aa(lp3023
g2
ag32
aS'235'
p3024
aa(lp3025
g2
ag56
aS'243'
p3026
aa(lp3027
g2
ag3
aS'062'
p3028
aa(lp3029
g2
ag86
aS'310'
p3030
aa(lp3031
g2
ag86
aS'307'
p3032
aa(lp3033
g2
ag2973
aS'116'
p3034
aa(lp3035
g2
ag2973
aS'115'
p3036
aa(lp3037
g2
ag152
aS'225'
p3038
aa(lp3039
g2
ag2973
aS'121'
p3040
aa(lp3041
g2
ag32
aS'414'
p3042
aa(lp3043
g2
ag56
aS'131'
p3044
aa(lp3045
g2
ag56
aS'231'
p3046
aa(lp3047
g2
ag56
aS'233'
p3048
aa(lp3049
g2
ag56
aS'132'
p3050
aa(lp3051
g2
ag32
aS'415'
p3052
aa(lp3053
g2
ag56
aS'237'
p3054
aa(lp3055
g2
ag56
aS'216'
p3056
aa(lp3057
g2
ag56
aS'112'
p3058
aa(lp3059
g2
ag37
aS'300S'
p3060
aa(lp3061
g2
ag37
aS'300N'
p3062
aa(lp3063
g2
ag51
aS'726'
p3064
aa(lp3065
g2
ag2919
aS'111'
p3066
aa(lp3067
g2
ag51
aS'721'
p3068
aa(lp3069
g2
ag56
aS'503'
p3070
aa(lp3071
g2
ag86
aS'311'
p3072
aa(lp3073
g2
ag56
aS'516'
p3074
aa(lp3075
g2
ag56
aS'511'
p3076
aa(lp3077
g2
ag37
aS'200N'
p3078
aa(lp3079
g2
ag37
aS'201S'
p3080
aa(lp3081
g2
ag51
aS'634'
p3082
aa(lp3083
g2
ag51
aS'625'
p3084
aa(lp3085
g2
ag51
aS'633'
p3086
aa(lp3087
g2
ag2973
aS'322'
p3088
aa(lp3089
g2
ag37
aS'204'
p3090
aa(lp3091
g2
ag37
aS'101N'
p3092
aa(lp3093
g2
ag56
aS'521'
p3094
aa(lp3095
g2
ag56
aS'536'
p3096
aa(lp3097
g2
ag56
aS'527'
p3098
aa(lp3099
g2
ag86
aS'075'
p3100
aa(lp3101
g2
ag86
aS'074'
p3102
aa(lp3103
g2
ag2919
aS'119'
p3104
aa(lp3105
g2
ag2973
aS'112'
p3106
aa(lp3107
g2
ag2973
aS'113'
p3108
aa(lp3109
g2
ag2973
aS'111'
p3110
aa(lp3111
g2
ag86
aS'T05'
p3112
aa(lp3113
g2
ag37
aS'205'
p3114
aa(lp3115
g2
ag37
aS'400N'
p3116
aa(lp3117
g2
ag37
aS'216'
p3118
aa(lp3119
g2
ag32
aS'333'
p3120
aa(lp3121
g2
ag32
aS'331'
p3122
aa(lp3123
g2
ag37
aS'207'
p3124
aa(lp3125
g2
ag51
aS'332'
p3126
aa(lp3127
g2
ag37
aS'206'
p3128
aa(lp3129
g2
ag32
aS'131'
p3130
aa(lp3131
g2
ag51
aS'313'
p3132
aa(lp3133
g2
ag2973
aS'404'
p3134
aa(lp3135
g2
ag51
aS'616'
p3136
aa(lp3137
g2
ag51
aS'613'
p3138
aa(lp3139
g2
ag51
aS'611'
p3140
aa(lp3141
g2
ag51
aS'615'
p3142
aa(lp3143
g2
ag51
aS'617'
p3144
aa(lp3145
g2
ag51
aS'612'
p3146
aa(lp3147
g2
ag51
aS'436'
p3148
aa(lp3149
g2
ag152
aS'217'
p3150
aa(lp3151
g2
ag152
aS'216'
p3152
aa(lp3153
g2
ag56
aS'414'
p3154
aa(lp3155
g2
ag56
aS'526'
p3156
aa(lp3157
g2
ag56
aS'524'
p3158
aa(lp3159
g2
ag37
aS'400S'
p3160
aa(lp3161
g2
ag32
aS'133'
p3162
aa(lp3163
g2
ag86
aS'087'
p3164
aa(lp3165
g2
ag152
aS'215'
p3166
aa(lp3167
g2
ag32
aS'221'
p3168
aa(lp3169
g2
ag2973
aS'431'
p3170
aa(lp3171
g2
ag2973
aS'333'
p3172
aa(lp3173
g2
ag2908
aS'301'
p3174
aa(lp3175
g2
ag2908
aS'303'
p3176
aa(lp3177
g2
ag2908
aS'406'
p3178
aa(lp3179
g2
ag2908
aS'404'
p3180
aa(lp3181
g2
ag2908
aS'402'
p3182
aa(lp3183
g2
ag2973
aS'412'
p3184
aa(lp3185
g2
aS'LAUGHLIN'
p3186
aS'513'
p3187
aa(lp3188
g2
ag2928
aS'511'
p3189
aa(lp3190
g2
ag32
aS'358'
p3191
aa(lp3192
g2
ag32
aS'356'
p3193
aa(lp3194
g2
ag32
aS'238'
p3195
aa(lp3196
g2
ag32
aS'240'
p3197
aa(lp3198
g2
ag2928
aS'521'
p3199
aa(lp3200
g2
ag2928
aS'437'
p3201
aa(lp3202
g2
ag2973
aS'132'
p3203
aa(lp3204
g2
ag51
aS'342'
p3205
aa(lp3206
g2
ag2935
aS'305'
p3207
aa(lp3208
g2
ag2928
aS'401'
p3209
aa(lp3210
g2
ag32
aS'154'
p3211
aa(lp3212
g2
ag32
aS'152'
p3213
aa(lp3214
g2
ag32
aS'308'
p3215
aa(lp3216
g2
ag51
aS'603'
p3217
aa(lp3218
g2
ag56
aS'134'
p3219
aa(lp3220
g2
ag2919
aS'118'
p3221
aa(lp3222
S'WILSON'
p3223
ag2645
aS'121'
p3224
aa(lp3225
g2
ag51
aS'213'
p3226
aa(lp3227
g2
ag51
aS'224'
p3228
aa(lp3229
g2
ag51
aS'223'
p3230
aa(lp3231
g2
ag51
aS'632'
p3232
aa(lp3233
g2
ag51
aS'624'
p3234
aa(lp3235
g2
ag51
aS'321'
p3236
aa(lp3237
g2
ag2973
aS'312'
p3238
aa(lp3239
g2
ag2973
aS'313'
p3240
aa(lp3241
g2
ag51
aS'727'
p3242
aa(lp3243
g2
ag32
aS'315'
p3244
aa(lp3245
g2
ag32
aS'313'
p3246
aa(lp3247
g2
ag32
aS'256'
p3248
aa(lp3249
g2
ag32
aS'258'
p3250
aa(lp3251
g2
ag32
aS'321'
p3252
aa(lp3253
g2
ag32
aS'355'
p3254
aa(lp3255
g2
ag56
aS'322'
p3256
aa(lp3257
g2
ag56
aS'332'
p3258
aa(lp3259
g2
ag56
aS'431'
p3260
aa(lp3261
g2
ag56
aS'333'
p3262
aa(lp3263
g2
ag152
aS'322'
p3264
aa(lp3265
g2
ag2935
aS'204'
p3266
aa(lp3267
g2
ag2935
aS'205'
p3268
aa(lp3269
g2
ag2935
aS'202'
p3270
aa(lp3271
g2
ag2935
aS'203'
p3272
aa(lp3273
g2
ag2935
aS'201'
p3274
aa(lp3275
g2
ag32
aS'323'
p3276
aa(lp3277
g2
ag2935
aS'325'
p3278
aa(lp3279
g2
ag2935
aS'315'
p3280
aa(lp3281
g2
ag2935
aS'324'
p3282
aa(lp3283
g2
ag2935
aS'314'
p3284
aa(lp3285
g2
ag2935
aS'335'
p3286
aa(lp3287
g2
ag2935
aS'334'
p3288
aa(lp3289
g2
ag51
aS'344'
p3290
aa(lp3291
g2
ag56
aS'227'
p3292
aa(lp3293
g2
ag56
aS'225'
p3294
aa(lp3295
g2
ag32
aS'140'
p3296
aa(lp3297
g2
ag56
aS'125'
p3298
aa(lp3299
g2
ag3
aS'072'
p3300
aa(lp3301
g2
ag3186
aS'523'
p3302
aa(lp3303
g2
ag86
aS'041'
p3304
aa(lp3305
g2
ag32
aS'222'
p3306
aa(lp3307
g2
ag32
aS'325'
p3308
aa(lp3309
g2
ag32
aS'327'
p3310
aa(lp3311
g2
ag2935
aS'222'
p3312
aa(lp3313
g2
ag2935
aS'214'
p3314
aa(lp3315
g2
ag2935
aS'121'
p3316
aa(lp3317
g2
ag37
aS'301N'
p3318
aa(lp3319
g2
ag56
aS'215'
p3320
aa(lp3321
g2
ag32
aS'254'
p3322
aa(lp3323
g2
ag32
aS'252'
p3324
aa(lp3325
g2
ag32
aS'350'
p3326
aa(lp3327
g2
ag32
aS'354'
p3328
aa(lp3329
g2
ag32
aS'348'
p3330
aa(lp3331
g2
ag32
aS'352'
p3332
aa(lp3333
g2
ag32
aS'436'
p3334
aa(lp3335
g2
ag32
aS'247'
p3336
aa(lp3337
g2
ag152
aS'121'
p3338
aa(lp3339
g2
ag86
aS'408'
p3340
aa(lp3341
g2
ag56
aS'221'
p3342
aa(lp3343
g2
ag51
aS'412'
p3344
aa(lp3345
g2
ag86
aS'083'
p3346
aa(lp3347
g2
ag86
aS'T08'
p3348
aa(lp3349
g2
ag56
aS'222'
p3350
aa(lp3351
g2
ag51
aS'413'
p3352
aa(lp3353
g2
ag51
aS'414'
p3354
aa(lp3355
g2
ag51
aS'411'
p3356
aa(lp3357
g2
ag37
aS'415'
p3358
aa(lp3359
g2
ag152
aS'116'
p3360
aa(lp3361
g2
ag152
aS'213'
p3362
aa(lp3363
g2
ag37
aS'405'
p3364
aa(lp3365
g2
ag37
aS'202S'
p3366
aa(lp3367
g2
ag51
aS'134'
p3368
aa(lp3369
g2
ag2973
aS'441'
p3370
aa(lp3371
g2
ag56
aS'513'
p3372
aa(lp3373
g2
ag56
aS'514'
p3374
aa(lp3375
g2
ag56
aS'143'
p3376
aa(lp3377
g2
ag56
aS'113'
p3378
aa(lp3379
g2
ag56
aS'111'
p3380
aa(lp3381
g2
ag56
aS'211'
p3382
aa(lp3383
g2
ag56
aS'512'
p3384
aa(lp3385
g2
ag56
aS'323'
p3386
aa(lp3387
g2
ag56
aS'121'
p3388
aa(lp3389
g2
ag37
aS'302S'
p3390
aa(lp3391
g2
ag56
aS'312'
p3392
aa(lp3393
g2
ag51
aS'334'
p3394
aa(lp3395
g2
ag51
aS'331'
p3396
aa(lp3397
g2
ag51
aS'312'
p3398
aa(lp3399
g2
ag51
aS'343'
p3400
aa(lp3401
g2
ag51
aS'311'
p3402
aa(lp3403
g2
ag2935
aS'333'
p3404
aa(lp3405
g2
ag2935
aS'332'
p3406
aa(lp3407
g2
ag37
aS'201N'
p3408
aa(lp3409
g2
ag37
aS'101S'
p3410
aa(lp3411
g2
ag37
aS'102S'
p3412
aa(lp3413
g2
ag2935
aS'101'
p3414
aa(lp3415
g2
ag2935
aS'102'
p3416
aa(lp3417
g2
ag2919
aS'219'
p3418
aa(lp3419
g2
ag32
aS'440'
p3420
aa(lp3421
g2
ag131
aS'212'
p3422
aa(lp3423
g2
ag51
aS'241'
p3424
aa(lp3425
g2
ag51
aS'243'
p3426
aa(lp3427
g2
ag51
aS'341'
p3428
aa(lp3429
g2
ag86
aS'T02'
p3430
aa(lp3431
g2
ag86
aS'089'
p3432
aa(lp3433
g2
ag86
aS'064'
p3434
aa(lp3435
g2
ag51
aS'144'
p3436
aa(lp3437
g2
ag86
aS'070'
p3438
aa(lp3439
g2
ag51
aS'433'
p3440
aa(lp3441
g2
ag2935
aS'313'
p3442
aa(lp3443
g2
ag51
aS'426'
p3444
aa(lp3445
g2
ag51
aS'427'
p3446
aa(lp3447
g2
ag2908
aS'401'
p3448
aa(lp3449
g2
ag131
aS'402'
p3450
aa(lp3451
g2
ag131
aS'241'
p3452
aa(lp3453
g2
ag131
aS'401'
p3454
aa(lp3455
g2
ag37
aS'301'
p3456
aa(lp3457
g2
ag32
aS'227'
p3458
aa(lp3459
g2
ag37
aS'202N'
p3460
aa(lp3461
g2
ag51
aS'714'
p3462
aa(lp3463
g2
ag37
aS'211'
p3464
aa(lp3465
g2
ag71
aS'399'
p3466
aa(lp3467
g2
ag71
aS'112'
p3468
aa(lp3469
g2
ag51
aS'214'
p3470
aa(lp3471
g2
ag2973
aS'142'
p3472
aa(lp3473
g2
ag32
aS'340'
p3474
aa(lp3475
g2
ag51
aS'425'
p3476
aa(lp3477
g2
ag51
aS'428'
p3478
aa(lp3479
g2
ag51
aS'422'
p3480
aa(lp3481
g2
ag51
aS'423'
p3482
aa(lp3483
g2
ag51
aS'421'
p3484
aa(lp3485
g2
ag86
aS'T04'
p3486
aa(lp3487
g2
ag86
aS'T07'
p3488
aa(lp3489
g2
ag86
aS'T09'
p3490
aa(lp3491
g2
ag2928
aS'404'
p3492
aa(lp3493
g2
ag51
aS'435'
p3494
aa(lp3495
g2
ag2935
aS'323'
p3496
aa(lp3497
g2
ag2935
aS'123'
p3498
aa(lp3499
g2
ag2908
aS'302'
p3500
aa(lp3501
g2
ag2973
aS'202'
p3502
aa(lp3503
g2
ag51
aS'438'
p3504
aa(lp3505
g2
ag51
aS'324'
p3506
aa(lp3507
g2
ag51
aS'325'
p3508
aa(lp3509
g2
ag56
aS'313'
p3510
aa(lp3511
g2
ag32
aS'345'
p3512
aa(lp3513
g2
ag37
aS'200'
p3514
aa(lp3515
g2
ag51
aS'424'
p3516
aa(lp3517
g2
ag51
aS'431'
p3518
aa(lp3519
g2
ag51
aS'429'
p3520
aa(lp3521
g2
ag51
aS'439'
p3522
aa(lp3523
g2
ag2973
aS'311'
p3524
aa(lp3525
g2
ag32
aS'125'
p3526
aa(lp3527
g2
ag32
aS'115'
p3528
aa(lp3529
g2
ag32
aS'127'
p3530
aa(lp3531
g2
ag32
aS'113'
p3532
aa(lp3533
g2
ag56
aS'234'
p3534
aa(lp3535
g2
ag32
aS'202'
p3536
aa(lp3537
g2
ag32
aS'102'
p3538
aa(lp3539
g2
ag56
aS'525'
p3540
aa(lp3541
g2
ag32
aS'418'
p3542
aa(lp3543
g2
ag32
aS'410'
p3544
aa(lp3545
g2
ag32
aS'428'
p3546
aa(lp3547
g2
ag32
aS'412'
p3548
aa(lp3549
g2
ag3186
aS'626'
p3550
aa(lp3551
g2
ag86
aS'T11'
p3552
aa(lp3553
g2
ag152
aS'313'
p3554
aa(lp3555
S'WILSON'
p3556
ag2615
aS'336'
p3557
aa(lp3558
g2
ag32
aS'121'
p3559
aa(lp3560
g2
ag37
aS'301S'
p3561
aa(lp3562
g2
ag32
aS'432'
p3563
aa(lp3564
g2
ag3186
aS'622'
p3565
aa(lp3566
g2
ag3186
aS'624'
p3567
aa(lp3568
g2
ag2973
aS'413'
p3569
aa(lp3570
g2
ag3186
aS'623'
p3571
aa(lp3572
g2
ag37
aS'402N'
p3573
aa(lp3574
g2
ag2973
aS'314'
p3575
aa(lp3576
g2
ag32
aS'223'
p3577
aa(lp3578
g2
ag71
aS'A46'
p3579
aa(lp3580
g2
ag71
aS'A28'
p3581
aa(lp3582
g2
ag56
aS'235'
p3583
aa(lp3584
g2
ag56
aS'224'
p3585
aa(lp3586
g2
ag56
aS'223'
p3587
aa(lp3588
g2
ag2919
aS'114'
p3589
aa(lp3590
g2
ag2908
aS'032'
p3591
aa(lp3592
g2
ag51
aS'225'
p3593
aa(lp3594
g2
ag32
aS'349'
p3595
aa(lp3596
g2
ag32
aS'347'
p3597
aa(lp3598
g2
ag56
aS'142'
p3599
aa(lp3600
g2
ag56
aS'515'
p3601
aa(lp3602
g2
ag2928
aS'421'
p3603
aa(lp3604
g2
ag56
aS'124'
p3605
aa(lp3606
g2
ag37
aS'215'
p3607
aa(lp3608
g2
ag37
aS'210'
p3609
aa(lp3610
g2
ag56
aS'126'
p3611
aa(lp3612
g2
ag56
aS'136'
p3613
aa(lp3614
g2
ag56
aS'135'
p3615
aa(lp3616
g2
ag71
aS'111'
p3617
aa(lp3618
g2
ag56
aS'114'
p3619
aa(lp3620
g2
ag71
aS'A20'
p3621
aa(lp3622
g2
ag2908
aS'010'
p3623
aa(lp3624
g2
ag2919
aS'222'
p3625
aa(lp3626
g2
ag2919
aS'221'
p3627
aa(lp3628
g2
ag37
aS'202'
p3629
aa(lp3630
g2
ag56
aS'433'
p3631
aa(lp3632
g2
ag2928
aS'438'
p3633
aa(lp3634
g2
ag56
aS'523'
p3635
aa(lp3636
g2
ag37
aS'302N'
p3637
aa(lp3638
g2
ag37
aS'300'
p3639
aa(lp3640
g2
ag37
aS'102N'
p3641
aa(lp3642
g2
ag37
aS'311'
p3643
aa(lp3644
g2
ag37
aS'314'
p3645
aa(lp3646
g2
ag152
aS'301'
p3647
aa(lp3648
g2
ag32
aS'158'
p3649
aa(lp3650
g2
ag2928
aS'432'
p3651
aa(lp3652
g2
ag37
aS'416'
p3653
aa(lp3654
g2
ag37
aS'404'
p3655
aa(lp3656
g2
ag37
aS'414'
p3657
aa(lp3658
g2
ag37
aS'402S'
p3659
aa(lp3660
g2
ag37
aS'417'
p3661
aa(lp3662
g2
ag37
aS'407'
p3663
aa(lp3664
g2
ag86
aS'308'
p3665
aa(lp3666
g2
ag56
aS'411'
p3667
aa(lp3668
g2
ag2928
aS'433'
p3669
aa(lp3670
g2
ag2928
aS'439'
p3671
aa(lp3672
g2
ag2928
aS'431'
p3673
aa(lp3674
g2
ag32
aS'371'
p3675
aa(lp3676
g2
ag32
aS'373'
p3677
aa(lp3678
g2
ag152
aS'204'
p3679
aa(lp3680
g2
ag32
aS'123'
p3681
aa(lp3682
g2
ag131
aS'413'
p3683
aa(lp3684
g2
ag56
aS'432'
p3685
aa(lp3686
g2
ag2973
aS'405'
p3687
aa(lp3688
g2
ag3186
aS'633'
p3689
aa(lp3690
g2
ag86
aS'040'
p3691
aa(lp3692
g2
ag3186
aS'627'
p3693
aa(lp3694
g2
ag32
aS'253'
p3695
aa(lp3696
g2
ag2919
aS'312'
p3697
aa(lp3698
g2
ag2919
aS'314'
p3699
aa(lp3700
g2
ag56
aS'141'
p3701
aa(lp3702
g2
ag2919
aS'321'
p3703
aa(lp3704
g2
ag2973
aS'402'
p3705
aa(lp3706
g2
ag51
aS'711'
p3707
aa(lp3708
g2
ag51
aS'713'
p3709
aa(lp3710
g2
ag51
aS'712'
p3711
aa(lp3712
g2
ag51
aS'715'
p3713
aa(lp3714
g2
ag51
aS'719'
p3715
aa(lp3716
g2
ag51
aS'731'
p3717
aa(lp3718
g2
ag51
aS'732'
p3719
aa(lp3720
g2
ag51
aS'717'
p3721
aa(lp3722
g2
ag152
aS'233'
p3723
aa(lp3724
g2
ag86
aS'309'
p3725
aa(lp3726
g2
ag152
aS'203'
p3727
aa(lp3728
g2
ag131
aS'112'
p3729
aa(lp3730
g2
ag3186
aS'615'
p3731
aa(lp3732
g2
ag131
aS'102'
p3733
aa(lp3734
g2
ag2908
aS'403'
p3735
aa(lp3736
g2
ag86
aS'T10'
p3737
aa(lp3738
g2
ag2919
aS'325'
p3739
aa(lp3740
g2
ag2919
aS'220'
p3741
aa(lp3742
g2
ag2919
aS'213'
p3743
aa(lp3744
g2
ag51
aS'123'
p3745
aa(lp3746
g2
ag2928
aS'233'
p3747
aa(lp3748
g2
ag37
aS'406'
p3749
aa(lp3750
g2
ag37
aS'213'
p3751
aa(lp3752
g2
ag131
aS'313'
p3753
aa(lp3754
g2
ag131
aS'312'
p3755
aa(lp3756
g2
ag131
aS'315'
p3757
aa(lp3758
g2
ag131
aS'411'
p3759
aa(lp3760
g2
ag2919
aS'328'
p3761
aa(lp3762
g2
ag152
aS'205'
p3763
aa(lp3764
g2
ag37
aS'316'
p3765
aa(lp3766
g2
ag2928
aS'235'
p3767
aa(lp3768
g2
ag2928
aS'236'
p3769
aa(lp3770
g2
ag2928
aS'232'
p3771
aa(lp3772
g2
ag152
aS'312'
p3773
aa(lp3774
g2
ag2928
aS'632'
p3775
aa(lp3776
g2
ag37
aS'315'
p3777
aa(lp3778
g2
ag37
aS'317'
p3779
aa(lp3780
g2
ag56
aS'244'
p3781
aa(lp3782
g2
ag152
aS'236'
p3783
aa(lp3784
g2
ag152
aS'207'
p3785
aa(lp3786
g2
ag56
aS'242'
p3787
aa(lp3788
g2
ag71
aS'141'
p3789
aa(lp3790
g2
ag56
aS'232'
p3791
aa(lp3792
g2
ag152
aS'206'
p3793
aa(lp3794
g2
ag2919
aS'319'
p3795
aa(lp3796
g2
ag32
aS'264'
p3797
aa(lp3798
g2
ag32
aS'266'
p3799
aa(lp3800
g2
ag32
aS'362'
p3801
aa(lp3802
g2
ag32
aS'268'
p3803
aa(lp3804
g2
ag152
aS'324'
p3805
aa(lp3806
g2
ag152
aS'220'
p3807
aa(lp3808
g2
ag152
aS'229'
p3809
aa(lp3810
g2
ag152
aS'214'
p3811
aa(lp3812
g2
ag152
aS'224'
p3813
aa(lp3814
g2
ag152
aS'151'
p3815
aa(lp3816
g2
ag152
aS'211'
p3817
aa(lp3818
g2
ag152
aS'202'
p3819
aa(lp3820
g2
ag2973
aS'223'
p3821
aa(lp3822
g2
ag51
aS'601'
p3823
aa(lp3824
g2
ag51
aS'722'
p3825
aa(lp3826
g2
ag51
aS'741'
p3827
aa(lp3828
g2
ag86
aS'T06'
p3829
aa(lp3830
g2
ag37
aS'304'
p3831
aa(lp3832
g2
ag51
aS'701'
p3833
aa(lp3834
g2
ag51
aS'703'
p3835
aa(lp3836
g2
ag51
aS'702'
p3837
aa(lp3838
g2
ag51
aS'705'
p3839
aa(lp3840
g2
ag152
aS'201'
p3841
aa(lp3842
g2
ag32
aS'122'
p3843
aa(lp3844
g2
ag2928
aS'112'
p3845
aa(lp3846
g2
ag32
aS'338'
p3847
aa(lp3848
g2
ag32
aS'336'
p3849
aa(lp3850
g2
ag152
aS'230'
p3851
aa(lp3852
g2
ag152
aS'136'
p3853
aa(lp3854
g2
ag152
aS'231'
p3855
aa(lp3856
g2
ag152
aS'235'
p3857
aa(lp3858
g2
ag152
aS'132'
p3859
aa(lp3860
g2
ag32
aS'134'
p3861
aa(lp3862
g2
ag32
aS'132'
p3863
aa(lp3864
g2
ag32
aS'142'
p3865
aa(lp3866
g2
ag32
aS'144'
p3867
aa(lp3868
g2
ag32
aS'138'
p3869
aa(lp3870
g2
ag32
aS'136'
p3871
aa(lp3872
S'FORBES'
p3873
ag1384
aS'A374'
p3874
aa(lp3875
g2
ag32
aS'326'
p3876
aa(lp3877
g2
ag32
aS'330'
p3878
aa(lp3879
g2
ag32
aS'328'
p3880
aa(lp3881
g2
ag32
aS'324'
p3882
aa(lp3883
g2
ag32
aS'249'
p3884
aa(lp3885
g2
ag71
aS'146'
p3886
aa(lp3887
g2
ag37
aS'312'
p3888
aa(lp3889
g2
ag32
aS'128'
p3890
aa(lp3891
g2
ag32
aS'130'
p3892
aa(lp3893
g2
ag2973
aS'114'
p3894
aa(lp3895
g2
ag2935
aS'301'
p3896
aa(lp3897
g2
ag2935
aS'302'
p3898
aa(lp3899
g2
ag2935
aS'307'
p3900
aa(lp3901
g2
ag2935
aS'306'
p3902
aa(lp3903
g2
ag2935
aS'303'
p3904
aa(lp3905
g2
ag71
aS'115'
p3906
aa(lp3907
g2
ag152
aS'218'
p3908
aa(lp3909
g2
ag152
aS'226'
p3910
aa(lp3911
g2
ag2973
aS'235'
p3912
aa(lp3913
g2
ag2973
aS'233'
p3914
aa(lp3915
g2
ag2973
aS'234'
p3916
aa(lp3917
g2
ag2919
aS'326'
p3918
aa(lp3919
g2
ag32
aS'334'
p3920
aa(lp3921
g2
ag131
aS'114'
p3922
aa(lp3923
g2
ag131
aS'242'
p3924
aa(lp3925
g2
ag131
aS'111'
p3926
aa(lp3927
g2
ag32
aS'117'
p3928
aa(lp3929
g2
ag2935
aS'341'
p3930
aa(lp3931
g2
ag32
aS'318'
p3932
aa(lp3933
g2
ag32
aS'316'
p3934
aa(lp3935
g2
ag32
aS'314'
p3936
aa(lp3937
g2
ag32
aS'270'
p3938
aa(lp3939
g2
ag2928
aS'601'
p3940
aa(lp3941
g2
ag32
aS'312'
p3942
aa(lp3943
g2
ag32
aS'420'
p3944
aa(lp3945
g2
ag152
aS'232'
p3946
aa(lp3947
g2
ag32
aS'166'
p3948
aa(lp3949
g2
ag32
aS'164'
p3950
aa(lp3951
g2
ag86
aS'080'
p3952
aa(lp3953
g2
ag51
aS'316'
p3954
aa(lp3955
g2
ag2935
aS'312'
p3956
aa(lp3957
g2
ag32
aS'360'
p3958
aa(lp3959
g2
ag51
aS'642'
p3960
aa(lp3961
g2
ag3186
aS'512'
p3962
aa(lp3963
g2
ag37
aS'306'
p3964
aa(lp3965
g2
ag86
aS'T03'
p3966
aa(lp3967
g2
ag71
aS'142'
p3968
aa(lp3969
g2
ag51
aS'222'
p3970
aa(lp3971
g2
ag3186
aS'522'
p3972
aa(lp3973
g2
ag32
aS'272'
p3974
aa(lp3975
g2
ag32
aS'353'
p3976
aa(lp3977
g2
ag51
aS'212'
p3978
aa(lp3979
g2
ag86
aS'076'
p3980
aa(lp3981
g2
ag2928
aS'122'
p3982
aa(lp3983
g2
ag86
aS'060'
p3984
aa(lp3985
g2
ag152
aS'141'
p3986
aa(lp3987
g2
ag56
aS'422'
p3988
aa(lp3989
g2
ag71
aS'123'
p3990
aa(lp3991
g2
ag2973
aS'224'
p3992
aa(lp3993
g2
ag2973
aS'301'
p3994
aa(lp3995
g2
ag2919
aS'420'
p3996
aa(lp3997
g2
ag2973
aS'214'
p3998
aa(lp3999
g2
ag2973
aS'213'
p4000
aa(lp4001
g2
ag3186
aS'621'
p4002
aa(lp4003
g2
ag2973
aS'324'
p4004
aa(lp4005
g2
ag2973
aS'225'
p4006
aa(lp4007
g2
ag2928
aS'622'
p4008
aa(lp4009
g2
ag2973
aS'226'
p4010
aa(lp4011
g2
ag2973
aS'321'
p4012
aa(lp4013
g2
ag32
aS'245'
p4014
aa(lp4015
g2
ag2908
aS'304'
p4016
aa(lp4017
g2
ag32
aS'156'
p4018
aa(lp4019
g2
ag32
aS'310'
p4020
aa(lp4021
g2
ag56
aS'534'
p4022
aa(lp4023
g2
ag37
aS'103'
p4024
aa(lp4025
g2
ag2935
aS'331'
p4026
aa(lp4027
g2
ag2935
aS'132'
p4028
aa(lp4029
g2
ag2935
aS'122'
p4030
aa(lp4031
g2
ag2935
aS'213'
p4032
aa(lp4033
g2
ag2935
aS'215'
p4034
aa(lp4035
g2
ag37
aS'310'
p4036
aa(lp4037
g2
ag71
aS'131'
p4038
aa(lp4039
g2
ag131
aS'211'
p4040
aa(lp4041
g2
ag2973
aS'335'
p4042
aa(lp4043
g2
ag32
aS'218'
p4044
aa(lp4045
g2
ag2919
aS'113'
p4046
aa(lp4047
g2
ag32
aS'217'
p4048
aa(lp4049
g2
ag32
aS'216'
p4050
aa(lp4051
g2
ag2919
aS'121'
p4052
aa(lp4053
g2
ag2973
aS'201'
p4054
aa(lp4055
g2
ag152
aS'123'
p4056
aa(lp4057
g2
ag131
aS'331'
p4058
aa(lp4059
g2
ag2973
aS'103'
p4060
aa(lp4061
g2
ag44
aS'E402'
p4062
aa(lp4063
g2
ag131
aS'412'
p4064
aa(lp4065
g2
ag131
aS'333'
p4066
aa(lp4067
g2
ag131
aS'421'
p4068
aa(lp4069
g2
ag2973
aS'126'
p4070
aa(lp4071
g2
ag37
aS'305'
p4072
aa(lp4073
g2
ag131
aS'101'
p4074
aa(lp4075
g2
ag131
aS'104'
p4076
aa(lp4077
g2
ag86
aS'062'
p4078
aa(lp4079
g2
ag37
aS'302'
p4080
aa(lp4081
g2
ag2973
aS'105'
p4082
aa(lp4083
g2
ag51
aS'315'
p4084
aa(lp4085
g2
ag51
aS'742'
p4086
aa(lp4087
g2
ag2973
aS'131'
p4088
aa(lp4089
g2
ag2919
aS'322'
p4090
aa(lp4091
g2
ag152
aS'321'
p4092
aa(lp4093
g2
ag2919
aS'123'
p4094
aa(lp4095
g2
ag71
aS'A10'
p4096
aa(lp4097
g2
ag2919
aS'125'
p4098
aa(lp4099
g2
ag37
aS'307'
p4100
aa(lp4101
g2
ag37
aS'217'
p4102
aa(lp4103
g2
ag32
aS'212'
p4104
aa(lp4105
g2
ag32
aS'214'
p4106
aa(lp4107
g2
ag2935
aS'308'
p4108
aa(lp4109
g2
ag152
aS'221'
p4110
aa(lp4111
g2
ag51
aS'716'
p4112
aa(lp4113
g2
ag2908
aS'031'
p4114
aa(lp4115
g2
ag51
aS'733'
p4116
aa(lp4117
g2
ag32
aS'201'
p4118
aa(lp4119
g2
ag32
aS'124'
p4120
aa(lp4121
g2
ag32
aS'149'
p4122
aa(lp4123
g2
ag32
aS'430'
p4124
aa(lp4125
g2
ag71
aS'122'
p4126
aa(lp4127
g2
ag56
aS'334'
p4128
aa(lp4129
g2
ag32
aS'361'
p4130
aa(lp4131
g2
ag56
aS'133'
p4132
aa(lp4133
g2
ag152
aS'133'
p4134
aa(lp4135
g2
ag3186
aS'533'
p4136
aa(lp4137
g2
ag3186
aS'614'
p4138
aa(lp4139
g2
ag2973
aS'117'
p4140
aa(lp4141
g2
ag2973
aS'232'
p4142
aa(lp4143
g2
ag2919
aS'414'
p4144
aa(lp4145
g2
ag2928
aS'623'
p4146
aa(lp4147
g2
ag152
aS'137'
p4148
aa(lp4149
g2
ag2919
aS'413'
p4150
aa(lp4151
g2
ag71
aS'121'
p4152
aa(lp4153
g2
ag71
aS'143'
p4154
aa(lp4155
g2
ag2919
aS'117'
p4156
aa(lp4157
g2
ag71
aS'134'
p4158
aa(lp4159
g2
ag2928
aS'634'
p4160
aa(lp4161
g2
ag32
aS'335'
p4162
aa(lp4163
g2
ag2919
aS'313'
p4164
aa(lp4165
g2
ag3186
aS'534'
p4166
aa(lp4167
g2
ag131
aS'325'
p4168
aa(lp4169
g2
ag3186
aS'532'
p4170
aa(lp4171
g2
ag71
aS'101'
p4172
aa(lp4173
g2
ag32
aS'438'
p4174
aa(lp4175
g2
ag71
aS'A56'
p4176
aa(lp4177
g2
ag51
aS'643'
p4178
aa(lp4179
g2
ag152
aS'222A'
p4180
aa(lp4181
g2
ag152
aS'314'
p4182
aa(lp4183
g2
ag2973
aS'223A'
p4184
aa(lp4185
g2
ag32
aS'204'
p4186
aa(lp4187
g2
ag32
aS'226'
p4188
aa(lp4189
g2
ag32
aS'434'
p4190
aa(lp4191
g2
ag32
aS'433'
p4192
aa(lp4193
g2
ag3186
aS'531'
p4194
aa(lp4195
g2
ag2973
aS'401'
p4196
aa(lp4197
g2
ag56
aS'533'
p4198
aa(lp4199
g2
ag2919
aS'126'
p4200
aa(lp4201
g2
ag2973
aS'215'
p4202
aa(lp4203
g2
ag131
aS'423'
p4204
aa(lp4205
g2
ag131
aS'332'
p4206
aa(lp4207
g2
ag2973
aS'211'
p4208
aa(lp4209
g2
ag131
aS'422'
p4210
aa(lp4211
g2
ag86
aS'072'
p4212
aa(lp4213
g2
ag86
aS'073'
p4214
aa(lp4215
g2
ag2908
aS'021'
p4216
aa(lp4217
g2
ag2919
aS'425'
p4218
aa(lp4219
g2
ag2928
aS'436'
p4220
aa(lp4221
g2
ag3186
aS'612'
p4222
aa(lp4223
g2
ag2935
aS'328'
p4224
aa(lp4225
g2
ag152
aS'134'
p4226
aa(lp4227
g2
ag86
aS'088'
p4228
aa(lp4229
g2
ag2928
aS'231'
p4230
aa(lp4231
g2
ag86
aS'061'
p4232
aa(lp4233
g2
ag32
aS'301'
p4234
aa(lp4235
g2
ag2908
aS'011'
p4236
aa(lp4237
g2
ag2919
aS'422'
p4238
aa(lp4239
g2
ag2973
aS'332'
p4240
aa(lp4241
g2
ag2928
aS'111'
p4242
aa(lp4243
g2
ag2928
aS'121'
p4244
aa(lp4245
g2
ag32
aS'442'
p4246
aa(lp4247
g2
ag32
aS'274'
p4248
aa(lp4249
g2
ag32
aS'374'
p4250
aa(lp4251
g2
ag86
aS'312'
p4252
aa(lp4253
g2
ag2928
aS'434'
p4254
aa(lp4255
g2
ag2919
aS'426'
p4256
aa(lp4257
g2
ag2919
aS'417'
p4258
aa(lp4259
g2
ag2928
aS'435'
p4260
aa(lp4261
g2
ag2919
aS'218'
p4262
aa(lp4263
g2
ag131
aS'201'
p4264
aa(lp4265
g2
ag56
aS'413'
p4266
aa(lp4267
g2
ag32
aS'104'
p4268
aa(lp4269
g2
ag32
aS'106'
p4270
aa(lp4271
g2
ag32
aS'236'
p4272
aa(lp4273
g2
ag32
aS'435'
p4274
aa(lp4275
g2
ag56
aS'321'
p4276
aa(lp4277
g2
ag32
aS'126'
p4278
aa(lp4279
g2
ag56
aS'324'
p4280
aa(lp4281
g2
ag32
aS'448'
p4282
aa(lp4283
g2
ag37
aS'303'
p4284
aa(lp4285
g2
ag51
aS'725'
p4286
aa(lp4287
g2
ag51
aS'442'
p4288
aa(lp4289
g2
ag51
aS'743'
p4290
aa(lp4291
g2
ag32
aS'322'
p4292
aa(lp4293
g2
ag32
aS'118'
p4294
aa(lp4295
g2
ag32
aS'116'
p4296
aa(lp4297
g2
ag152
aS'131'
p4298
aa(lp4299
g2
ag152
aS'234'
p4300
aa(lp4301
g2
ag51
aS'143'
p4302
aa(lp4303
g2
ag32
aS'101'
p4304
aa(lp4305
g2
ag51
aS'724'
p4306
aa(lp4307
g2
ag32
aS'242'
p4308
aa(lp4309
g2
ag152
aS'223'
p4310
aa(lp4311
g2
ag51
aS'432'
p4312
aa(lp4313
g2
ag37
aS'313'
p4314
aa(lp4315
g2
ag2908
aS'020'
p4316
aa(lp4317
g2
ag2908
aS'407'
p4318
aa(lp4319
g2
ag2928
aS'631'
p4320
aa(lp4321
g2
ag2928
aS'234'
p4322
aa(lp4323
g2
ag32
aS'422'
p4324
aa(lp4325
g2
ag32
aS'444'
p4326
aa(lp4327
g2
ag32
aS'332'
p4328
aa(lp4329
g2
ag32
aS'446'
p4330
aa(lp4331
g2
ag32
aS'110'
p4332
aa(lp4333
g2
ag32
aS'224'
p4334
aa(lp4335
g2
ag32
aS'210'
p4336
aa(lp4337
g2
ag32
aS'206'
p4338
aa(lp4339
g2
ag32
aS'416'
p4340
aa(lp4341
g2
ag32
aS'408'
p4342
aa(lp4343
g2
ag32
aS'406'
p4344
aa(lp4345
g2
ag71
aS'A40'
p4346
aa(lp4347
g2
ag152
aS'323'
p4348
aa(lp4349
g2
ag152
aS'311'
p4350
aa(lp4351
g2
ag71
aS'A38'
p4352
aa(lp4353
g2
ag2935
aS'114'
p4354
aa(lp4355
g2
ag2935
aS'329A'
p4356
aa(lp4357
g2
ag2935
aS'111'
p4358
aa(lp4359
g2
ag32
aS'403'
p4360
aa(lp4361
g2
ag32
aS'404'
p4362
aa(lp4363
g2
ag2973
aS'101'
p4364
aa(lp4365
g2
ag2973
aS'102'
p4366
aa(lp4367
g2
ag56
aS'314'
p4368
aa(lp4369
g2
ag32
aS'417'
p4370
aa(lp4371
g2
ag51
aS'630'
p4372
aa(lp4373
g2
ag2919
aS'327'
p4374
aa(lp4375
g2
ag32
aS'437'
p4376
aa(lp4377
g2
ag152
aS'331'
p4378
aa(lp4379
g2
ag152
aS'333'
p4380
aa(lp4381
g2
ag152
aS'332'
p4382
aa(lp4383
g2
ag32
aS'441'
p4384
aa(lp4385
g2
ag32
aS'439'
p4386
aa(lp4387
g2
ag32
aS'443'
p4388
aa(lp4389
g2
ag32
aS'402'
p4390
aa(lp4391
g2
ag51
aS'232'
p4392
aa(lp4393
g2
ag32
aS'445'
p4394
aa(lp4395
g2
ag51
aS'231A'
p4396
aa(lp4397
g2
ag2935
aS'329'
p4398
aa(lp4399
g2
ag2935
aS'327'
p4400
aa(lp4401
g2
ag2973
aS'119'
p4402
aa(lp4403
g2
ag51
aS'437'
p4404
aa(lp4405
g2
ag2935
aS'322'
p4406
aa(lp4407
g2
ag2935
aS'124'
p4408
aa(lp4409
g2
ag2935
aS'133'
p4410
aa(lp4411
g2
ag56
aS'401'
p4412
aa(lp4413
g2
ag32
aS'364'
p4414
aa(lp4415
g2
ag2928
aS'611'
p4416
aa(lp4417
g2
ag32
aS'413'
p4418
aa(lp4419
g2
ag2928
aS'613'
p4420
aa(lp4421
g2
ag32
aS'153'
p4422
aa(lp4423
g2
ag32
aS'407'
p4424
aa(lp4425
g2
ag2919
aS'122'
p4426
aa(lp4427
g2
ag32
aS'405'
p4428
aa(lp4429
g2
ag32
aS'368'
p4430
aa(lp4431
g2
ag32
aS'370'
p4432
aa(lp4433
g2
ag51
aS'626'
p4434
aa(lp4435
g2
ag2928
aS'414'
p4436
aa(lp4437
g2
ag152
aS'227'
p4438
aa(lp4439
g2
ag2973
aS'124'
p4440
aa(lp4441
g2
ag131
aS'431'
p4442
aa(lp4443
g2
ag32
aS'409'
p4444
aa(lp4445
g2
ag32
aS'372'
p4446
aa(lp4447
g2
ag32
aS'366'
p4448
aa(lp4449
g2
ag32
aS'401'
p4450
aa(lp4451
S'MATHEY'
p4452
ag32
aS'447'
p4453
aa(lp4454
g2
ag32
aS'147'
p4455
aa(lp4456
g2
ag2919
aS'212'
p4457
aa(lp4458
g2
ag152
aS'228'
p4459
aa(lp4460
g2
ag152
aS'122'
p4461
aa(lp4462
g2
ag2973
aS'221'
p4463
aa(lp4464
g2
ag51
aS'335'
p4465
aa(lp4466
g2
ag51
aS'728'
p4467
aa(lp4468
g2
ag51
aS'441A'
p4469
aa(lp4470
S'BUTLER'
p4471
ag51
aS'441'
p4472
aa(lp4473
g2
ag51
aS'440'
p4474
aa(lp4475
g2
ag86
aS'T01'
p4476
aa(lp4477
g2
ag86
aS'090'
p4478
aa(lp4479
g2
ag51
aS'346'
p4480
aa(lp4481
g2
ag131
aS'213'
p4482
aa(lp4483
g2
ag2973
aS'222A'
p4484
aa(lp4485
g2
ag2928
aS'612'
p4486
aa(lp4487
g2
ag86
aS'063'
p4488
aa(lp4489
g2
ag152
aS'113'
p4490
aa(lp4491
g2
ag152
aS'114'
p4492
aa(lp4493
g2
ag2973
aS'122'
p4494
aa(lp4495
g2
ag131
aS'223'
p4496
aa(lp4497
g2
ag131
aS'121'
p4498
aa(lp4499
g2
ag2935
aS'221'
p4500
aa(lp4501
g2
ag51
aS'631A'
p4502
aa(lp4503
g2
ag51
aS'631'
p4504
aa(lp4505
g2
ag51
aS'230'
p4506
aa(lp4507
g2
ag2973
aS'125'
p4508
aa(lp4509
g2
ag56
aS'226'
p4510
aa(lp4511
g2
ag152
aS'222'
p4512
aa(lp4513
g2
ag86
aS'081'
p4514
aa(lp4515
g2
ag2973
aS'203'
p4516
aa(lp4517
g2
ag2928
aS'311'
p4518
aa(lp4519
g2
ag2928
aS'312'
p4520
aa(lp4521
g2
ag71
aS'A48'
p4522
aa(lp4523
g2
ag86
aS'030'
p4524
aa(lp4525
g2
ag2928
aS'211'
p4526
aa(lp4527
g2
ag131
aS'214'
p4528
aa(lp4529
g2
ag2973
aS'331'
p4530
aa(lp4531
g2
ag2973
aS'222'
p4532
aa(lp4533
g2
ag2935
aS'304'
p4534
aa(lp4535
g2
ag56
aS'311'
p4536
aa(lp4537
g2
ag2919
aS'419'
p4538
aa(lp4539
g2
ag2919
aS'418'
p4540
aa(lp4541
g2
ag51
aS'602'
p4542
aa(lp4543
g2
ag2973
aS'118'
p4544
aa(lp4545
g2
ag2919
aS'127'
p4546
aa(lp4547
g2
ag2919
aS'128'
p4548
aa(lp4549
g2
ag56
aS'501'
p4550
aa(lp4551
g2
ag2928
aS'212'
p4552
aa(lp4553
g2
ag51
aS'641'
p4554
aa(lp4555
g2
ag2935
aS'311'
p4556
aa(lp4557
g2
ag71
aS'091'
p4558
aa(lp4559
g2
ag71
aS'093'
p4560
aa(lp4561
g2
ag2928
aS'522'
p4562
aa(lp4563
g2
ag2928
aS'321'
p4564
aa(lp4565
g2
ag2928
aS'322'
p4566
aa(lp4567
S'BUTLER'
p4568
ag735
aS'424'
p4569
aa(lp4570
g2
ag3186
aS'631'
p4571
aa(lp4572
g2
ag51
aS'141'
p4573
aa(lp4574
g2
ag2935
aS'131'
p4575
aa(lp4576
g2
ag2928
aS'621'
p4577
aa(lp4578
g2
ag32
aS'107'
p4579
aa(lp4580
g2
ag51
aS'443'
p4581
aa(lp4582
g2
ag2973
aS'104'
p4583
aa(lp4584
g2
ag2928
aS'222'
p4585
aa(lp4586
g2
ag2928
aS'221'
p4587
aa(lp4588
g2
ag3186
aS'616'
p4589
aa(lp4590
g2
ag2919
aS'112'
p4591
aa(lp4592
g2
ag131
aS'311'
p4593
aa(lp4594
g2
ag2928
aS'422'
p4595
aa(lp4596
g2
ag131
aS'234'
p4597
aa(lp4598
g2
ag2973
aS'133'
p4599
aa(lp4600
g2
ag2919
aS'318'
p4601
aa(lp4602
g2
ag51
aS'333'
p4603
aa(lp4604
g2
ag51
aS'142'
p4605
aa(lp4606
g2
ag51
aS'242'
p4607
aa(lp4608
g2
ag152
aS'112'
p4609
aa(lp4610
g2
ag152
aS'111'
p4611
aa(lp4612
g2
ag2919
aS'228'
p4613
aa(lp4614
S'BUTLER'
p4615
ag735
aS'524'
p4616
aa(lp4617
g2
ag2919
aS'227'
p4618
aa(lp4619
g2
ag2973
aS'403'
p4620
aa(lp4621
g2
ag51
aS'314'
p4622
aa(lp4623
g2
ag2928
aS'412'
p4624
aa(lp4625
g2
ag51
aS'323'
p4626
aa(lp4627
g2
ag56
aS'504'
p4628
aa(lp4629
g2
ag51
aS'614'
p4630
aa(lp4631
g2
ag51
aS'718'
p4632
aa(lp4633
g2
ag71
aS'097'
p4634
aa(lp4635
g2
ag2928
aS'402'
p4636
aa(lp4637
g2
ag131
aS'113'
p4638
aa(lp4639
g2
ag131
aS'321'
p4640
aa(lp4641
g2
ag51
aS'734'
p4642
aa(lp4643
g2
ag2919
aS'211'
p4644
aa(lp4645
g2
ag2935
aS'211'
p4646
aa(lp4647
g2
ag51
aS'704'
p4648
aa(lp4649
g2
ag51
aS'345'
p4650
aa(lp4651
g2
ag32
aS'207'
p4652
aa(lp4653
g2
ag56
aS'236'
p4654
aa(lp4655
g2
ag56
aS'213'
p4656
aa(lp4657
g2
ag2935
aS'326'
p4658
aa(lp4659
g2
ag56
aS'123'
p4660
aa(lp4661
g2
ag71
aS'105'
p4662
aa(lp4663
g2
ag3186
aS'625'
p4664
aa(lp4665
g2
ag56
aS'535'
p4666
aa(lp4667
g2
ag2919
aS'427'
p4668
aa(lp4669
S'BUTLER'
p4670
ag735
aS'523'
p4671
aa(lp4672
g2
ag152
aS'212'
p4673
aa(lp4674
g2
ag2919
aS'421'
p4675
aa(lp4676
S'BUTLER'
p4677
ag56
aS'331'
p4678
aa(lp4679
g2
ag2919
aS'412'
p4680
aa(lp4681
g2
ag2919
aS'411'
p4682
aa(lp4683
g2
ag2973
aS'212'
p4684
aa(lp4685
S'BUTLER'
p4686
ag735
aS'521'
p4687
aa(lp4688
g2
ag2973
aS'323'
p4689
aa(lp4690
g2
ag131
aS'103'
p4691
aa(lp4692
g2
ag3186
aS'511'
p4693
aa(lp4694
g2
ag3186
aS'521'
p4695
aa(lp4696
g2
ag51
aS'735'
p4697
aa(lp4698
g2
ag2928
aS'633'
p4699
aa(lp4700
g2
ag152
aS'302'
p4701
aa(lp4702
S'BUTLER'
p4703
ag735
aS'513'
p4704
aa(lp4705
g2
ag51
aS'131'
p4706
aa(lp4707
g2
ag2973
aS'141'
p4708
aa(lp4709
g2
ag2919
aS'311'
p4710
aa(lp4711
S'BUTLER'
p4712
ag735
aS'512'
p4713
aa(lp4714
g2
ag735
aS'413'
p4715
aa(lp4716
g2
ag2919
aS'428'
p4717
aa(lp4718
g2
ag2919
aS'320'
p4719
aa(lp4720
g2
ag71
aS'145'
p4721
aa(lp4722
g2
ag71
aS'103'
p4723
aa(lp4724
g2
ag71
aS'A54'
p4725
aa(lp4726
g2
ag3186
aS'617'
p4727
aa(lp4728
g2
ag131
aS'432'
p4729
aa(lp4730
g2
ag3186
aS'632'
p4731
aa(lp4732
g2
ag2973
aS'123'
p4733
aa(lp4734
g2
ag32
aS'307'
p4735
aa(lp4736
g2
ag152
aS'124'
p4737
aa(lp4738
g2
ag131
aS'232'
p4739
aa(lp4740
S'BUTLER'
p4741
ag735
aS'522'
p4742
aa(lp4743
S'BUTLER'
p4744
ag735
aS'623'
p4745
aa.