(lp0
(lp1
S'UPPERCLASS'
p2
aS'2 DICKINSON'
p3
aS'033'
p4
aa(lp5
S'UPPERCLASS'
p6
aS'SPELMAN'
p7
aS'056'
p8
aa(lp9
S'UPPERCLASS'
p10
aS'LOCKHART'
p11
aS'222'
p12
aa(lp13
S'UPPERCLASS'
p14
ag3
aS'023'
p15
aa(lp16
S'UPPERCLASS'
p17
ag7
aS'075'
p18
aa(lp19
S'UPPERCLASS'
p20
ag11
aS'224'
p21
aa(lp22
S'UPPERCLASS'
p23
ag3
aS'025'
p24
aa(lp25
S'UPPERCLASS'
p26
ag7
aS'076'
p27
aa(lp28
S'UPPERCLASS'
p29
aS'1903'
p30
aS'213'
p31
aa(lp32
S'UPPERCLASS'
p33
aS'WILF'
p34
aS'E401'
p35
aa(lp36
S'UPPERCLASS'
p37
ag3
aS'012'
p38
aa(lp39
S'UPPERCLASS'
p40
ag3
aS'010'
p41
aa(lp42
S'UPPERCLASS'
p43
ag7
aS'034'
p44
aa(lp45
S'UPPERCLASS'
p46
ag3
aS'022'
p47
aa(lp48
S'UPPERCLASS'
p49
ag7
aS'023'
p50
aa(lp51
S'UPPERCLASS'
p52
ag3
aS'011'
p53
aa(lp54
S'UPPERCLASS'
p55
ag30
aS'214'
p56
aa(lp57
S'UPPERCLASS'
p58
ag3
aS'020'
p59
aa(lp60
S'UPPERCLASS'
p61
ag3
aS'021'
p62
aa(lp63
S'UPPERCLASS'
p64
ag7
aS'014'
p65
aa(lp66
S'UPPERCLASS'
p67
ag3
aS'035'
p68
aa(lp69
S'UPPERCLASS'
p70
aS'LITTLE'
p71
aS'A36'
p72
aa(lp73
S'UPPERCLASS'
p74
ag11
aS'225'
p75
aa(lp76
S'UPPERCLASS'
p77
aS'PYNE'
p78
aS'115'
p79
aa(lp80
S'UPPERCLASS'
p81
ag7
aS'012'
p82
aa(lp83
S'UPPERCLASS'
p84
ag78
aS'133'
p85
aa(lp86
S'UPPERCLASS'
p87
aS'HENRY'
p88
aS'103'
p89
aa(lp90
S'UPPERCLASS'
p91
ag7
aS'054'
p92
aa(lp93
S'UPPERCLASS'
p94
ag7
aS'043'
p95
aa(lp96
S'UPPERCLASS'
p97
ag7
aS'024'
p98
aa(lp99
S'UPPERCLASS'
p100
ag7
aS'022'
p101
aa(lp102
S'UPPERCLASS'
p103
ag71
aS'A34'
p104
aa(lp105
S'UPPERCLASS'
p106
ag71
aS'A24'
p107
aa(lp108
S'UPPERCLASS'
p109
ag7
aS'046'
p110
aa(lp111
S'UPPERCLASS'
p112
ag7
aS'053'
p113
aa(lp114
S'UPPERCLASS'
p115
ag7
aS'063'
p116
aa(lp117
S'UPPERCLASS'
p118
ag7
aS'064'
p119
aa(lp120
S'UPPERCLASS'
p121
aS'SCULLY'
p122
aS'262'
p123
aa(lp124
S'UPPERCLASS'
p125
ag122
aS'260'
p126
aa(lp127
S'UPPERCLASS'
p128
ag122
aS'267'
p129
aa(lp130
S'UPPERCLASS'
p131
ag11
aS'235'
p132
aa(lp133
S'UPPERCLASS'
p134
ag7
aS'083'
p135
aa(lp136
S'UPPERCLASS'
p137
ag11
aS'322'
p138
aa(lp139
S'UPPERCLASS'
p140
ag7
aS'045'
p141
aa(lp142
S'UPPERCLASS'
p143
ag78
aS'114'
p144
aa(lp145
S'UPPERCLASS'
p146
ag7
aS'021'
p147
aa(lp148
S'UPPERCLASS'
p149
ag7
aS'065'
p150
aa(lp151
S'UPPERCLASS'
p152
ag7
aS'082'
p153
aa(lp154
S'UPPERCLASS'
p155
ag7
aS'036'
p156
aa(lp157
S'UPPERCLASS'
p158
ag7
aS'035'
p159
aa(lp160
S'UPPERCLASS'
p161
ag11
aS'241'
p162
aa(lp163
S'UPPERCLASS'
p164
ag7
aS'066'
p165
aa(lp166
S'UPPERCLASS'
p167
ag122
aS'168'
p168
aa(lp169
S'UPPERCLASS'
p170
aS'PATTON'
p171
aS'071'
p172
aa(lp173
S'UPPERCLASS'
p174
ag7
aS'038'
p175
aa(lp176
S'UPPERCLASS'
p177
ag7
aS'037'
p178
aa(lp179
S'UPPERCLASS'
p180
ag7
aS'084'
p181
aa(lp182
S'UPPERCLASS'
p183
ag7
aS'026'
p184
aa(lp185
S'UPPERCLASS'
p186
ag7
aS'085'
p187
aa(lp188
S'UPPERCLASS'
p189
ag7
aS'025'
p190
aa(lp191
S'UPPERCLASS'
p192
ag34
aS'E403'
p193
aa(lp194
S'UPPERCLASS'
p195
aS'DOD'
p196
aS'114'
p197
aa(lp198
S'UPPERCLASS'
p199
ag7
aS'067'
p200
aa(lp201
S'UPPERCLASS'
p202
ag196
aS'115'
p203
aa(lp204
S'UPPERCLASS'
p205
ag7
aS'052'
p206
aa(lp207
S'UPPERCLASS'
p208
ag7
aS'051'
p209
aa(lp210
S'UPPERCLASS'
p211
ag11
aS'231'
p212
aa(lp213
S'UPPERCLASS'
p214
ag11
aS'323'
p215
aa(lp216
S'UPPERCLASS'
p217
ag7
aS'048'
p218
aa(lp219
S'UPPERCLASS'
p220
ag7
aS'055'
p221
aa(lp222
S'UPPERCLASS'
p223
ag171
aS'086'
p224
aa(lp225
S'UPPERCLASS'
p226
ag7
aS'013'
p227
aa(lp228
S'UPPERCLASS'
p229
ag7
aS'081'
p230
aa(lp231
S'UPPERCLASS'
p232
ag78
aS'125'
p233
aa(lp234
S'UPPERCLASS'
p235
ag7
aS'016'
p236
aa(lp237
S'UPPERCLASS'
p238
ag88
aS'102'
p239
aa(lp240
S'UPPERCLASS'
p241
ag7
aS'032'
p242
aa(lp243
S'UPPERCLASS'
p244
ag7
aS'071'
p245
aa(lp246
S'UPPERCLASS'
p247
ag7
aS'073'
p248
aa(lp249
S'UPPERCLASS'
p250
ag196
aS'112'
p251
aa(lp252
S'UPPERCLASS'
p253
ag7
aS'047'
p254
aa(lp255
S'UPPERCLASS'
p256
ag196
aS'102N'
p257
aa(lp258
S'UPPERCLASS'
p259
ag7
aS'015'
p260
aa(lp261
S'UPPERCLASS'
p262
ag7
aS'068'
p263
aa(lp264
S'UPPERCLASS'
p265
ag122
aS'160'
p266
aa(lp267
S'UPPERCLASS'
p268
ag7
aS'017'
p269
aa(lp270
S'UPPERCLASS'
p271
ag11
aS'324'
p272
aa(lp273
S'UPPERCLASS'
p274
ag7
aS'078'
p275
aa(lp276
S'UPPERCLASS'
p277
ag7
aS'061'
p278
aa(lp279
S'UPPERCLASS'
p280
ag122
aS'265'
p281
aa(lp282
S'UPPERCLASS'
p283
ag171
aS'082'
p284
aa(lp285
S'UPPERCLASS'
p286
ag196
aS'111'
p287
aa(lp288
S'UPPERCLASS'
p289
ag7
aS'086'
p290
aa(lp291
S'UPPERCLASS'
p292
ag78
aS'116'
p293
aa(lp294
S'UPPERCLASS'
p295
ag196
aS'104'
p296
aa(lp297
S'UPPERCLASS'
p298
ag196
aS'105'
p299
aa(lp300
S'UPPERCLASS'
p301
ag7
aS'074'
p302
aa(lp303
S'UPPERCLASS'
p304
ag7
aS'018'
p305
aa(lp306
S'UPPERCLASS'
p307
ag7
aS'011'
p308
aa(lp309
S'UPPERCLASS'
p310
ag7
aS'077'
p311
aa(lp312
S'UPPERCLASS'
p313
ag122
aS'174'
p314
aa(lp315
S'UPPERCLASS'
p316
ag78
aS'122'
p317
aa(lp318
S'UPPERCLASS'
p319
ag122
aS'162'
p320
aa(lp321
S'UPPERCLASS'
p322
ag196
aS'101'
p323
aa(lp324
S'UPPERCLASS'
p325
ag11
aS'302'
p326
aa(lp327
S'UPPERCLASS'
p328
ag196
aS'103'
p329
aa(lp330
S'UPPERCLASS'
p331
ag122
aS'271'
p332
aa(lp333
S'UPPERCLASS'
p334
ag78
aS'113'
p335
aa(lp336
S'UPPERCLASS'
p337
ag11
aS'303'
p338
aa(lp339
S'UPPERCLASS'
p340
ag171
aS'080'
p341
aa(lp342
S'UPPERCLASS'
p343
ag196
aS'101S'
p344
aa(lp345
S'UPPERCLASS'
p346
ag122
aS'172'
p347
aa(lp348
S'UPPERCLASS'
p349
ag78
aS'112'
p350
aa(lp351
S'UPPERCLASS'
p352
ag196
aS'102'
p353
aa(lp354
S'UPPERCLASS'
p355
ag11
aS'233'
p356
aa(lp357
S'UPPERCLASS'
p358
ag78
aS'132'
p359
aa(lp360
S'UPPERCLASS'
p361
ag11
aS'304'
p362
aa(lp363
S'UPPERCLASS'
p364
ag196
aS'102S'
p365
aa(lp366
S'UPPERCLASS'
p367
ag71
aS'A10'
p368
aa(lp369
S'UPPERCLASS'
p370
ag122
aS'170'
p371
aa(lp372
S'UPPERCLASS'
p373
ag71
aS'A16'
p374
aa(lp375
S'UPPERCLASS'
p376
ag196
aS'106'
p377
aa(lp378
S'UPPERCLASS'
p379
ag34
aS'E402'
p380
aa(lp381
S'UPPERCLASS'
p382
ag122
aS'367'
p383
aa(lp384
S'UPPERCLASS'
p385
ag34
aS'E405'
p386
aa(lp387
S'UPPERCLASS'
p388
ag78
aS'131'
p389
aa(lp390
S'UPPERCLASS'
p391
ag71
aS'A28'
p392
aa(lp393
S'UPPERCLASS'
p394
ag78
aS'123'
p395
aa(lp396
S'MATHEY'
p397
ag71
aS'045'
p398
aa(lp399
S'WHITMAN'
p400
aS'FISHER'
p401
aS'A303'
p402
aa(lp403
S'WHITMAN'
p404
ag401
aS'A323'
p405
aa(lp406
S'BUTLER'
p407
aS'BLOOMBERG'
p408
aS'474'
p409
aa(lp410
S'MATHEY'
p411
ag71
aS'047'
p412
aa(lp413
S'MATHEY'
p414
aS'BLAIR'
p415
aS'B52'
p416
aa(lp417
S'BUTLER'
p418
aS'1976'
p419
aS'D304'
p420
aa(lp421
S'MATHEY'
p422
aS'JOLINE'
p423
aS'433'
p424
aa(lp425
S'WHITMAN'
p426
aS'WENDELL B'
p427
aS'B407'
p428
aa(lp429
S'WHITMAN'
p430
ag401
aS'A224'
p431
aa(lp432
S'BUTLER'
p433
ag408
aS'401'
p434
aa(lp435
S'WHITMAN'
p436
aS'WENDELL C'
p437
aS'C214'
p438
aa(lp439
S'BUTLER'
p440
ag419
aS'D204'
p441
aa(lp442
S'WHITMAN'
p443
ag437
aS'C216'
p444
aa(lp445
S'MATHEY'
p446
ag71
aS'062'
p447
aa(lp448
S'BUTLER'
p449
ag408
aS'357'
p450
aa(lp451
S'WHITMAN'
p452
aS'BAKER S'
p453
aS'S305'
p454
aa(lp455
S'BUTLER'
p456
ag408
aS'459'
p457
aa(lp458
S'BUTLER'
p459
ag408
aS'349'
p460
aa(lp461
S'WHITMAN'
p462
aS'1981'
p463
aS'F027'
p464
aa(lp465
S'BUTLER'
p466
ag408
aS'447'
p467
aa(lp468
S'BUTLER'
p469
ag408
aS'451'
p470
aa(lp471
S'MATHEY'
p472
ag71
aS'395'
p473
aa(lp474
S'BUTLER'
p475
ag408
aS'461'
p476
aa(lp477
S'WHITMAN'
p478
aS'BAKER E'
p479
aS'E113'
p480
aa(lp481
S'MATHEY'
p482
aS'EDWARDS'
p483
aS'415'
p484
aa(lp485
S'BUTLER'
p486
ag408
aS'369'
p487
aa(lp488
S'MATHEY'
p489
ag415
aS'B53'
p490
aa(lp491
S'WHITMAN'
p492
aS'HARGADON'
p493
aS'G203B'
p494
aa(lp495
S'WHITMAN'
p496
ag493
aS'G403'
p497
aa(lp498
S'WHITMAN'
p499
ag453
aS'S205'
p500
aa(lp501
S'BUTLER'
p502
aS'1967'
p503
aS'B305'
p504
aa(lp505
S'WHITMAN'
p506
ag493
aS'G304B'
p507
aa(lp508
S'BUTLER'
p509
ag503
aS'B309'
p510
aa(lp511
S'WHITMAN'
p512
ag401
aS'A308'
p513
aa(lp514
S'BUTLER'
p515
ag419
aS'D114'
p516
aa(lp517
S'MATHEY'
p518
ag423
aS'332'
p519
aa(lp520
S'WHITMAN'
p521
ag453
aS'S203'
p522
aa(lp523
S'WHITMAN'
p524
ag453
aS'S204'
p525
aa(lp526
S'MATHEY'
p527
ag71
aS'087'
p528
aa(lp529
S'MATHEY'
p530
ag71
aS'318'
p531
aa(lp532
S'WHITMAN'
p533
ag479
aS'E206'
p534
aa(lp535
S'BUTLER'
p536
ag408
aS'479'
p537
aa(lp538
S'WHITMAN'
p539
ag493
aS'G401'
p540
aa(lp541
S'MATHEY'
p542
ag415
aS'094'
p543
aa(lp544
S'MATHEY'
p545
ag71
aS'055'
p546
aa(lp547
S'BUTLER'
p548
ag34
aS'E103'
p549
aa(lp550
S'WHITMAN'
p551
ag493
aS'G311'
p552
aa(lp553
S'MATHEY'
p554
ag71
aS'385'
p555
aa(lp556
S'WHITMAN'
p557
ag493
aS'G309'
p558
aa(lp559
S'MATHEY'
p560
ag71
aS'303'
p561
aa(lp562
S'WHITMAN'
p563
ag453
aS'S104'
p564
aa(lp565
S'BUTLER'
p566
ag408
aS'456'
p567
aa(lp568
S'WHITMAN'
p569
ag437
aS'C215'
p570
aa(lp571
S'WHITMAN'
p572
ag493
aS'G404'
p573
aa(lp574
S'BUTLER'
p575
ag419
aS'D214'
p576
aa(lp577
S'MATHEY'
p578
ag71
aS'302'
p579
aa(lp580
S'BUTLER'
p581
ag408
aS'192'
p582
aa(lp583
S'BUTLER'
p584
ag34
aS'E105'
p585
aa(lp586
S'BUTLER'
p587
ag34
aS'E107'
p588
aa(lp589
S'BUTLER'
p590
ag34
aS'E104'
p591
aa(lp592
S'WHITMAN'
p593
ag493
aS'G207'
p594
aa(lp595
S'MATHEY'
p596
ag415
aS'B71'
p597
aa(lp598
S'WHITMAN'
p599
ag493
aS'G205'
p600
aa(lp601
S'WHITMAN'
p602
ag493
aS'G301'
p603
aa(lp604
S'MATHEY'
p605
ag483
aS'110'
p606
aa(lp607
S'BUTLER'
p608
ag34
aS'E108'
p609
aa(lp610
S'BUTLER'
p611
ag34
aS'E106'
p612
aa(lp613
S'WHITMAN'
p614
ag493
aS'G405'
p615
aa(lp616
S'WHITMAN'
p617
ag493
aS'G406'
p618
aa(lp619
S'MATHEY'
p620
aS'HAMILTON'
p621
aS'113'
p622
aa(lp623
S'WHITMAN'
p624
ag437
aS'C206'
p625
aa(lp626
S'WHITMAN'
p627
ag427
aS'B212'
p628
aa(lp629
S'WHITMAN'
p630
ag437
aS'C208'
p631
aa(lp632
S'WHITMAN'
p633
ag437
aS'C202'
p634
aa(lp635
S'WHITMAN'
p636
ag437
aS'C210'
p637
aa(lp638
S'WHITMAN'
p639
ag437
aS'C212'
p640
aa(lp641
S'WHITMAN'
p642
ag437
aS'C217'
p643
aa(lp644
S'BUTLER'
p645
ag408
aS'449'
p646
aa(lp647
S'BUTLER'
p648
aS'YOSELOFF'
p649
aS'A107'
p650
aa(lp651
S'WHITMAN'
p652
ag463
aS'F025'
p653
aa(lp654
S'BUTLER'
p655
aS'BOGLE'
p656
aS'C205'
p657
aa(lp658
S'MATHEY'
p659
ag423
aS'235'
p660
aa(lp661
S'MATHEY'
p662
ag423
aS'234'
p663
aa(lp664
S'MATHEY'
p665
ag423
aS'333'
p666
aa(lp667
S'MATHEY'
p668
ag483
aS'306'
p669
aa(lp670
S'WHITMAN'
p671
ag427
aS'B312'
p672
aa(lp673
S'WHITMAN'
p674
ag427
aS'B310'
p675
aa(lp676
S'BUTLER'
p677
ag419
aS'D316'
p678
aa(lp679
S'WHITMAN'
p680
ag493
aS'G203A'
p681
aa(lp682
S'BUTLER'
p683
ag419
aS'D314'
p684
aa(lp685
S'WHITMAN'
p686
aS'LAURITZEN'
p687
aS'D306'
p688
aa(lp689
S'WHITMAN'
p690
ag687
aS'D304'
p691
aa(lp692
S'BUTLER'
p693
ag408
aS'334'
p694
aa(lp695
S'BUTLER'
p696
ag408
aS'407'
p697
aa(lp698
S'BUTLER'
p699
ag408
aS'359'
p700
aa(lp701
S'BUTLER'
p702
ag408
aS'405'
p703
aa(lp704
S'BUTLER'
p705
ag408
aS'371'
p706
aa(lp707
S'BUTLER'
p708
ag408
aS'379'
p709
aa(lp710
S'BUTLER'
p711
ag408
aS'381'
p712
aa(lp713
S'WHITMAN'
p714
ag453
aS'S303'
p715
aa(lp716
S'WHITMAN'
p717
ag427
aS'B408'
p718
aa(lp719
S'BUTLER'
p720
ag408
aS'193'
p721
aa(lp722
S'BUTLER'
p723
ag408
aS'430'
p724
aa(lp725
S'WHITMAN'
p726
ag437
aS'C211'
p727
aa(lp728
S'WHITMAN'
p729
ag401
aS'A201'
p730
aa(lp731
S'WHITMAN'
p732
aS'MURLEY-PIVIROTTO'
p733
aS'T403'
p734
aa(lp735
S'BUTLER'
p736
ag408
aS'348'
p737
aa(lp738
S'WHITMAN'
p739
ag493
aS'G407A'
p740
aa(lp741
S'WHITMAN'
p742
ag463
aS'F102'
p743
aa(lp744
S'BUTLER'
p745
ag408
aS'124'
p746
aa(lp747
S'BUTLER'
p748
ag649
aS'A205'
p749
aa(lp750
S'BUTLER'
p751
ag649
aS'A207'
p752
aa(lp753
S'BUTLER'
p754
ag408
aS'281'
p755
aa(lp756
S'BUTLER'
p757
ag408
aS'111'
p758
aa(lp759
S'MATHEY'
p760
ag483
aS'104'
p761
aa(lp762
S'MATHEY'
p763
ag483
aS'113'
p764
aa(lp765
S'MATHEY'
p766
ag483
aS'413'
p767
aa(lp768
S'MATHEY'
p769
ag71
aS'057'
p770
aa(lp771
S'BUTLER'
p772
ag408
aS'269'
p773
aa(lp774
S'MATHEY'
p775
ag415
aS'B51'
p776
aa(lp777
S'BUTLER'
p778
ag408
aS'276'
p779
aa(lp780
S'MATHEY'
p781
ag71
aS'085'
p782
aa(lp783
S'MATHEY'
p784
ag483
aS'405'
p785
aa(lp786
S'MATHEY'
p787
ag483
aS'408'
p788
aa(lp789
S'MATHEY'
p790
ag483
aS'106'
p791
aa(lp792
S'WHITMAN'
p793
ag463
aS'F201'
p794
aa(lp795
S'BUTLER'
p796
ag503
aS'B206'
p797
aa(lp798
S'BUTLER'
p799
ag408
aS'434'
p800
aa(lp801
S'BUTLER'
p802
ag34
aS'E306'
p803
aa(lp804
S'BUTLER'
p805
ag34
aS'E308'
p806
aa(lp807
S'WHITMAN'
p808
ag463
aS'F301'
p809
aa(lp810
S'WHITMAN'
p811
ag479
aS'E308'
p812
aa(lp813
S'WHITMAN'
p814
ag463
aS'F225'
p815
aa(lp816
S'WHITMAN'
p817
ag463
aS'F227'
p818
aa(lp819
S'MATHEY'
p820
ag483
aS'314'
p821
aa(lp822
S'BUTLER'
p823
ag408
aS'402'
p824
aa(lp825
S'WHITMAN'
p826
ag493
aS'G304A'
p827
aa(lp828
S'UPPERCLASS'
p829
ag196
aS'116'
p830
aa(lp831
S'UPPERCLASS'
p832
ag196
aS'117'
p833
aa(lp834
S'BUTLER'
p835
ag408
aS'121'
p836
aa(lp837
S'MATHEY'
p838
ag483
aS'310'
p839
aa(lp840
S'MATHEY'
p841
ag483
aS'416'
p842
aa(lp843
S'BUTLER'
p844
ag419
aS'D210'
p845
aa(lp846
S'MATHEY'
p847
ag423
aS'412'
p848
aa(lp849
S'MATHEY'
p850
ag415
aS'114'
p851
aa(lp852
S'MATHEY'
p853
ag423
aS'422'
p854
aa(lp855
S'BUTLER'
p856
ag408
aS'314'
p857
aa(lp858
S'WHITMAN'
p859
ag479
aS'E412'
p860
aa(lp861
S'MATHEY'
p862
ag415
aS'B73'
p863
aa(lp864
S'MATHEY'
p865
ag71
aS'311'
p866
aa(lp867
S'MATHEY'
p868
ag415
aS'B82'
p869
aa(lp870
S'WHITMAN'
p871
ag479
aS'E414'
p872
aa(lp873
S'WHITMAN'
p874
ag463
aS'F104'
p875
aa(lp876
S'BUTLER'
p877
ag408
aS'181'
p878
aa(lp879
S'WHITMAN'
p880
ag479
aS'E105'
p881
aa(lp882
S'BUTLER'
p883
ag408
aS'301'
p884
aa(lp885
S'MATHEY'
p886
ag423
aS'311'
p887
aa(lp888
S'BUTLER'
p889
ag408
aS'346'
p890
aa(lp891
S'MATHEY'
p892
ag71
aS'083'
p893
aa(lp894
S'BUTLER'
p895
ag34
aS'E201'
p896
aa(lp897
S'WHITMAN'
p898
ag437
aS'C209'
p899
aa(lp900
S'BUTLER'
p901
ag649
aS'A105'
p902
aa(lp903
S'WHITMAN'
p904
ag479
aS'E323'
p905
aa(lp906
S'WHITMAN'
p907
ag479
aS'E120'
p908
aa(lp909
S'WHITMAN'
p910
ag479
aS'E221'
p911
aa(lp912
S'BUTLER'
p913
ag408
aS'411'
p914
aa(lp915
S'WHITMAN'
p916
ag401
aS'A318'
p917
aa(lp918
S'BUTLER'
p919
ag34
aS'E301'
p920
aa(lp921
S'MATHEY'
p922
ag71
aS'393'
p923
aa(lp924
S'BUTLER'
p925
ag34
aS'E208'
p926
aa(lp927
S'BUTLER'
p928
ag34
aS'E206'
p929
aa(lp930
S'BUTLER'
p931
ag34
aS'E303'
p932
aa(lp933
S'MATHEY'
p934
ag71
aS'323'
p935
aa(lp936
S'MATHEY'
p937
ag621
aS'221'
p938
aa(lp939
S'WHITMAN'
p940
ag401
aS'A312'
p941
aa(lp942
S'BUTLER'
p943
ag408
aS'409'
p944
aa(lp945
S'MATHEY'
p946
ag483
aS'108'
p947
aa(lp948
S'MATHEY'
p949
ag71
aS'381'
p950
aa(lp951
S'BUTLER'
p952
ag408
aS'277'
p953
aa(lp954
S'BUTLER'
p955
ag408
aS'279'
p956
aa(lp957
S'MATHEY'
p958
ag415
aS'B83'
p959
aa(lp960
S'WHITMAN'
p961
ag493
aS'G306'
p962
aa(lp963
S'WHITMAN'
p964
ag687
aS'D312'
p965
aa(lp966
S'MATHEY'
p967
ag71
aS'051'
p968
aa(lp969
S'WHITMAN'
p970
ag427
aS'B316'
p971
aa(lp972
S'MATHEY'
p973
ag415
aS'A02'
p974
aa(lp975
S'BUTLER'
p976
ag503
aS'B205'
p977
aa(lp978
S'BUTLER'
p979
ag503
aS'B208'
p980
aa(lp981
S'WHITMAN'
p982
ag687
aS'D314'
p983
aa(lp984
S'BUTLER'
p985
ag408
aS'463'
p986
aa(lp987
S'WHITMAN'
p988
ag463
aS'F017'
p989
aa(lp990
S'WHITMAN'
p991
ag401
aS'A316'
p992
aa(lp993
S'BUTLER'
p994
ag408
aS'310'
p995
aa(lp996
S'WHITMAN'
p997
ag427
aS'B317'
p998
aa(lp999
S'MATHEY'
p1000
ag71
aS'025'
p1001
aa(lp1002
S'BUTLER'
p1003
ag408
aS'436'
p1004
aa(lp1005
S'BUTLER'
p1006
ag408
aS'340'
p1007
aa(lp1008
S'WHITMAN'
p1009
ag401
aS'A101'
p1010
aa(lp1011
S'MATHEY'
p1012
ag71
aS'389'
p1013
aa(lp1014
S'BUTLER'
p1015
ag408
aS'465'
p1016
aa(lp1017
S'BUTLER'
p1018
ag408
aS'469'
p1019
aa(lp1020
S'MATHEY'
p1021
ag483
aS'409'
p1022
aa(lp1023
S'WHITMAN'
p1024
ag437
aS'C207'
p1025
aa(lp1026
S'BUTLER'
p1027
ag408
aS'471'
p1028
aa(lp1029
S'BUTLER'
p1030
ag408
aS'467'
p1031
aa(lp1032
S'BUTLER'
p1033
ag408
aS'457'
p1034
aa(lp1035
S'MATHEY'
p1036
ag483
aS'315'
p1037
aa(lp1038
S'MATHEY'
p1039
ag483
aS'407'
p1040
aa(lp1041
S'BUTLER'
p1042
ag34
aS'E203'
p1043
aa(lp1044
S'WHITMAN'
p1045
ag463
aS'F101'
p1046
aa(lp1047
S'WHITMAN'
p1048
ag437
aS'C213'
p1049
aa(lp1050
S'BUTLER'
p1051
ag408
aS'305'
p1052
aa(lp1053
S'BUTLER'
p1054
ag408
aS'307'
p1055
aa(lp1056
S'WHITMAN'
p1057
ag479
aS'E108'
p1058
aa(lp1059
S'WHITMAN'
p1060
ag401
aS'A225'
p1061
aa(lp1062
S'WHITMAN'
p1063
ag427
aS'B210'
p1064
aa(lp1065
S'BUTLER'
p1066
ag408
aS'306'
p1067
aa(lp1068
S'BUTLER'
p1069
ag408
aS'308'
p1070
aa(lp1071
S'WHITMAN'
p1072
ag463
aS'F023'
p1073
aa(lp1074
S'BUTLER'
p1075
ag408
aS'361'
p1076
aa(lp1077
S'WHITMAN'
p1078
ag687
aS'D108'
p1079
aa(lp1080
S'WHITMAN'
p1081
ag687
aS'D110'
p1082
aa(lp1083
S'MATHEY'
p1084
ag71
aS'391'
p1085
aa(lp1086
S'BUTLER'
p1087
ag656
aS'C203'
p1088
aa(lp1089
S'MATHEY'
p1090
ag483
aS'107'
p1091
aa(lp1092
S'WHITMAN'
p1093
ag479
aS'E321'
p1094
aa(lp1095
S'BUTLER'
p1096
ag419
aS'D216'
p1097
aa(lp1098
S'BUTLER'
p1099
ag408
aS'408'
p1100
aa(lp1101
S'BUTLER'
p1102
ag408
aS'404'
p1103
aa(lp1104
S'BUTLER'
p1105
ag408
aS'406'
p1106
aa(lp1107
S'BUTLER'
p1108
ag34
aS'E102'
p1109
aa(lp1110
S'WHITMAN'
p1111
ag479
aS'E317'
p1112
aa(lp1113
S'BUTLER'
p1114
ag408
aS'326'
p1115
aa(lp1116
S'MATHEY'
p1117
ag423
aS'312'
p1118
aa(lp1119
S'WHITMAN'
p1120
ag733
aS'T402'
p1121
aa(lp1122
S'WHITMAN'
p1123
ag479
aS'E212'
p1124
aa(lp1125
S'WHITMAN'
p1126
ag479
aS'E214'
p1127
aa(lp1128
S'BUTLER'
p1129
ag408
aS'445'
p1130
aa(lp1131
S'WHITMAN'
p1132
ag687
aS'D201'
p1133
aa(lp1134
S'BUTLER'
p1135
ag408
aS'316'
p1136
aa(lp1137
S'MATHEY'
p1138
ag71
aS'077'
p1139
aa(lp1140
S'WHITMAN'
p1141
ag687
aS'D206'
p1142
aa(lp1143
S'BUTLER'
p1144
ag408
aS'226'
p1145
aa(lp1146
S'BUTLER'
p1147
ag408
aS'175'
p1148
aa(lp1149
S'WHITMAN'
p1150
ag463
aS'F123'
p1151
aa(lp1152
S'BUTLER'
p1153
aS'1915'
p1154
aS'411'
p1155
aa(lp1156
S'BUTLER'
p1157
ag408
aS'177'
p1158
aa(lp1159
S'MATHEY'
p1160
ag483
aS'111'
p1161
aa(lp1162
S'WHITMAN'
p1163
ag479
aS'E109'
p1164
aa(lp1165
S'WHITMAN'
p1166
ag479
aS'E210'
p1167
aa(lp1168
S'WHITMAN'
p1169
ag479
aS'E123'
p1170
aa(lp1171
S'WHITMAN'
p1172
ag479
aS'E125'
p1173
aa(lp1174
S'MATHEY'
p1175
ag483
aS'109'
p1176
aa(lp1177
S'WHITMAN'
p1178
ag479
aS'E118'
p1179
aa(lp1180
S'BUTLER'
p1181
ag408
aS'325'
p1182
aa(lp1183
S'BUTLER'
p1184
ag408
aS'327'
p1185
aa(lp1186
S'MATHEY'
p1187
ag423
aS'225'
p1188
aa(lp1189
S'WHITMAN'
p1190
ag687
aS'D302'
p1191
aa(lp1192
S'WHITMAN'
p1193
ag479
aS'E423'
p1194
aa(lp1195
S'MATHEY'
p1196
ag483
aS'311'
p1197
aa(lp1198
S'WHITMAN'
p1199
ag687
aS'D311'
p1200
aa(lp1201
S'MATHEY'
p1202
ag483
aS'305'
p1203
aa(lp1204
S'BUTLER'
p1205
ag408
aS'336'
p1206
aa(lp1207
S'WHITMAN'
p1208
ag479
aS'E421'
p1209
aa(lp1210
S'BUTLER'
p1211
ag408
aS'342'
p1212
aa(lp1213
S'BUTLER'
p1214
ag408
aS'344'
p1215
aa(lp1216
S'WHITMAN'
p1217
ag479
aS'E223'
p1218
aa(lp1219
S'MATHEY'
p1220
aS'CAMPBELL'
p1221
aS'006B'
p1222
aa(lp1223
S'MATHEY'
p1224
ag483
aS'312'
p1225
aa(lp1226
S'BUTLER'
p1227
ag1154
aS'624'
p1228
aa(lp1229
S'MATHEY'
p1230
ag621
aS'322'
p1231
aa(lp1232
S'BUTLER'
p1233
ag408
aS'350'
p1234
aa(lp1235
S'BUTLER'
p1236
ag408
aS'341'
p1237
aa(lp1238
S'MATHEY'
p1239
ag423
aS'331'
p1240
aa(lp1241
S'WHITMAN'
p1242
ag479
aS'E213'
p1243
aa(lp1244
S'MATHEY'
p1245
ag415
aS'B81'
p1246
aa(lp1247
S'BUTLER'
p1248
ag408
aS'425'
p1249
aa(lp1250
S'BUTLER'
p1251
ag408
aS'427'
p1252
aa(lp1253
S'MATHEY'
p1254
ag71
aS'387'
p1255
aa(lp1256
S'MATHEY'
p1257
ag483
aS'301'
p1258
aa(lp1259
S'BUTLER'
p1260
ag34
aS'E202'
p1261
aa(lp1262
S'MATHEY'
p1263
ag483
aS'504'
p1264
aa(lp1265
S'MATHEY'
p1266
ag483
aS'313'
p1267
aa(lp1268
S'MATHEY'
p1269
ag483
aS'308'
p1270
aa(lp1271
S'BUTLER'
p1272
ag408
aS'443'
p1273
aa(lp1274
S'BUTLER'
p1275
ag408
aS'441'
p1276
aa(lp1277
S'MATHEY'
p1278
ag621
aS'324'
p1279
aa(lp1280
S'MATHEY'
p1281
ag71
aS'063'
p1282
aa(lp1283
S'MATHEY'
p1284
ag483
aS'406'
p1285
aa(lp1286
S'UPPERCLASS'
p1287
ag11
aS'301'
p1288
aa(lp1289
S'MATHEY'
p1290
ag483
aS'101'
p1291
aa(lp1292
S'MATHEY'
p1293
ag483
aS'411'
p1294
aa(lp1295
S'MATHEY'
p1296
ag483
aS'512'
p1297
aa(lp1298
S'MATHEY'
p1299
ag483
aS'410'
p1300
aa(lp1301
S'MATHEY'
p1302
ag483
aS'317'
p1303
aa(lp1304
S'BUTLER'
p1305
ag408
aS'324'
p1306
aa(lp1307
S'BUTLER'
p1308
ag408
aS'140'
p1309
aa(lp1310
S'BUTLER'
p1311
ag408
aS'227'
p1312
aa(lp1313
S'BUTLER'
p1314
ag408
aS'329'
p1315
aa(lp1316
S'MATHEY'
p1317
ag483
aS'117'
p1318
aa(lp1319
S'WHITMAN'
p1320
ag463
aS'F121'
p1321
aa(lp1322
S'BUTLER'
p1323
ag408
aS'322'
p1324
aa(lp1325
S'BUTLER'
p1326
ag408
aS'259'
p1327
aa(lp1328
S'WHITMAN'
p1329
ag479
aS'E207'
p1330
aa(lp1331
S'WHITMAN'
p1332
ag479
aS'E205'
p1333
aa(lp1334
S'WHITMAN'
p1335
ag463
aS'F229'
p1336
aa(lp1337
S'WHITMAN'
p1338
ag453
aS'S206'
p1339
aa(lp1340
S'MATHEY'
p1341
ag415
aS'096'
p1342
aa(lp1343
S'MATHEY'
p1344
ag415
aS'098'
p1345
aa(lp1346
S'BUTLER'
p1347
ag408
aS'481'
p1348
aa(lp1349
S'WHITMAN'
p1350
ag479
aS'E307'
p1351
aa(lp1352
S'WHITMAN'
p1353
ag479
aS'E305'
p1354
aa(lp1355
S'WHITMAN'
p1356
ag479
aS'E313'
p1357
aa(lp1358
S'WHITMAN'
p1359
ag463
aS'F015'
p1360
aa(lp1361
S'BUTLER'
p1362
ag408
aS'423'
p1363
aa(lp1364
S'BUTLER'
p1365
ag408
aS'241'
p1366
aa(lp1367
S'WHITMAN'
p1368
ag479
aS'E320'
p1369
aa(lp1370
S'BUTLER'
p1371
ag419
aS'D112'
p1372
aa(lp1373
S'WHITMAN'
p1374
ag479
aS'E310'
p1375
aa(lp1376
S'MATHEY'
p1377
ag483
aS'319'
p1378
aa(lp1379
S'WHITMAN'
p1380
ag479
aS'E312'
p1381
aa(lp1382
S'WHITMAN'
p1383
ag479
aS'E318'
p1384
aa(lp1385
S'MATHEY'
p1386
ag483
aS'513'
p1387
aa(lp1388
S'MATHEY'
p1389
ag483
aS'502'
p1390
aa(lp1391
S'MATHEY'
p1392
ag483
aS'501'
p1393
aa(lp1394
S'MATHEY'
p1395
ag483
aS'511'
p1396
aa(lp1397
S'WHITMAN'
p1398
ag463
aS'F026'
p1399
aa(lp1400
S'MATHEY'
p1401
ag483
aS'503'
p1402
aa(lp1403
S'WHITMAN'
p1404
ag463
aS'F024'
p1405
aa(lp1406
S'BUTLER'
p1407
ag408
aS'376'
p1408
aa(lp1409
S'BUTLER'
p1410
ag408
aS'303'
p1411
aa(lp1412
S'WHITMAN'
p1413
ag463
aS'F018'
p1414
aa(lp1415
S'WHITMAN'
p1416
ag463
aS'F016'
p1417
aa(lp1418
S'BUTLER'
p1419
ag408
aS'373'
p1420
aa(lp1421
S'BUTLER'
p1422
ag408
aS'374'
p1423
aa(lp1424
S'BUTLER'
p1425
ag408
aS'318'
p1426
aa(lp1427
S'WHITMAN'
p1428
ag463
aS'F107'
p1429
aa(lp1430
S'MATHEY'
p1431
ag71
aS'074'
p1432
aa(lp1433
S'MATHEY'
p1434
ag483
aS'506'
p1435
aa(lp1436
S'MATHEY'
p1437
ag483
aS'508'
p1438
aa(lp1439
S'WHITMAN'
p1440
ag453
aS'S106'
p1441
aa(lp1442
S'MATHEY'
p1443
ag71
aS'301'
p1444
aa(lp1445
S'BUTLER'
p1446
ag408
aS'320'
p1447
aa(lp1448
S'WHITMAN'
p1449
ag453
aS'S405'
p1450
aa(lp1451
S'BUTLER'
p1452
ag408
aS'191'
p1453
aa(lp1454
S'MATHEY'
p1455
ag71
aS'401'
p1456
aa(lp1457
S'BUTLER'
p1458
ag408
aS'270'
p1459
aa(lp1460
S'WHITMAN'
p1461
ag687
aS'D109'
p1462
aa(lp1463
S'BUTLER'
p1464
ag408
aS'278'
p1465
aa(lp1466
S'WHITMAN'
p1467
ag687
aS'D114'
p1468
aa(lp1469
S'WHITMAN'
p1470
ag479
aS'E215'
p1471
aa(lp1472
S'WHITMAN'
p1473
ag479
aS'E217'
p1474
aa(lp1475
S'WHITMAN'
p1476
ag453
aS'S403'
p1477
aa(lp1478
S'BUTLER'
p1479
ag419
aS'D212'
p1480
aa(lp1481
S'BUTLER'
p1482
ag408
aS'132'
p1483
aa(lp1484
S'WHITMAN'
p1485
ag427
aS'B313'
p1486
aa(lp1487
S'MATHEY'
p1488
ag71
aS'073'
p1489
aa(lp1490
S'WHITMAN'
p1491
ag493
aS'G402'
p1492
aa(lp1493
S'WHITMAN'
p1494
ag479
aS'E315'
p1495
aa(lp1496
S'MATHEY'
p1497
ag71
aS'048'
p1498
aa(lp1499
S'BUTLER'
p1500
ag34
aS'E305'
p1501
aa(lp1502
S'WHITMAN'
p1503
ag401
aS'A302'
p1504
aa(lp1505
S'BUTLER'
p1506
ag34
aS'E302'
p1507
aa(lp1508
S'MATHEY'
p1509
ag483
aS'507'
p1510
aa(lp1511
S'WHITMAN'
p1512
ag401
aS'A305'
p1513
aa(lp1514
S'WHITMAN'
p1515
ag427
aS'B204'
p1516
aa(lp1517
S'MATHEY'
p1518
ag423
aS'214'
p1519
aa(lp1520
S'MATHEY'
p1521
ag423
aS'213'
p1522
aa(lp1523
S'MATHEY'
p1524
ag423
aS'334'
p1525
aa(lp1526
S'MATHEY'
p1527
ag71
aS'305'
p1528
aa(lp1529
S'WHITMAN'
p1530
ag453
aS'S406'
p1531
aa(lp1532
S'WHITMAN'
p1533
ag427
aS'B205'
p1534
aa(lp1535
S'WHITMAN'
p1536
ag453
aS'S404'
p1537
aa(lp1538
S'MATHEY'
p1539
ag71
aS'012'
p1540
aa(lp1541
S'WHITMAN'
p1542
ag427
aS'B311'
p1543
aa(lp1544
S'WHITMAN'
p1545
ag493
aS'G407B'
p1546
aa(lp1547
S'WHITMAN'
p1548
ag463
aS'F114'
p1549
aa(lp1550
S'WHITMAN'
p1551
ag687
aS'D303'
p1552
aa(lp1553
S'BUTLER'
p1554
ag408
aS'274'
p1555
aa(lp1556
S'MATHEY'
p1557
ag483
aS'505'
p1558
aa(lp1559
S'BUTLER'
p1560
ag649
aS'A202'
p1561
aa(lp1562
S'BUTLER'
p1563
ag649
aS'A203'
p1564
aa(lp1565
S'WHITMAN'
p1566
ag401
aS'A321'
p1567
aa(lp1568
S'WHITMAN'
p1569
ag479
aS'E314'
p1570
aa(lp1571
S'MATHEY'
p1572
ag483
aS'514'
p1573
aa(lp1574
S'WHITMAN'
p1575
ag479
aS'E306'
p1576
aa(lp1577
S'MATHEY'
p1578
ag483
aS'515'
p1579
aa(lp1580
S'MATHEY'
p1581
ag483
aS'302'
p1582
aa(lp1583
S'MATHEY'
p1584
ag483
aS'304'
p1585
aa(lp1586
S'MATHEY'
p1587
ag483
aS'509'
p1588
aa(lp1589
S'BUTLER'
p1590
ag408
aS'323'
p1591
aa(lp1592
S'BUTLER'
p1593
ag408
aS'182'
p1594
aa(lp1595
S'MATHEY'
p1596
ag71
aS'327'
p1597
aa(lp1598
S'WHITMAN'
p1599
ag479
aS'E107'
p1600
aa(lp1601
S'MATHEY'
p1602
ag71
aS'325'
p1603
aa(lp1604
S'MATHEY'
p1605
ag71
aS'321'
p1606
aa(lp1607
S'MATHEY'
p1608
ag71
aS'329'
p1609
aa(lp1610
S'WHITMAN'
p1611
ag733
aS'T302'
p1612
aa(lp1613
S'BUTLER'
p1614
ag34
aS'E205'
p1615
aa(lp1616
S'BUTLER'
p1617
ag408
aS'378'
p1618
aa(lp1619
S'MATHEY'
p1620
ag483
aS'510'
p1621
aa(lp1622
S'MATHEY'
p1623
ag71
aS'071'
p1624
aa(lp1625
S'MATHEY'
p1626
ag483
aS'303'
p1627
aa(lp1628
S'MATHEY'
p1629
ag71
aS'307'
p1630
aa(lp1631
S'MATHEY'
p1632
ag71
aS'309'
p1633
aa(lp1634
S'BUTLER'
p1635
ag649
aS'A213'
p1636
aa(lp1637
S'WHITMAN'
p1638
ag687
aS'D107'
p1639
aa(lp1640
S'BUTLER'
p1641
ag408
aS'429'
p1642
aa(lp1643
S'BUTLER'
p1644
ag408
aS'439'
p1645
aa(lp1646
S'BUTLER'
p1647
ag408
aS'410'
p1648
aa(lp1649
S'BUTLER'
p1650
ag408
aS'356'
p1651
aa(lp1652
S'WHITMAN'
p1653
ag453
aS'S202'
p1654
aa(lp1655
S'MATHEY'
p1656
ag415
aS'B92'
p1657
aa(lp1658
S'WHITMAN'
p1659
ag401
aS'A301'
p1660
aa(lp1661
S'MATHEY'
p1662
ag415
aS'097'
p1663
aa(lp1664
S'WHITMAN'
p1665
ag463
aS'F007'
p1666
aa(lp1667
S'BUTLER'
p1668
ag408
aS'458'
p1669
aa(lp1670
S'WHITMAN'
p1671
ag479
aS'E208'
p1672
aa(lp1673
S'MATHEY'
p1674
ag483
aS'116'
p1675
aa(lp1676
S'MATHEY'
p1677
ag483
aS'417'
p1678
aa(lp1679
S'BUTLER'
p1680
ag503
aS'B313'
p1681
aa(lp1682
S'MATHEY'
p1683
ag483
aS'114'
p1684
aa(lp1685
S'BUTLER'
p1686
ag503
aS'B304'
p1687
aa(lp1688
S'MATHEY'
p1689
ag415
aS'102'
p1690
aa(lp1691
S'WHITMAN'
p1692
ag479
aS'E316'
p1693
aa(lp1694
S'BUTLER'
p1695
ag408
aS'476'
p1696
aa(lp1697
S'BUTLER'
p1698
ag408
aS'454'
p1699
aa(lp1700
S'MATHEY'
p1701
ag621
aS'124'
p1702
aa(lp1703
S'WHITMAN'
p1704
ag733
aS'T304'
p1705
aa(lp1706
S'BUTLER'
p1707
ag1154
aS'412'
p1708
aa(lp1709
S'BUTLER'
p1710
ag649
aS'A208'
p1711
aa(lp1712
S'BUTLER'
p1713
ag1154
aS'524'
p1714
aa(lp1715
S'MATHEY'
p1716
ag621
aS'325'
p1717
aa(lp1718
S'BUTLER'
p1719
ag1154
aS'615'
p1720
aa(lp1721
S'WHITMAN'
p1722
ag427
aS'B318'
p1723
aa(lp1724
S'BUTLER'
p1725
ag408
aS'478'
p1726
aa(lp1727
S'MATHEY'
p1728
ag415
aS'B91'
p1729
aa(lp1730
S'MATHEY'
p1731
ag415
aS'B72'
p1732
aa(lp1733
S'WHITMAN'
p1734
ag453
aS'S102'
p1735
aa(lp1736
S'WHITMAN'
p1737
ag427
aS'B218'
p1738
aa(lp1739
S'MATHEY'
p1740
ag1221
aS'052'
p1741
aa(lp1742
S'MATHEY'
p1743
ag415
aS'095'
p1744
aa(lp1745
S'BUTLER'
p1746
ag503
aS'B214'
p1747
aa(lp1748
S'WHITMAN'
p1749
ag687
aS'D105'
p1750
aa(lp1751
S'MATHEY'
p1752
ag483
aS'103'
p1753
aa(lp1754
S'MATHEY'
p1755
ag423
aS'233'
p1756
aa(lp1757
S'BUTLER'
p1758
ag656
aS'C202'
p1759
aa(lp1760
S'WHITMAN'
p1761
ag687
aS'D112'
p1762
aa(lp1763
S'BUTLER'
p1764
ag419
aS'D312'
p1765
aa(lp1766
S'MATHEY'
p1767
ag71
aS'013'
p1768
aa(lp1769
S'MATHEY'
p1770
ag415
aS'082'
p1771
aa(lp1772
S'MATHEY'
p1773
ag415
aS'093'
p1774
aa(lp1775
S'MATHEY'
p1776
ag483
aS'102'
p1777
aa(lp1778
S'MATHEY'
p1779
ag483
aS'112'
p1780
aa(lp1781
S'BUTLER'
p1782
ag503
aS'B204'
p1783
aa(lp1784
S'BUTLER'
p1785
ag503
aS'B202'
p1786
aa(lp1787
S'MATHEY'
p1788
ag415
aS'B41'
p1789
aa(lp1790
S'MATHEY'
p1791
ag415
aS'062'
p1792
aa(lp1793
S'MATHEY'
p1794
ag1221
aS'006A'
p1795
aa(lp1796
S'BUTLER'
p1797
ag656
aS'C104'
p1798
aa(lp1799
S'WHITMAN'
p1800
ag427
aS'B309'
p1801
aa(lp1802
S'BUTLER'
p1803
ag1154
aS'511'
p1804
aa(lp1805
S'MATHEY'
p1806
ag1221
aS'005B'
p1807
aa(lp1808
S'MATHEY'
p1809
ag1221
aS'052B'
p1810
aa(lp1811
S'BUTLER'
p1812
ag503
aS'B211'
p1813
aa(lp1814
S'MATHEY'
p1815
ag423
aS'231'
p1816
aa(lp1817
S'MATHEY'
p1818
ag415
aS'302'
p1819
aa(lp1820
S'WHITMAN'
p1821
ag427
aS'B320'
p1822
aa(lp1823
S'BUTLER'
p1824
ag1154
aS'521'
p1825
aa(lp1826
S'BUTLER'
p1827
ag1154
aS'522'
p1828
aa(lp1829
S'BUTLER'
p1830
ag1154
aS'422'
p1831
aa(lp1832
S'MATHEY'
p1833
ag1221
aS'063'
p1834
aa(lp1835
S'MATHEY'
p1836
ag1221
aS'065'
p1837
aa(lp1838
S'MATHEY'
p1839
ag71
aS'015'
p1840
aa(lp1841
S'BUTLER'
p1842
ag419
aS'D306'
p1843
aa(lp1844
S'WHITMAN'
p1845
ag463
aS'F116'
p1846
aa(lp1847
S'WHITMAN'
p1848
ag479
aS'E218'
p1849
aa(lp1850
S'MATHEY'
p1851
ag71
aS'313'
p1852
aa(lp1853
S'WHITMAN'
p1854
ag479
aS'E211'
p1855
aa(lp1856
S'BUTLER'
p1857
ag408
aS'131'
p1858
aa(lp1859
S'MATHEY'
p1860
ag415
aS'083'
p1861
aa(lp1862
S'MATHEY'
p1863
ag415
aS'081'
p1864
aa(lp1865
S'BUTLER'
p1866
ag1154
aS'611'
p1867
aa(lp1868
S'BUTLER'
p1869
ag1154
aS'621'
p1870
aa(lp1871
S'BUTLER'
p1872
ag1154
aS'625'
p1873
aa(lp1874
S'BUTLER'
p1875
ag1154
aS'514'
p1876
aa(lp1877
S'MATHEY'
p1878
ag415
aS'301'
p1879
aa(lp1880
S'BUTLER'
p1881
ag503
aS'B212'
p1882
aa(lp1883
S'BUTLER'
p1884
ag1154
aS'425'
p1885
aa(lp1886
S'BUTLER'
p1887
ag1154
aS'424'
p1888
aa(lp1889
S'MATHEY'
p1890
ag483
aS'115'
p1891
aa(lp1892
S'MATHEY'
p1893
ag415
aS'045'
p1894
aa(lp1895
S'MATHEY'
p1896
ag71
aS'033'
p1897
aa(lp1898
S'WHITMAN'
p1899
ag463
aS'F105'
p1900
aa(lp1901
S'MATHEY'
p1902
ag71
aS'031'
p1903
aa(lp1904
S'WHITMAN'
p1905
ag427
aS'B315'
p1906
aa(lp1907
S'BUTLER'
p1908
ag503
aS'B213'
p1909
aa(lp1910
S'BUTLER'
p1911
ag1154
aS'421'
p1912
aa(lp1913
S'BUTLER'
p1914
ag408
aS'473'
p1915
aa(lp1916
S'MATHEY'
p1917
ag415
aS'061'
p1918
aa(lp1919
S'WHITMAN'
p1920
ag453
aS'S402'
p1921
aa(lp1922
S'MATHEY'
p1923
ag415
aS'091'
p1924
aa(lp1925
S'BUTLER'
p1926
ag656
aS'C102'
p1927
aa(lp1928
S'BUTLER'
p1929
ag649
aS'A115'
p1930
aa(lp1931
S'MATHEY'
p1932
ag1221
aS'061'
p1933
aa(lp1934
S'WHITMAN'
p1935
ag463
aS'F113'
p1936
aa(lp1937
S'BUTLER'
p1938
ag656
aS'C204'
p1939
aa(lp1940
S'WHITMAN'
p1941
ag427
aS'B314'
p1942
aa(lp1943
S'MATHEY'
p1944
ag1221
aS'062'
p1945
aa(lp1946
S'MATHEY'
p1947
ag71
aS'053'
p1948
aa(lp1949
S'BUTLER'
p1950
ag1154
aS'415'
p1951
aa(lp1952
S'MATHEY'
p1953
ag415
aS'051'
p1954
aa(lp1955
S'MATHEY'
p1956
ag415
aS'065'
p1957
aa(lp1958
S'BUTLER'
p1959
ag649
aS'A113'
p1960
aa(lp1961
S'BUTLER'
p1962
ag1154
aS'413'
p1963
aa(lp1964
S'BUTLER'
p1965
ag1154
aS'414'
p1966
aa(lp1967
S'BUTLER'
p1968
ag1154
aS'423'
p1969
aa(lp1970
S'MATHEY'
p1971
ag415
aS'084'
p1972
aa(lp1973
S'MATHEY'
p1974
ag71
aS'081'
p1975
aa(lp1976
S'MATHEY'
p1977
ag415
aS'B61'
p1978
aa(lp1979
S'MATHEY'
p1980
ag415
aS'B62'
p1981
aa(lp1982
S'MATHEY'
p1983
ag1221
aS'005A'
p1984
aa(lp1985
S'MATHEY'
p1986
ag423
aS'321'
p1987
aa(lp1988
S'WHITMAN'
p1989
ag453
aS'S302'
p1990
aa(lp1991
S'MATHEY'
p1992
ag415
aS'B42'
p1993
aa(lp1994
S'MATHEY'
p1995
ag423
aS'313'
p1996
aa(lp1997
S'MATHEY'
p1998
ag423
aS'323'
p1999
aa(lp2000
S'WHITMAN'
p2001
ag479
aS'E319'
p2002
aa(lp2003
S'WHITMAN'
p2004
ag463
aS'F103'
p2005
aa(lp2006
S'WHITMAN'
p2007
ag463
aS'F117'
p2008
aa(lp2009
S'WHITMAN'
p2010
ag687
aS'D307'
p2011
aa(lp2012
S'FORBES'
p2013
aS'FORBES MAIN INN'
p2014
aS'112'
p2015
aa(lp2016
S'ROCKEFELLER'
p2017
aS'WITHERSPOON'
p2018
aS'416'
p2019
aa(lp2020
S'WILSON'
p2021
aS'1927'
p2022
aS'122'
p2023
aa(lp2024
S'ROCKEFELLER'
p2025
ag2018
aS'422'
p2026
aa(lp2027
S'ROCKEFELLER'
p2028
ag2018
aS'417'
p2029
aa(lp2030
S'FORBES'
p2031
ag2014
aS'326'
p2032
aa(lp2033
S'FORBES'
p2034
ag2014
aS'308'
p2035
aa(lp2036
S'FORBES'
p2037
ag2014
aS'327'
p2038
aa(lp2039
S'FORBES'
p2040
ag2014
aS'165'
p2041
aa(lp2042
S'WILSON'
p2043
aS'WALKER'
p2044
aS'327'
p2045
aa(lp2046
S'WILSON'
p2047
ag2044
aS'325'
p2048
aa(lp2049
S'WILSON'
p2050
ag2044
aS'324'
p2051
aa(lp2052
S'WILSON'
p2053
ag2044
aS'313'
p2054
aa(lp2055
S'WILSON'
p2056
ag2044
aS'319'
p2057
aa(lp2058
S'ROCKEFELLER'
p2059
ag2018
aS'517'
p2060
aa(lp2061
S'ROCKEFELLER'
p2062
ag2018
aS'317'
p2063
aa(lp2064
S'WILSON'
p2065
ag2044
aS'314'
p2066
aa(lp2067
S'WILSON'
p2068
ag2044
aS'132'
p2069
aa(lp2070
S'FORBES'
p2071
ag2014
aS'306'
p2072
aa(lp2073
S'FORBES'
p2074
ag2014
aS'320'
p2075
aa(lp2076
S'WILSON'
p2077
ag2044
aS'232'
p2078
aa(lp2079
S'FORBES'
p2080
ag2014
aS'319'
p2081
aa(lp2082
S'FORBES'
p2083
ag2014
aS'328'
p2084
aa(lp2085
S'FORBES'
p2086
ag2014
aS'329'
p2087
aa(lp2088
S'FORBES'
p2089
ag2014
aS'307'
p2090
aa(lp2091
S'FORBES'
p2092
ag2014
aS'322'
p2093
aa(lp2094
S'FORBES'
p2095
ag2014
aS'323'
p2096
aa(lp2097
S'WILSON'
p2098
ag2044
aS'331'
p2099
aa(lp2100
S'ROCKEFELLER'
p2101
aS'HOLDER'
p2102
aS'126'
p2103
aa(lp2104
S'WILSON'
p2105
ag2044
aS'305'
p2106
aa(lp2107
S'FORBES'
p2108
ag2014
aS'255'
p2109
aa(lp2110
S'FORBES'
p2111
ag2014
aS'251'
p2112
aa(lp2113
S'WILSON'
p2114
aS'CLAPP'
p2115
aS'232'
p2116
aa(lp2117
S'FORBES'
p2118
ag2014
aS'254'
p2119
aa(lp2120
S'ROCKEFELLER'
p2121
ag2102
aS'012'
p2122
aa(lp2123
S'ROCKEFELLER'
p2124
ag2018
aS'403'
p2125
aa(lp2126
S'WILSON'
p2127
ag2044
aS'214'
p2128
aa(lp2129
S'WILSON'
p2130
ag2044
aS'304'
p2131
aa(lp2132
S'FORBES'
p2133
ag2014
aS'304'
p2134
aa(lp2135
S'ROCKEFELLER'
p2136
ag2018
aS'414'
p2137
aa(lp2138
S'FORBES'
p2139
ag2014
aS'106'
p2140
aa(lp2141
S'ROCKEFELLER'
p2142
ag2018
aS'412'
p2143
aa(lp2144
S'ROCKEFELLER'
p2145
ag2018
aS'408'
p2146
aa(lp2147
S'FORBES'
p2148
ag2014
aS'155'
p2149
aa(lp2150
S'ROCKEFELLER'
p2151
ag2102
aS'116'
p2152
aa(lp2153
S'FORBES'
p2154
aS'FORBES ADDITION'
p2155
aS'A158'
p2156
aa(lp2157
S'WILSON'
p2158
ag2044
aS'303'
p2159
aa(lp2160
S'FORBES'
p2161
ag2155
aS'A126'
p2162
aa(lp2163
S'FORBES'
p2164
ag2014
aS'219'
p2165
aa(lp2166
S'WILSON'
p2167
ag2022
aS'132'
p2168
aa(lp2169
S'FORBES'
p2170
ag2014
aS'220'
p2171
aa(lp2172
S'ROCKEFELLER'
p2173
ag2018
aS'121'
p2174
aa(lp2175
S'FORBES'
p2176
ag2014
aS'221'
p2177
aa(lp2178
S'FORBES'
p2179
ag2155
aS'A258'
p2180
aa(lp2181
S'ROCKEFELLER'
p2182
ag2018
aS'222'
p2183
aa(lp2184
S'ROCKEFELLER'
p2185
ag2018
aS'216'
p2186
aa(lp2187
S'ROCKEFELLER'
p2188
ag2018
aS'217'
p2189
aa(lp2190
S'WILSON'
p2191
ag2044
aS'123'
p2192
aa(lp2193
S'FORBES'
p2194
ag2014
aS'154'
p2195
aa(lp2196
S'WILSON'
p2197
aS'1939'
p2198
aS'115'
p2199
aa(lp2200
S'WILSON'
p2201
ag2198
aS'232'
p2202
aa(lp2203
S'FORBES'
p2204
ag2014
aS'151'
p2205
aa(lp2206
S'ROCKEFELLER'
p2207
ag2102
aS'074'
p2208
aa(lp2209
S'WILSON'
p2210
aS'DODGE OSBORN'
p2211
aS'121'
p2212
aa(lp2213
S'FORBES'
p2214
ag2014
aS'152'
p2215
aa(lp2216
S'FORBES'
p2217
ag2014
aS'153'
p2218
aa(lp2219
S'ROCKEFELLER'
p2220
ag2018
aS'203'
p2221
aa(lp2222
S'ROCKEFELLER'
p2223
ag2018
aS'516'
p2224
aa(lp2225
S'FORBES'
p2226
ag2155
aS'A268'
p2227
aa(lp2228
S'FORBES'
p2229
ag2155
aS'A270'
p2230
aa(lp2231
S'FORBES'
p2232
ag2014
aS'301'
p2233
aa(lp2234
S'ROCKEFELLER'
p2235
ag2018
aS'221'
p2236
aa(lp2237
S'FORBES'
p2238
ag2155
aS'A255'
p2239
aa(lp2240
S'WILSON'
p2241
ag2044
aS'223'
p2242
aa(lp2243
S'WILSON'
p2244
ag2044
aS'124'
p2245
aa(lp2246
S'ROCKEFELLER'
p2247
ag2018
aS'215'
p2248
aa(lp2249
S'FORBES'
p2250
ag2155
aS'A135'
p2251
aa(lp2252
S'WILSON'
p2253
ag2044
aS'213'
p2254
aa(lp2255
S'ROCKEFELLER'
p2256
ag2018
aS'321'
p2257
aa(lp2258
S'WILSON'
p2259
ag2044
aS'302'
p2260
aa(lp2261
S'FORBES'
p2262
ag2014
aS'321'
p2263
aa(lp2264
S'WILSON'
p2265
ag2022
aS'131'
p2266
aa(lp2267
S'ROCKEFELLER'
p2268
ag2018
aS'303'
p2269
aa(lp2270
S'FORBES'
p2271
ag2155
aS'A136'
p2272
aa(lp2273
S'FORBES'
p2274
ag2155
aS'A133'
p2275
aa(lp2276
S'FORBES'
p2277
ag2155
aS'A134'
p2278
aa(lp2279
S'FORBES'
p2280
ag2155
aS'A257'
p2281
aa(lp2282
S'FORBES'
p2283
ag2155
aS'A261'
p2284
aa(lp2285
S'FORBES'
p2286
ag2155
aS'A259'
p2287
aa(lp2288
S'FORBES'
p2289
ag2155
aS'A256'
p2290
aa(lp2291
S'ROCKEFELLER'
p2292
ag2102
aS'088'
p2293
aa(lp2294
S'FORBES'
p2295
ag2155
aS'A263'
p2296
aa(lp2297
S'FORBES'
p2298
ag2155
aS'A260'
p2299
aa(lp2300
S'ROCKEFELLER'
p2301
ag2102
aS'057'
p2302
aa(lp2303
S'ROCKEFELLER'
p2304
ag2102
aS'115'
p2305
aa(lp2306
S'FORBES'
p2307
ag2155
aS'A266'
p2308
aa(lp2309
S'WILSON'
p2310
ag2198
aS'337'
p2311
aa(lp2312
S'FORBES'
p2313
ag2155
aS'A254'
p2314
aa(lp2315
S'WILSON'
p2316
ag2211
aS'212'
p2317
aa(lp2318
S'ROCKEFELLER'
p2319
ag2102
aS'076'
p2320
aa(lp2321
S'ROCKEFELLER'
p2322
ag2102
aS'068'
p2323
aa(lp2324
S'WILSON'
p2325
aS'1937'
p2326
aS'122'
p2327
aa(lp2328
S'WILSON'
p2329
ag2326
aS'123'
p2330
aa(lp2331
S'FORBES'
p2332
ag2155
aS'A250'
p2333
aa(lp2334
S'FORBES'
p2335
ag2155
aS'A147'
p2336
aa(lp2337
S'ROCKEFELLER'
p2338
aS'BUYERS'
p2339
aS'024'
p2340
aa(lp2341
S'FORBES'
p2342
ag2155
aS'A155'
p2343
aa(lp2344
S'ROCKEFELLER'
p2345
ag2339
aS'034'
p2346
aa(lp2347
S'FORBES'
p2348
ag2155
aS'A154'
p2349
aa(lp2350
S'FORBES'
p2351
ag2014
aS'252'
p2352
aa(lp2353
S'WILSON'
p2354
aS'GAUSS'
p2355
aS'117'
p2356
aa(lp2357
S'WILSON'
p2358
ag2044
aS'231'
p2359
aa(lp2360
S'WILSON'
p2361
ag2326
aS'216'
p2362
aa(lp2363
S'FORBES'
p2364
ag2014
aS'253'
p2365
aa(lp2366
S'WILSON'
p2367
ag2326
aS'201'
p2368
aa(lp2369
S'ROCKEFELLER'
p2370
ag2018
aS'521'
p2371
aa(lp2372
S'ROCKEFELLER'
p2373
ag2018
aS'510'
p2374
aa(lp2375
S'ROCKEFELLER'
p2376
ag2018
aS'421'
p2377
aa(lp2378
S'ROCKEFELLER'
p2379
ag1221
aS'013'
p2380
aa(lp2381
S'ROCKEFELLER'
p2382
ag1221
aS'004B'
p2383
aa(lp2384
S'FORBES'
p2385
ag2014
aS'217'
p2386
aa(lp2387
S'FORBES'
p2388
ag2014
aS'218'
p2389
aa(lp2390
S'FORBES'
p2391
ag2014
aS'237'
p2392
aa(lp2393
S'FORBES'
p2394
ag2014
aS'235'
p2395
aa(lp2396
S'WILSON'
p2397
ag2198
aS'120'
p2398
aa(lp2399
S'ROCKEFELLER'
p2400
ag2018
aS'208'
p2401
aa(lp2402
S'ROCKEFELLER'
p2403
ag2102
aS'079'
p2404
aa(lp2405
S'ROCKEFELLER'
p2406
ag2102
aS'078'
p2407
aa(lp2408
S'ROCKEFELLER'
p2409
ag2018
aS'508'
p2410
aa(lp2411
S'WILSON'
p2412
aS'FEINBERG'
p2413
aS'401'
p2414
aa(lp2415
S'ROCKEFELLER'
p2416
ag2018
aS'503'
p2417
aa(lp2418
S'WILSON'
p2419
ag2044
aS'220'
p2420
aa(lp2421
S'ROCKEFELLER'
p2422
ag2018
aS'506'
p2423
aa(lp2424
S'FORBES'
p2425
ag2155
aS'A240'
p2426
aa(lp2427
S'FORBES'
p2428
ag2014
aS'264'
p2429
aa(lp2430
S'WILSON'
p2431
ag2413
aS'402'
p2432
aa(lp2433
S'FORBES'
p2434
ag2155
aS'A248'
p2435
aa(lp2436
S'ROCKEFELLER'
p2437
ag2018
aS'117'
p2438
aa(lp2439
S'FORBES'
p2440
ag2014
aS'156'
p2441
aa(lp2442
S'WILSON'
p2443
ag2413
aS'301'
p2444
aa(lp2445
S'ROCKEFELLER'
p2446
ag2102
aS'142'
p2447
aa(lp2448
S'FORBES'
p2449
ag2155
aS'A242'
p2450
aa(lp2451
S'FORBES'
p2452
ag2155
aS'A245'
p2453
aa(lp2454
S'FORBES'
p2455
ag2155
aS'A246'
p2456
aa(lp2457
S'FORBES'
p2458
ag2155
aS'A244'
p2459
aa(lp2460
S'FORBES'
p2461
ag2155
aS'A247'
p2462
aa(lp2463
S'FORBES'
p2464
ag2155
aS'A249'
p2465
aa(lp2466
S'ROCKEFELLER'
p2467
ag2018
aS'310'
p2468
aa(lp2469
S'ROCKEFELLER'
p2470
ag2018
aS'308'
p2471
aa(lp2472
S'ROCKEFELLER'
p2473
ag2018
aS'312'
p2474
aa(lp2475
S'FORBES'
p2476
ag2014
aS'324'
p2477
aa(lp2478
S'ROCKEFELLER'
p2479
ag2018
aS'306'
p2480
aa(lp2481
S'WILSON'
p2482
ag2211
aS'226'
p2483
aa(lp2484
S'WILSON'
p2485
ag2211
aS'227'
p2486
aa(lp2487
S'WILSON'
p2488
ag2115
aS'201'
p2489
aa(lp2490
S'WILSON'
p2491
ag2044
aS'301'
p2492
aa(lp2493
S'ROCKEFELLER'
p2494
ag2102
aS'046'
p2495
aa(lp2496
S'FORBES'
p2497
ag2155
aS'A252'
p2498
aa(lp2499
S'FORBES'
p2500
ag2155
aS'A157'
p2501
aa(lp2502
S'ROCKEFELLER'
p2503
ag2018
aS'401'
p2504
aa(lp2505
S'WILSON'
p2506
aS'1938'
p2507
aS'215'
p2508
aa(lp2509
S'FORBES'
p2510
ag2155
aS'A156'
p2511
aa(lp2512
S'FORBES'
p2513
ag2155
aS'A142'
p2514
aa(lp2515
S'FORBES'
p2516
ag2155
aS'A152'
p2517
aa(lp2518
S'WILSON'
p2519
ag2326
aS'232'
p2520
aa(lp2521
S'FORBES'
p2522
ag2155
aS'A144'
p2523
aa(lp2524
S'ROCKEFELLER'
p2525
ag2102
aS'066'
p2526
aa(lp2527
S'ROCKEFELLER'
p2528
ag2102
aS'063'
p2529
aa(lp2530
S'FORBES'
p2531
ag2155
aS'A146'
p2532
aa(lp2533
S'WILSON'
p2534
ag2507
aS'225'
p2535
aa(lp2536
S'FORBES'
p2537
ag2155
aS'A148'
p2538
aa(lp2539
S'WILSON'
p2540
ag2115
aS'202'
p2541
aa(lp2542
S'FORBES'
p2543
ag2155
aS'A150'
p2544
aa(lp2545
S'FORBES'
p2546
ag2014
aS'261'
p2547
aa(lp2548
S'FORBES'
p2549
ag2155
aS'A145'
p2550
aa(lp2551
S'FORBES'
p2552
ag2155
aS'A149'
p2553
aa(lp2554
S'ROCKEFELLER'
p2555
ag2018
aS'006'
p2556
aa(lp2557
S'WILSON'
p2558
ag2211
aS'116'
p2559
aa(lp2560
S'ROCKEFELLER'
p2561
ag2102
aS'085'
p2562
aa(lp2563
S'FORBES'
p2564
ag2014
aS'268'
p2565
aa(lp2566
S'FORBES'
p2567
ag2014
aS'267'
p2568
aa(lp2569
S'WILSON'
p2570
ag2507
aS'112'
p2571
aa(lp2572
S'FORBES'
p2573
ag2014
aS'210'
p2574
aa(lp2575
S'WILSON'
p2576
ag2198
aS'126'
p2577
aa(lp2578
S'ROCKEFELLER'
p2579
ag2102
aS'067'
p2580
aa(lp2581
S'ROCKEFELLER'
p2582
ag2018
aS'012'
p2583
aa(lp2584
S'ROCKEFELLER'
p2585
ag2102
aS'047'
p2586
aa(lp2587
S'WILSON'
p2588
ag2198
aS'222'
p2589
aa(lp2590
S'FORBES'
p2591
ag2014
aS'263'
p2592
aa(lp2593
S'WILSON'
p2594
ag2507
aS'214'
p2595
aa(lp2596
S'ROCKEFELLER'
p2597
ag2339
aS'033'
p2598
aa(lp2599
S'WILSON'
p2600
ag2022
aS'112'
p2601
aa(lp2602
S'WILSON'
p2603
ag2355
aS'116'
p2604
aa(lp2605
S'WILSON'
p2606
ag2507
aS'212'
p2607
aa(lp2608
S'WILSON'
p2609
ag2507
aS'211'
p2610
aa(lp2611
S'ROCKEFELLER'
p2612
ag2018
aS'210'
p2613
aa(lp2614
S'FORBES'
p2615
ag2014
aS'367'
p2616
aa(lp2617
S'FORBES'
p2618
ag2014
aS'262'
p2619
aa(lp2620
S'FORBES'
p2621
ag2014
aS'373'
p2622
aa(lp2623
S'ROCKEFELLER'
p2624
ag2018
aS'405'
p2625
aa(lp2626
S'FORBES'
p2627
ag2155
aS'A237'
p2628
aa(lp2629
S'ROCKEFELLER'
p2630
ag2018
aS'201'
p2631
aa(lp2632
S'FORBES'
p2633
ag2155
aS'A125'
p2634
aa(lp2635
S'FORBES'
p2636
ag2155
aS'A316'
p2637
aa(lp2638
S'ROCKEFELLER'
p2639
ag2018
aS'415'
p2640
aa(lp2641
S'FORBES'
p2642
ag2014
aS'266'
p2643
aa(lp2644
S'ROCKEFELLER'
p2645
ag2102
aS'027'
p2646
aa(lp2647
S'FORBES'
p2648
ag2014
aS'234'
p2649
aa(lp2650
S'WILSON'
p2651
ag2326
aS'204'
p2652
aa(lp2653
S'ROCKEFELLER'
p2654
ag2339
aS'017'
p2655
aa(lp2656
S'WILSON'
p2657
ag2326
aS'206'
p2658
aa(lp2659
S'FORBES'
p2660
ag2014
aS'239'
p2661
aa(lp2662
S'WILSON'
p2663
ag2355
aS'130'
p2664
aa(lp2665
S'FORBES'
p2666
ag2014
aS'211'
p2667
aa(lp2668
S'ROCKEFELLER'
p2669
ag2102
aS'056'
p2670
aa(lp2671
S'FORBES'
p2672
ag2014
aS'206'
p2673
aa(lp2674
S'WILSON'
p2675
ag2211
aS'201'
p2676
aa(lp2677
S'WILSON'
p2678
ag2211
aS'203'
p2679
aa(lp2680
S'WILSON'
p2681
ag2211
aS'202'
p2682
aa(lp2683
S'ROCKEFELLER'
p2684
ag2102
aS'136'
p2685
aa(lp2686
S'WILSON'
p2687
ag2211
aS'122'
p2688
aa(lp2689
S'WILSON'
p2690
ag2507
aS'222'
p2691
aa(lp2692
S'WILSON'
p2693
ag2326
aS'226'
p2694
aa(lp2695
S'ROCKEFELLER'
p2696
ag2339
aS'B13'
p2697
aa(lp2698
S'WILSON'
p2699
ag2326
aS'202'
p2700
aa(lp2701
S'ROCKEFELLER'
p2702
ag2339
aS'B21'
p2703
aa(lp2704
S'FORBES'
p2705
ag2155
aS'A265'
p2706
aa(lp2707
S'WILSON'
p2708
ag2413
aS'102'
p2709
aa(lp2710
S'ROCKEFELLER'
p2711
ag2102
aS'025'
p2712
aa(lp2713
S'ROCKEFELLER'
p2714
ag2102
aS'107'
p2715
aa(lp2716
S'WILSON'
p2717
ag2198
aS'331'
p2718
aa(lp2719
S'FORBES'
p2720
ag2155
aS'A231'
p2721
aa(lp2722
S'WILSON'
p2723
ag2326
aS'104'
p2724
aa(lp2725
S'WILSON'
p2726
ag2326
aS'205'
p2727
aa(lp2728
S'WILSON'
p2729
ag2326
aS'103'
p2730
aa(lp2731
S'WILSON'
p2732
ag2326
aS'225'
p2733
aa(lp2734
S'ROCKEFELLER'
p2735
ag2018
aS'305'
p2736
aa(lp2737
S'ROCKEFELLER'
p2738
ag2018
aS'316'
p2739
aa(lp2740
S'ROCKEFELLER'
p2741
ag2018
aS'214'
p2742
aa(lp2743
S'ROCKEFELLER'
p2744
ag1221
aS'021'
p2745
aa(lp2746
S'FORBES'
p2747
ag2014
aS'103'
p2748
aa(lp2749
S'ROCKEFELLER'
p2750
ag2102
aS'061'
p2751
aa(lp2752
S'FORBES'
p2753
ag2014
aS'107'
p2754
aa(lp2755
S'WILSON'
p2756
ag2198
aS'335'
p2757
aa(lp2758
S'WILSON'
p2759
ag2044
aS'332'
p2760
aa(lp2761
S'ROCKEFELLER'
p2762
ag2018
aS'102'
p2763
aa(lp2764
S'FORBES'
p2765
ag2014
aS'207'
p2766
aa(lp2767
S'FORBES'
p2768
ag2014
aS'111'
p2769
aa(lp2770
S'FORBES'
p2771
ag2155
aS'A377'
p2772
aa(lp2773
S'FORBES'
p2774
ag2014
aS'203'
p2775
aa(lp2776
S'WILSON'
p2777
ag2211
aS'211'
p2778
aa(lp2779
S'ROCKEFELLER'
p2780
ag2102
aS'097'
p2781
aa(lp2782
S'FORBES'
p2783
ag2014
aS'110'
p2784
aa(lp2785
S'ROCKEFELLER'
p2786
ag2102
aS'081'
p2787
aa(lp2788
S'ROCKEFELLER'
p2789
ag2102
aS'073'
p2790
aa(lp2791
S'FORBES'
p2792
ag2155
aS'A437'
p2793
aa(lp2794
S'ROCKEFELLER'
p2795
ag2018
aS'014'
p2796
aa(lp2797
S'ROCKEFELLER'
p2798
ag2018
aS'206'
p2799
aa(lp2800
S'ROCKEFELLER'
p2801
ag2102
aS'095'
p2802
aa(lp2803
S'WILSON'
p2804
ag2507
aS'235'
p2805
aa(lp2806
S'ROCKEFELLER'
p2807
ag2339
aS'032'
p2808
aa(lp2809
S'FORBES'
p2810
ag2014
aS'208'
p2811
aa(lp2812
S'WILSON'
p2813
ag2507
aS'234'
p2814
aa(lp2815
S'FORBES'
p2816
ag2155
aS'A431'
p2817
aa(lp2818
S'WILSON'
p2819
ag2507
aS'233'
p2820
aa(lp2821
S'FORBES'
p2822
ag2155
aS'A327'
p2823
aa(lp2824
S'WILSON'
p2825
ag2355
aS'101'
p2826
aa(lp2827
S'FORBES'
p2828
ag2155
aS'A131'
p2829
aa(lp2830
S'ROCKEFELLER'
p2831
ag1221
aS'026'
p2832
aa(lp2833
S'FORBES'
p2834
ag2014
aS'209'
p2835
aa(lp2836
S'FORBES'
p2837
ag2155
aS'A371'
p2838
aa(lp2839
S'FORBES'
p2840
ag2155
aS'A331'
p2841
aa(lp2842
S'WILSON'
p2843
ag2198
aS'343'
p2844
aa(lp2845
S'FORBES'
p2846
ag2155
aS'A427'
p2847
aa(lp2848
S'FORBES'
p2849
ag2014
aS'109'
p2850
aa(lp2851
S'WILSON'
p2852
ag2198
aS'342'
p2853
aa(lp2854
S'ROCKEFELLER'
p2855
ag2102
aS'092'
p2856
aa(lp2857
S'WILSON'
p2858
ag2198
aS'340'
p2859
aa(lp2860
S'WILSON'
p2861
ag2198
aS'341'
p2862
aa(lp2863
S'WILSON'
p2864
ag2198
aS'339'
p2865
aa(lp2866
S'ROCKEFELLER'
p2867
ag2102
aS'042'
p2868
aa(lp2869
S'WILSON'
p2870
ag2326
aS'105'
p2871
aa(lp2872
S'FORBES'
p2873
ag2155
aS'A138'
p2874
aa(lp2875
S'WILSON'
p2876
ag2326
aS'203'
p2877
aa(lp2878
S'ROCKEFELLER'
p2879
ag1221
aS'003C'
p2880
aa(lp2881
S'WILSON'
p2882
ag2022
aS'111'
p2883
aa(lp2884
S'ROCKEFELLER'
p2885
ag1221
aS'014'
p2886
aa(lp2887
S'WILSON'
p2888
ag2115
aS'212'
p2889
aa(lp2890
S'FORBES'
p2891
ag2155
aS'A132'
p2892
aa(lp2893
S'ROCKEFELLER'
p2894
ag2102
aS'022'
p2895
aa(lp2896
S'FORBES'
p2897
ag2155
aS'A234'
p2898
aa(lp2899
S'FORBES'
p2900
ag2014
aS'303'
p2901
aa(lp2902
S'FORBES'
p2903
ag2155
aS'A323'
p2904
aa(lp2905
S'ROCKEFELLER'
p2906
ag2102
aS'062'
p2907
aa(lp2908
S'WILSON'
p2909
ag2355
aS'114'
p2910
aa(lp2911
S'ROCKEFELLER'
p2912
ag2102
aS'143'
p2913
aa(lp2914
S'ROCKEFELLER'
p2915
ag2102
aS'024'
p2916
aa(lp2917
S'WILSON'
p2918
ag2022
aS'135'
p2919
aa(lp2920
S'WILSON'
p2921
ag2507
aS'121'
p2922
aa(lp2923
S'ROCKEFELLER'
p2924
ag2339
aS'018'
p2925
aa(lp2926
S'ROCKEFELLER'
p2927
ag2339
aS'B22'
p2928
aa(lp2929
S'ROCKEFELLER'
p2930
ag2339
aS'B23'
p2931
aa(lp2932
S'ROCKEFELLER'
p2933
ag1221
aS'003A'
p2934
aa(lp2935
S'FORBES'
p2936
ag2155
aS'A434'
p2937
aa(lp2938
S'FORBES'
p2939
ag2155
aS'A232'
p2940
aa(lp2941
S'FORBES'
p2942
ag2155
aS'A432'
p2943
aa(lp2944
S'FORBES'
p2945
ag2155
aS'A436'
p2946
aa(lp2947
S'ROCKEFELLER'
p2948
ag2339
aS'016'
p2949
aa(lp2950
S'WILSON'
p2951
ag2355
aS'134'
p2952
aa(lp2953
S'FORBES'
p2954
ag2155
aS'A438'
p2955
aa(lp2956
S'FORBES'
p2957
ag2155
aS'A238'
p2958
aa(lp2959
S'FORBES'
p2960
ag2155
aS'A236'
p2961
aa(lp2962
S'ROCKEFELLER'
p2963
ag1221
aS'022'
p2964
aa(lp2965
S'ROCKEFELLER'
p2966
ag1221
aS'003B'
p2967
aa(lp2968
S'FORBES'
p2969
ag2014
aS'108'
p2970
aa(lp2971
S'WILSON'
p2972
ag2507
aS'213'
p2973
aa(lp2974
S'WILSON'
p2975
ag2507
aS'113'
p2976
aa(lp2977
S'ROCKEFELLER'
p2978
ag1221
aS'028'
p2979
aa(lp2980
S'WILSON'
p2981
ag2326
aS'131'
p2982
aa(lp2983
S'ROCKEFELLER'
p2984
ag2102
aS'086'
p2985
aa(lp2986
S'ROCKEFELLER'
p2987
ag2102
aS'041'
p2988
aa(lp2989
S'FORBES'
p2990
ag2155
aS'A428'
p2991
aa(lp2992
S'FORBES'
p2993
ag2155
aS'A372'
p2994
aa(lp2995
S'FORBES'
p2996
ag2155
aS'A137'
p2997
aa(lp2998
S'FORBES'
p2999
ag2155
aS'A332'
p3000
aa(lp3001
S'FORBES'
p3002
ag2155
aS'A338'
p3003
aa(lp3004
S'FORBES'
p3005
ag2155
aS'A336'
p3006
aa(lp3007
S'WILSON'
p3008
ag2355
aS'120'
p3009
aa(lp3010
S'WILSON'
p3011
ag2198
aS'338'
p3012
aa(lp3013
S'WILSON'
p3014
ag2022
aS'121'
p3015
aa(lp3016
S'WILSON'
p3017
ag2211
aS'204'
p3018
aa(lp3019
S'FORBES'
p3020
ag2155
aS'A334'
p3021
aa(lp3022
S'ROCKEFELLER'
p3023
ag2102
aS'096'
p3024
aa(lp3025
S'FORBES'
p3026
ag2155
aS'A328'
p3027
aa(lp3028
S'ROCKEFELLER'
p3029
ag2102
aS'111'
p3030
aa(lp3031
S'FORBES'
p3032
ag2155
aS'A378'
p3033
aa(lp3034
S'WILSON'
p3035
ag2044
aS'312'
p3036
aa(lp3037
S'WILSON'
p3038
ag2044
aS'311'
p3039
aa(lp3040
S'ROCKEFELLER'
p3041
ag2102
aS'112'
p3042
aa(lp3043
S'ROCKEFELLER'
p3044
ag2102
aS'026'
p3045
aa(lp3046
S'WILSON'
p3047
ag2507
aS'132'
p3048
aa(lp3049
S'ROCKEFELLER'
p3050
ag2018
aS'409'
p3051
aa(lp3052
S'WILSON'
p3053
ag2198
aS'333'
p3054
aa(lp3055
S'ROCKEFELLER'
p3056
ag2102
aS'051'
p3057
aa(lp3058
S'WILSON'
p3059
ag2326
aS'233'
p3060
aa(lp3061
S'WILSON'
p3062
ag2044
aS'221'
p3063
aa(lp3064
S'ROCKEFELLER'
p3065
ag2018
aS'211'
p3066
aa(lp3067
S'WILSON'
p3068
ag2198
aS'334'
p3069
aa(lp3070
S'WILSON'
p3071
ag2198
aS'332'
p3072
aa(lp3073
S'ROCKEFELLER'
p3074
ag2018
aS'209'
p3075
aa(lp3076
S'ROCKEFELLER'
p3077
ag2102
aS'037'
p3078
aa(lp3079
S'WILSON'
p3080
ag2326
aS'213'
p3081
aa(lp3082
S'ROCKEFELLER'
p3083
ag2018
aS'205'
p3084
aa(lp3085
S'UPPERCLASS'
p3086
ag78
aS'221'
p3087
aa(lp3088
S'UPPERCLASS'
p3089
ag196
aS'401'
p3090
aa(lp3091
S'UPPERCLASS'
p3092
ag171
aS'T12'
p3093
aa(lp3094
S'UPPERCLASS'
p3095
ag171
aS'313'
p3096
aa(lp3097
S'UPPERCLASS'
p3098
ag171
aS'T08'
p3099
aa(lp3100
S'UPPERCLASS'
p3101
ag30
aS'331'
p3102
aa(lp3103
S'UPPERCLASS'
p3104
ag30
aS'502'
p3105
aa(lp3106
S'UPPERCLASS'
p3107
ag30
aS'523A'
p3108
aa(lp3109
S'UPPERCLASS'
p3110
ag30
aS'535'
p3111
aa(lp3112
S'UPPERCLASS'
p3113
ag30
aS'522'
p3114
aa(lp3115
S'UPPERCLASS'
p3116
ag196
aS'403'
p3117
aa(lp3118
S'UPPERCLASS'
p3119
ag30
aS'243'
p3120
aa(lp3121
S'UPPERCLASS'
p3122
ag30
aS'421'
p3123
aa(lp3124
S'UPPERCLASS'
p3125
ag30
aS'517'
p3126
aa(lp3127
S'UPPERCLASS'
p3128
ag88
aS'206'
p3129
aa(lp3130
S'UPPERCLASS'
p3131
ag88
aS'218'
p3132
aa(lp3133
S'UPPERCLASS'
p3134
ag88
aS'205'
p3135
aa(lp3136
S'UPPERCLASS'
p3137
ag88
aS'204'
p3138
aa(lp3139
S'UPPERCLASS'
p3140
ag88
aS'203'
p3141
aa(lp3142
S'UPPERCLASS'
p3143
ag88
aS'216'
p3144
aa(lp3145
S'UPPERCLASS'
p3146
ag88
aS'207'
p3147
aa(lp3148
S'UPPERCLASS'
p3149
ag122
aS'235'
p3150
aa(lp3151
S'UPPERCLASS'
p3152
aS'1901'
p3153
aS'322'
p3154
aa(lp3155
S'UPPERCLASS'
p3156
ag3153
aS'324'
p3157
aa(lp3158
S'UPPERCLASS'
p3159
ag30
aS'241'
p3160
aa(lp3161
S'UPPERCLASS'
p3162
aS'BROWN'
p3163
aS'410'
p3164
aa(lp3165
S'UPPERCLASS'
p3166
ag30
aS'528'
p3167
aa(lp3168
S'UPPERCLASS'
p3169
ag30
aS'527'
p3170
aa(lp3171
S'UPPERCLASS'
p3172
ag30
aS'526'
p3173
aa(lp3174
S'UPPERCLASS'
p3175
ag196
aS'213'
p3176
aa(lp3177
S'UPPERCLASS'
p3178
ag71
aS'124'
p3179
aa(lp3180
S'UPPERCLASS'
p3181
ag3153
aS'412'
p3182
aa(lp3183
S'UPPERCLASS'
p3184
ag3153
aS'441'
p3185
aa(lp3186
S'UPPERCLASS'
p3187
ag3153
aS'411'
p3188
aa(lp3189
S'UPPERCLASS'
p3190
ag88
aS'225'
p3191
aa(lp3192
S'UPPERCLASS'
p3193
ag30
aS'532'
p3194
aa(lp3195
S'UPPERCLASS'
p3196
ag30
aS'536'
p3197
aa(lp3198
S'UPPERCLASS'
p3199
ag30
aS'531'
p3200
aa(lp3201
S'UPPERCLASS'
p3202
ag30
aS'524'
p3203
aa(lp3204
S'UPPERCLASS'
p3205
ag30
aS'516'
p3206
aa(lp3207
S'UPPERCLASS'
p3208
ag30
aS'521'
p3209
aa(lp3210
S'UPPERCLASS'
p3211
ag30
aS'402'
p3212
aa(lp3213
S'UPPERCLASS'
p3214
ag3163
aS'329'
p3215
aa(lp3216
S'UPPERCLASS'
p3217
ag196
aS'200S'
p3218
aa(lp3219
S'UPPERCLASS'
p3220
ag196
aS'411'
p3221
aa(lp3222
S'UPPERCLASS'
p3223
ag3163
aS'210'
p3224
aa(lp3225
S'UPPERCLASS'
p3226
ag30
aS'112'
p3227
aa(lp3228
S'UPPERCLASS'
p3229
aS'WRIGHT'
p3230
aS'011'
p3231
aa(lp3232
S'UPPERCLASS'
p3233
ag122
aS'245'
p3234
aa(lp3235
S'UPPERCLASS'
p3236
ag122
aS'231'
p3237
aa(lp3238
S'UPPERCLASS'
p3239
ag122
aS'233'
p3240
aa(lp3241
S'UPPERCLASS'
p3242
ag78
aS'621'
p3243
aa(lp3244
S'UPPERCLASS'
p3245
ag78
aS'722'
p3246
aa(lp3247
S'UPPERCLASS'
p3248
ag78
aS'721'
p3249
aa(lp3250
S'UPPERCLASS'
p3251
ag122
aS'304'
p3252
aa(lp3253
S'UPPERCLASS'
p3254
ag30
aS'503'
p3255
aa(lp3256
S'UPPERCLASS'
p3257
ag30
aS'216'
p3258
aa(lp3259
S'UPPERCLASS'
p3260
ag30
aS'233'
p3261
aa(lp3262
S'UPPERCLASS'
p3263
ag30
aS'131'
p3264
aa(lp3265
S'UPPERCLASS'
p3266
ag30
aS'231'
p3267
aa(lp3268
S'UPPERCLASS'
p3269
ag196
aS'300S'
p3270
aa(lp3271
S'UPPERCLASS'
p3272
ag196
aS'401N'
p3273
aa(lp3274
S'UPPERCLASS'
p3275
aS'CUYLER'
p3276
aS'521'
p3277
aa(lp3278
S'UPPERCLASS'
p3279
ag196
aS'400S'
p3280
aa(lp3281
S'UPPERCLASS'
p3282
ag3163
aS'429'
p3283
aa(lp3284
S'UPPERCLASS'
p3285
ag78
aS'734'
p3286
aa(lp3287
S'UPPERCLASS'
p3288
ag78
aS'726'
p3289
aa(lp3290
S'UPPERCLASS'
p3291
ag78
aS'735'
p3292
aa(lp3293
S'UPPERCLASS'
p3294
ag171
aS'T07'
p3295
aa(lp3296
S'UPPERCLASS'
p3297
ag30
aS'237'
p3298
aa(lp3299
S'UPPERCLASS'
p3300
ag196
aS'413'
p3301
aa(lp3302
S'UPPERCLASS'
p3303
ag122
aS'255'
p3304
aa(lp3305
S'UPPERCLASS'
p3306
ag122
aS'333'
p3307
aa(lp3308
S'UPPERCLASS'
p3309
ag122
aS'331'
p3310
aa(lp3311
S'UPPERCLASS'
p3312
ag122
aS'261'
p3313
aa(lp3314
S'UPPERCLASS'
p3315
ag122
aS'355'
p3316
aa(lp3317
S'UPPERCLASS'
p3318
ag122
aS'361'
p3319
aa(lp3320
S'UPPERCLASS'
p3321
ag122
aS'131'
p3322
aa(lp3323
S'UPPERCLASS'
p3324
ag122
aS'121'
p3325
aa(lp3326
S'UPPERCLASS'
p3327
ag122
aS'133'
p3328
aa(lp3329
S'UPPERCLASS'
p3330
ag122
aS'123'
p3331
aa(lp3332
S'UPPERCLASS'
p3333
ag122
aS'125'
p3334
aa(lp3335
S'UPPERCLASS'
p3336
ag122
aS'127'
p3337
aa(lp3338
S'UPPERCLASS'
p3339
ag78
aS'211'
p3340
aa(lp3341
S'UPPERCLASS'
p3342
ag3276
aS'511'
p3343
aa(lp3344
S'UPPERCLASS'
p3345
ag196
aS'400N'
p3346
aa(lp3347
S'UPPERCLASS'
p3348
ag196
aS'402N'
p3349
aa(lp3350
S'UPPERCLASS'
p3351
ag30
aS'212'
p3352
aa(lp3353
S'UPPERCLASS'
p3354
ag122
aS'358'
p3355
aa(lp3356
S'UPPERCLASS'
p3357
ag122
aS'356'
p3358
aa(lp3359
S'UPPERCLASS'
p3360
ag122
aS'122'
p3361
aa(lp3362
S'UPPERCLASS'
p3363
ag30
aS'132'
p3364
aa(lp3365
S'UPPERCLASS'
p3366
ag196
aS'402S'
p3367
aa(lp3368
S'UPPERCLASS'
p3369
ag196
aS'211'
p3370
aa(lp3371
S'UPPERCLASS'
p3372
ag196
aS'200N'
p3373
aa(lp3374
S'UPPERCLASS'
p3375
ag171
aS'311'
p3376
aa(lp3377
S'UPPERCLASS'
p3378
ag3163
aS'117'
p3379
aa(lp3380
S'UPPERCLASS'
p3381
ag30
aS'228'
p3382
aa(lp3383
S'UPPERCLASS'
p3384
ag3163
aS'119'
p3385
aa(lp3386
S'UPPERCLASS'
p3387
ag3276
aS'432'
p3388
aa(lp3389
S'UPPERCLASS'
p3390
ag88
aS'121'
p3391
aa(lp3392
S'UPPERCLASS'
p3393
ag3276
aS'438'
p3394
aa(lp3395
S'UPPERCLASS'
p3396
ag88
aS'322'
p3397
aa(lp3398
S'UPPERCLASS'
p3399
ag122
aS'221'
p3400
aa(lp3401
S'UPPERCLASS'
p3402
ag171
aS'307'
p3403
aa(lp3404
S'UPPERCLASS'
p3405
ag3230
aS'303'
p3406
aa(lp3407
S'UPPERCLASS'
p3408
ag3230
aS'302'
p3409
aa(lp3410
S'UPPERCLASS'
p3411
ag30
aS'222'
p3412
aa(lp3413
S'UPPERCLASS'
p3414
ag30
aS'221'
p3415
aa(lp3416
S'UPPERCLASS'
p3417
ag78
aS'511'
p3418
aa(lp3419
S'UPPERCLASS'
p3420
ag3230
aS'404'
p3421
aa(lp3422
S'UPPERCLASS'
p3423
ag171
aS'083'
p3424
aa(lp3425
S'UPPERCLASS'
p3426
ag171
aS'089'
p3427
aa(lp3428
S'UPPERCLASS'
p3429
ag171
aS'074'
p3430
aa(lp3431
S'UPPERCLASS'
p3432
ag171
aS'T04'
p3433
aa(lp3434
S'UPPERCLASS'
p3435
ag171
aS'T05'
p3436
aa(lp3437
S'UPPERCLASS'
p3438
aS'LAUGHLIN'
p3439
aS'523'
p3440
aa(lp3441
S'UPPERCLASS'
p3442
ag88
aS'115'
p3443
aa(lp3444
S'UPPERCLASS'
p3445
ag3276
aS'401'
p3446
aa(lp3447
S'UPPERCLASS'
p3448
ag3163
aS'111'
p3449
aa(lp3450
S'UPPERCLASS'
p3451
ag30
aS'215'
p3452
aa(lp3453
S'UPPERCLASS'
p3454
ag78
aS'342'
p3455
aa(lp3456
S'UPPERCLASS'
p3457
ag78
aS'331'
p3458
aa(lp3459
S'UPPERCLASS'
p3460
ag78
aS'332'
p3461
aa(lp3462
S'UPPERCLASS'
p3463
ag78
aS'343'
p3464
aa(lp3465
S'UPPERCLASS'
p3466
ag78
aS'344'
p3467
aa(lp3468
S'UPPERCLASS'
p3469
ag3230
aS'305'
p3470
aa(lp3471
S'UPPERCLASS'
p3472
ag3230
aS'301'
p3473
aa(lp3474
S'UPPERCLASS'
p3475
ag78
aS'311'
p3476
aa(lp3477
S'UPPERCLASS'
p3478
ag78
aS'312'
p3479
aa(lp3480
S'UPPERCLASS'
p3481
ag78
aS'634'
p3482
aa(lp3483
S'UPPERCLASS'
p3484
ag78
aS'633'
p3485
aa(lp3486
S'UPPERCLASS'
p3487
ag78
aS'414'
p3488
aa(lp3489
S'UPPERCLASS'
p3490
ag78
aS'623'
p3491
aa(lp3492
S'UPPERCLASS'
p3493
ag78
aS'413'
p3494
aa(lp3495
S'UPPERCLASS'
p3496
ag78
aS'411'
p3497
aa(lp3498
S'UPPERCLASS'
p3499
ag78
aS'611'
p3500
aa(lp3501
S'UPPERCLASS'
p3502
ag78
aS'617'
p3503
aa(lp3504
S'UPPERCLASS'
p3505
ag78
aS'613'
p3506
aa(lp3507
S'UPPERCLASS'
p3508
ag30
aS'227'
p3509
aa(lp3510
S'UPPERCLASS'
p3511
ag171
aS'075'
p3512
aa(lp3513
S'UPPERCLASS'
p3514
ag78
aS'427'
p3515
aa(lp3516
S'UPPERCLASS'
p3517
ag78
aS'426'
p3518
aa(lp3519
S'UPPERCLASS'
p3520
ag78
aS'429'
p3521
aa(lp3522
S'UPPERCLASS'
p3523
ag78
aS'428'
p3524
aa(lp3525
S'UPPERCLASS'
p3526
ag71
aS'095'
p3527
aa(lp3528
S'UPPERCLASS'
p3529
ag30
aS'113'
p3530
aa(lp3531
S'UPPERCLASS'
p3532
ag71
aS'399'
p3533
aa(lp3534
S'UPPERCLASS'
p3535
ag71
aS'111'
p3536
aa(lp3537
S'UPPERCLASS'
p3538
ag171
aS'310'
p3539
aa(lp3540
S'UPPERCLASS'
p3541
ag30
aS'414'
p3542
aa(lp3543
S'UPPERCLASS'
p3544
ag196
aS'300N'
p3545
aa(lp3546
S'UPPERCLASS'
p3547
ag30
aS'211'
p3548
aa(lp3549
S'UPPERCLASS'
p3550
ag30
aS'143'
p3551
aa(lp3552
S'UPPERCLASS'
p3553
ag78
aS'213'
p3554
aa(lp3555
S'UPPERCLASS'
p3556
ag78
aS'212'
p3557
aa(lp3558
S'UPPERCLASS'
p3559
ag196
aS'401S'
p3560
aa(lp3561
S'UPPERCLASS'
p3562
ag196
aS'414'
p3563
aa(lp3564
S'UPPERCLASS'
p3565
ag196
aS'415'
p3566
aa(lp3567
S'UPPERCLASS'
p3568
ag3153
aS'125'
p3569
aa(lp3570
S'UPPERCLASS'
p3571
ag30
aS'313'
p3572
aa(lp3573
S'UPPERCLASS'
p3574
ag30
aS'312'
p3575
aa(lp3576
S'UPPERCLASS'
p3577
ag30
aS'224'
p3578
aa(lp3579
S'UPPERCLASS'
p3580
ag30
aS'225'
p3581
aa(lp3582
S'UPPERCLASS'
p3583
ag30
aS'223'
p3584
aa(lp3585
S'UPPERCLASS'
p3586
aS'FOULKE'
p3587
aS'331'
p3588
aa(lp3589
S'UPPERCLASS'
p3590
ag3587
aS'335'
p3591
aa(lp3592
S'UPPERCLASS'
p3593
ag30
aS'322'
p3594
aa(lp3595
S'UPPERCLASS'
p3596
ag30
aS'234'
p3597
aa(lp3598
S'UPPERCLASS'
p3599
ag30
aS'134'
p3600
aa(lp3601
S'UPPERCLASS'
p3602
ag30
aS'136'
p3603
aa(lp3604
S'UPPERCLASS'
p3605
ag30
aS'111'
p3606
aa(lp3607
S'UPPERCLASS'
p3608
ag30
aS'114'
p3609
aa(lp3610
S'UPPERCLASS'
p3611
ag30
aS'235'
p3612
aa(lp3613
S'UPPERCLASS'
p3614
ag30
aS'125'
p3615
aa(lp3616
S'UPPERCLASS'
p3617
ag30
aS'121'
p3618
aa(lp3619
S'UPPERCLASS'
p3620
ag30
aS'135'
p3621
aa(lp3622
S'UPPERCLASS'
p3623
ag30
aS'124'
p3624
aa(lp3625
S'UPPERCLASS'
p3626
ag30
aS'126'
p3627
aa(lp3628
S'UPPERCLASS'
p3629
ag78
aS'421'
p3630
aa(lp3631
S'UPPERCLASS'
p3632
ag3153
aS'314'
p3633
aa(lp3634
S'UPPERCLASS'
p3635
ag3153
aS'312'
p3636
aa(lp3637
S'UPPERCLASS'
p3638
ag30
aS'433'
p3639
aa(lp3640
S'UPPERCLASS'
p3641
ag30
aS'422'
p3642
aa(lp3643
S'UPPERCLASS'
p3644
ag3163
aS'225'
p3645
aa(lp3646
S'UPPERCLASS'
p3647
ag3163
aS'226'
p3648
aa(lp3649
S'UPPERCLASS'
p3650
ag3163
aS'222'
p3651
aa(lp3652
S'UPPERCLASS'
p3653
ag30
aS'431'
p3654
aa(lp3655
S'UPPERCLASS'
p3656
ag30
aS'515'
p3657
aa(lp3658
S'UPPERCLASS'
p3659
ag30
aS'511'
p3660
aa(lp3661
S'UPPERCLASS'
p3662
ag30
aS'513'
p3663
aa(lp3664
S'UPPERCLASS'
p3665
ag30
aS'411'
p3666
aa(lp3667
S'UPPERCLASS'
p3668
ag30
aS'514'
p3669
aa(lp3670
S'UPPERCLASS'
p3671
ag171
aS'087'
p3672
aa(lp3673
S'UPPERCLASS'
p3674
ag3230
aS'402'
p3675
aa(lp3676
S'UPPERCLASS'
p3677
ag3230
aS'401'
p3678
aa(lp3679
S'UPPERCLASS'
p3680
ag3230
aS'407'
p3681
aa(lp3682
S'UPPERCLASS'
p3683
ag3230
aS'406'
p3684
aa(lp3685
S'UPPERCLASS'
p3686
ag122
aS'330'
p3687
aa(lp3688
S'UPPERCLASS'
p3689
ag122
aS'332'
p3690
aa(lp3691
S'UPPERCLASS'
p3692
ag122
aS'334'
p3693
aa(lp3694
S'UPPERCLASS'
p3695
ag122
aS'328'
p3696
aa(lp3697
S'UPPERCLASS'
p3698
ag30
aS'133'
p3699
aa(lp3700
S'UPPERCLASS'
p3701
ag171
aS'408'
p3702
aa(lp3703
S'UPPERCLASS'
p3704
ag30
aS'142'
p3705
aa(lp3706
S'UPPERCLASS'
p3707
ag3587
aS'325'
p3708
aa(lp3709
S'UPPERCLASS'
p3710
ag3587
aS'315'
p3711
aa(lp3712
S'UPPERCLASS'
p3713
ag3587
aS'318'
p3714
aa(lp3715
S'UPPERCLASS'
p3716
ag30
aS'332'
p3717
aa(lp3718
S'UPPERCLASS'
p3719
ag30
aS'323'
p3720
aa(lp3721
S'UPPERCLASS'
p3722
ag3230
aS'031'
p3723
aa(lp3724
S'UPPERCLASS'
p3725
ag122
aS'234'
p3726
aa(lp3727
S'UPPERCLASS'
p3728
ag122
aS'236'
p3729
aa(lp3730
S'UPPERCLASS'
p3731
ag122
aS'238'
p3732
aa(lp3733
S'UPPERCLASS'
p3734
ag3230
aS'403'
p3735
aa(lp3736
S'UPPERCLASS'
p3737
ag122
aS'222'
p3738
aa(lp3739
S'UPPERCLASS'
p3740
ag122
aS'102'
p3741
aa(lp3742
S'UPPERCLASS'
p3743
ag122
aS'448'
p3744
aa(lp3745
S'UPPERCLASS'
p3746
ag171
aS'070'
p3747
aa(lp3748
S'UPPERCLASS'
p3749
ag3439
aS'624'
p3750
aa(lp3751
S'UPPERCLASS'
p3752
ag3439
aS'626'
p3753
aa(lp3754
S'UPPERCLASS'
p3755
ag78
aS'624'
p3756
aa(lp3757
S'UPPERCLASS'
p3758
ag11
aS'114'
p3759
aa(lp3760
S'UPPERCLASS'
p3761
ag171
aS'076'
p3762
aa(lp3763
S'UPPERCLASS'
p3764
ag11
aS'112'
p3765
aa(lp3766
S'UPPERCLASS'
p3767
ag11
aS'111'
p3768
aa(lp3769
S'UPPERCLASS'
p3770
ag78
aS'222'
p3771
aa(lp3772
S'UPPERCLASS'
p3773
ag78
aS'223'
p3774
aa(lp3775
S'UPPERCLASS'
p3776
ag122
aS'436'
p3777
aa(lp3778
S'UPPERCLASS'
p3779
ag3153
aS'313'
p3780
aa(lp3781
S'UPPERCLASS'
p3782
ag122
aS'360'
p3783
aa(lp3784
S'UPPERCLASS'
p3785
ag122
aS'362'
p3786
aa(lp3787
S'UPPERCLASS'
p3788
ag122
aS'350'
p3789
aa(lp3790
S'UPPERCLASS'
p3791
ag122
aS'352'
p3792
aa(lp3793
S'UPPERCLASS'
p3794
ag122
aS'354'
p3795
aa(lp3796
S'UPPERCLASS'
p3797
ag3163
aS'325'
p3798
aa(lp3799
S'UPPERCLASS'
p3800
ag3153
aS'405'
p3801
aa(lp3802
S'UPPERCLASS'
p3803
ag3163
aS'326'
p3804
aa(lp3805
S'UPPERCLASS'
p3806
ag196
aS'302S'
p3807
aa(lp3808
S'UPPERCLASS'
p3809
ag11
aS'413'
p3810
aa(lp3811
S'UPPERCLASS'
p3812
ag11
aS'402'
p3813
aa(lp3814
S'UPPERCLASS'
p3815
ag11
aS'401'
p3816
aa(lp3817
S'UPPERCLASS'
p3818
ag78
aS'313'
p3819
aa(lp3820
S'UPPERCLASS'
p3821
ag196
aS'214'
p3822
aa(lp3823
S'UPPERCLASS'
p3824
ag78
aS'435'
p3825
aa(lp3826
S'UPPERCLASS'
p3827
ag78
aS'436'
p3828
aa(lp3829
S'UPPERCLASS'
p3830
ag78
aS'433'
p3831
aa(lp3832
S'UPPERCLASS'
p3833
ag78
aS'439'
p3834
aa(lp3835
S'UPPERCLASS'
p3836
ag78
aS'431'
p3837
aa(lp3838
S'UPPERCLASS'
p3839
ag78
aS'334'
p3840
aa(lp3841
S'UPPERCLASS'
p3842
ag78
aS'434'
p3843
aa(lp3844
S'UPPERCLASS'
p3845
ag30
aS'525'
p3846
aa(lp3847
S'UPPERCLASS'
p3848
ag171
aS'309'
p3849
aa(lp3850
S'UPPERCLASS'
p3851
ag78
aS'321'
p3852
aa(lp3853
S'UPPERCLASS'
p3854
ag3276
aS'233'
p3855
aa(lp3856
S'UPPERCLASS'
p3857
ag78
aS'243'
p3858
aa(lp3859
S'UPPERCLASS'
p3860
ag78
aS'241'
p3861
aa(lp3862
S'UPPERCLASS'
p3863
ag3153
aS'111'
p3864
aa(lp3865
S'UPPERCLASS'
p3866
ag3153
aS'113'
p3867
aa(lp3868
S'UPPERCLASS'
p3869
ag3153
aS'114'
p3870
aa(lp3871
S'UPPERCLASS'
p3872
ag122
aS'321'
p3873
aa(lp3874
S'UPPERCLASS'
p3875
ag3587
aS'202'
p3876
aa(lp3877
S'UPPERCLASS'
p3878
ag3587
aS'205'
p3879
aa(lp3880
S'UPPERCLASS'
p3881
ag3587
aS'204'
p3882
aa(lp3883
S'UPPERCLASS'
p3884
ag122
aS'126'
p3885
aa(lp3886
S'UPPERCLASS'
p3887
ag196
aS'216'
p3888
aa(lp3889
S'UPPERCLASS'
p3890
ag122
aS'124'
p3891
aa(lp3892
S'UPPERCLASS'
p3893
ag122
aS'312'
p3894
aa(lp3895
S'UPPERCLASS'
p3896
ag196
aS'404'
p3897
aa(lp3898
S'UPPERCLASS'
p3899
ag196
aS'314'
p3900
aa(lp3901
S'UPPERCLASS'
p3902
ag196
aS'310'
p3903
aa(lp3904
S'UPPERCLASS'
p3905
ag3153
aS'142'
p3906
aa(lp3907
S'UPPERCLASS'
p3908
ag3153
aS'121'
p3909
aa(lp3910
S'UPPERCLASS'
p3911
ag3439
aS'623'
p3912
aa(lp3913
S'UPPERCLASS'
p3914
ag122
aS'202'
p3915
aa(lp3916
S'UPPERCLASS'
p3917
ag171
aS'T02'
p3918
aa(lp3919
S'UPPERCLASS'
p3920
ag196
aS'206'
p3921
aa(lp3922
S'UPPERCLASS'
p3923
ag78
aS'603'
p3924
aa(lp3925
S'UPPERCLASS'
p3926
ag196
aS'205'
p3927
aa(lp3928
S'UPPERCLASS'
p3929
ag3153
aS'431'
p3930
aa(lp3931
S'UPPERCLASS'
p3932
ag3153
aS'335'
p3933
aa(lp3934
S'UPPERCLASS'
p3935
ag78
aS'713'
p3936
aa(lp3937
S'UPPERCLASS'
p3938
ag78
aS'714'
p3939
aa(lp3940
S'UPPERCLASS'
p3941
ag78
aS'711'
p3942
aa(lp3943
S'UPPERCLASS'
p3944
ag78
aS'712'
p3945
aa(lp3946
S'UPPERCLASS'
p3947
ag78
aS'716'
p3948
aa(lp3949
S'UPPERCLASS'
p3950
ag78
aS'715'
p3951
aa(lp3952
S'UPPERCLASS'
p3953
ag3439
aS'511'
p3954
aa(lp3955
S'UPPERCLASS'
p3956
ag3153
aS'132'
p3957
aa(lp3958
S'UPPERCLASS'
p3959
ag3439
aS'615'
p3960
aa(lp3961
S'UPPERCLASS'
p3962
ag196
aS'210'
p3963
aa(lp3964
S'UPPERCLASS'
p3965
ag71
aS'131'
p3966
aa(lp3967
S'UPPERCLASS'
p3968
ag78
aS'632'
p3969
aa(lp3970
S'UPPERCLASS'
p3971
ag3276
aS'632'
p3972
aa(lp3973
S'UPPERCLASS'
p3974
ag78
aS'625'
p3975
aa(lp3976
S'UPPERCLASS'
p3977
ag122
aS'250'
p3978
aa(lp3979
S'UPPERCLASS'
p3980
ag122
aS'248'
p3981
aa(lp3982
S'UPPERCLASS'
p3983
ag3276
aS'433'
p3984
aa(lp3985
S'UPPERCLASS'
p3986
ag78
aS'622'
p3987
aa(lp3988
S'UPPERCLASS'
p3989
ag88
aS'313'
p3990
aa(lp3991
S'UPPERCLASS'
p3992
ag88
aS'312'
p3993
aa(lp3994
S'UPPERCLASS'
p3995
ag88
aS'202'
p3996
aa(lp3997
S'UPPERCLASS'
p3998
ag88
aS'201'
p3999
aa(lp4000
S'UPPERCLASS'
p4001
ag88
aS'116'
p4002
aa(lp4003
S'UPPERCLASS'
p4004
ag88
aS'213'
p4005
aa(lp4006
S'UPPERCLASS'
p4007
ag88
aS'211'
p4008
aa(lp4009
S'UPPERCLASS'
p4010
ag171
aS'T11'
p4011
aa(lp4012
S'UPPERCLASS'
p4013
ag122
aS'213'
p4014
aa(lp4015
S'UPPERCLASS'
p4016
ag171
aS'T10'
p4017
aa(lp4018
S'UPPERCLASS'
p4019
ag3276
aS'232'
p4020
aa(lp4021
S'UPPERCLASS'
p4022
ag3276
aS'235'
p4023
aa(lp4024
S'UPPERCLASS'
p4025
ag171
aS'063'
p4026
aa(lp4027
S'UPPERCLASS'
p4028
ag171
aS'T09'
p4029
aa(lp4030
S'UPPERCLASS'
p4031
ag122
aS'215'
p4032
aa(lp4033
S'UPPERCLASS'
p4034
ag88
aS'301'
p4035
aa(lp4036
S'UPPERCLASS'
p4037
ag171
aS'T06'
p4038
aa(lp4039
S'UPPERCLASS'
p4040
ag88
aS'226'
p4041
aa(lp4042
S'UPPERCLASS'
p4043
ag3587
aS'334'
p4044
aa(lp4045
S'UPPERCLASS'
p4046
ag3439
aS'627'
p4047
aa(lp4048
S'UPPERCLASS'
p4049
ag3439
aS'622'
p4050
aa(lp4051
S'UPPERCLASS'
p4052
ag3587
aS'214'
p4053
aa(lp4054
S'UPPERCLASS'
p4055
ag3587
aS'313'
p4056
aa(lp4057
S'UPPERCLASS'
p4058
ag3587
aS'314'
p4059
aa(lp4060
S'UPPERCLASS'
p4061
ag3587
aS'213'
p4062
aa(lp4063
S'UPPERCLASS'
p4064
ag196
aS'311'
p4065
aa(lp4066
S'UPPERCLASS'
p4067
ag196
aS'301N'
p4068
aa(lp4069
S'UPPERCLASS'
p4070
ag196
aS'302N'
p4071
aa(lp4072
S'UPPERCLASS'
p4073
ag11
aS'212'
p4074
aa(lp4075
S'UPPERCLASS'
p4076
ag78
aS'616'
p4077
aa(lp4078
S'UPPERCLASS'
p4079
ag3276
aS'431'
p4080
aa(lp4081
S'UPPERCLASS'
p4082
ag78
aS'341'
p4083
aa(lp4084
S'UPPERCLASS'
p4085
ag196
aS'405'
p4086
aa(lp4087
S'UPPERCLASS'
p4088
ag3276
aS'436'
p4089
aa(lp4090
S'UPPERCLASS'
p4091
ag3276
aS'435'
p4092
aa(lp4093
S'UPPERCLASS'
p4094
ag3276
aS'439'
p4095
aa(lp4096
S'UPPERCLASS'
p4097
ag3276
aS'231'
p4098
aa(lp4099
S'UPPERCLASS'
p4100
ag78
aS'325'
p4101
aa(lp4102
S'UPPERCLASS'
p4103
ag78
aS'324'
p4104
aa(lp4105
S'UPPERCLASS'
p4106
ag196
aS'217'
p4107
aa(lp4108
S'UPPERCLASS'
p4109
ag196
aS'204'
p4110
aa(lp4111
S'UPPERCLASS'
p4112
ag196
aS'202'
p4113
aa(lp4114
S'UPPERCLASS'
p4115
ag196
aS'315'
p4116
aa(lp4117
S'UPPERCLASS'
p4118
ag3439
aS'521'
p4119
aa(lp4120
S'UPPERCLASS'
p4121
ag3587
aS'301'
p4122
aa(lp4123
S'UPPERCLASS'
p4124
ag3587
aS'302'
p4125
aa(lp4126
S'UPPERCLASS'
p4127
ag3587
aS'303'
p4128
aa(lp4129
S'UPPERCLASS'
p4130
ag3587
aS'308'
p4131
aa(lp4132
S'UPPERCLASS'
p4133
ag78
aS'214'
p4134
aa(lp4135
S'UPPERCLASS'
p4136
ag122
aS'313'
p4137
aa(lp4138
S'UPPERCLASS'
p4139
ag122
aS'315'
p4140
aa(lp4141
S'UPPERCLASS'
p4142
ag171
aS'040'
p4143
aa(lp4144
S'UPPERCLASS'
p4145
ag196
aS'200'
p4146
aa(lp4147
S'UPPERCLASS'
p4148
ag122
aS'252'
p4149
aa(lp4150
S'UPPERCLASS'
p4151
ag122
aS'254'
p4152
aa(lp4153
S'UPPERCLASS'
p4154
ag122
aS'227'
p4155
aa(lp4156
S'UPPERCLASS'
p4157
ag122
aS'225'
p4158
aa(lp4159
S'UPPERCLASS'
p4160
ag122
aS'230'
p4161
aa(lp4162
S'UPPERCLASS'
p4163
ag122
aS'228'
p4164
aa(lp4165
S'UPPERCLASS'
p4166
ag3230
aS'020'
p4167
aa(lp4168
S'UPPERCLASS'
p4169
ag11
aS'312'
p4170
aa(lp4171
S'UPPERCLASS'
p4172
ag11
aS'315'
p4173
aa(lp4174
S'UPPERCLASS'
p4175
ag11
aS'314'
p4176
aa(lp4177
S'UPPERCLASS'
p4178
ag122
aS'150'
p4179
aa(lp4180
S'UPPERCLASS'
p4181
ag122
aS'152'
p4182
aa(lp4183
S'UPPERCLASS'
p4184
ag122
aS'148'
p4185
aa(lp4186
S'UPPERCLASS'
p4187
ag122
aS'258'
p4188
aa(lp4189
S'UPPERCLASS'
p4190
ag122
aS'256'
p4191
aa(lp4192
S'UPPERCLASS'
p4193
ag122
aS'345'
p4194
aa(lp4195
S'UPPERCLASS'
p4196
ag122
aS'327'
p4197
aa(lp4198
S'UPPERCLASS'
p4199
ag122
aS'325'
p4200
aa(lp4201
S'UPPERCLASS'
p4202
ag122
aS'371'
p4203
aa(lp4204
S'UPPERCLASS'
p4205
ag122
aS'171'
p4206
aa(lp4207
S'UPPERCLASS'
p4208
ag3276
aS'634'
p4209
aa(lp4210
S'UPPERCLASS'
p4211
ag78
aS'144'
p4212
aa(lp4213
S'UPPERCLASS'
p4214
ag78
aS'731'
p4215
aa(lp4216
S'UPPERCLASS'
p4217
ag122
aS'440'
p4218
aa(lp4219
S'UPPERCLASS'
p4220
ag122
aS'444'
p4221
aa(lp4222
S'UPPERCLASS'
p4223
ag122
aS'115'
p4224
aa(lp4225
S'UPPERCLASS'
p4226
ag122
aS'113'
p4227
aa(lp4228
S'UPPERCLASS'
p4229
ag122
aS'156'
p4230
aa(lp4231
S'UPPERCLASS'
p4232
ag122
aS'158'
p4233
aa(lp4234
S'UPPERCLASS'
p4235
ag78
aS'422'
p4236
aa(lp4237
S'UPPERCLASS'
p4238
ag78
aS'424'
p4239
aa(lp4240
S'UPPERCLASS'
p4241
ag78
aS'425'
p4242
aa(lp4243
S'UPPERCLASS'
p4244
ag122
aS'154'
p4245
aa(lp4246
S'UPPERCLASS'
p4247
ag196
aS'202N'
p4248
aa(lp4249
S'UPPERCLASS'
p4250
ag196
aS'201N'
p4251
aa(lp4252
S'UPPERCLASS'
p4253
ag78
aS'224'
p4254
aa(lp4255
S'UPPERCLASS'
p4256
ag78
aS'612'
p4257
aa(lp4258
S'UPPERCLASS'
p4259
ag3163
aS'321'
p4260
aa(lp4261
S'UPPERCLASS'
p4262
ag122
aS'323'
p4263
aa(lp4264
S'UPPERCLASS'
p4265
ag78
aS'727'
p4266
aa(lp4267
S'UPPERCLASS'
p4268
ag196
aS'207'
p4269
aa(lp4270
S'UPPERCLASS'
p4271
ag122
aS'242'
p4272
aa(lp4273
S'UPPERCLASS'
p4274
ag78
aS'717'
p4275
aa(lp4276
S'UPPERCLASS'
p4277
ag78
aS'719'
p4278
aa(lp4279
S'UPPERCLASS'
p4280
ag122
aS'224'
p4281
aa(lp4282
S'UPPERCLASS'
p4283
ag122
aS'240'
p4284
aa(lp4285
S'UPPERCLASS'
p4286
ag122
aS'226'
p4287
aa(lp4288
S'UPPERCLASS'
p4289
ag122
aS'216'
p4290
aa(lp4291
S'UPPERCLASS'
p4292
ag196
aS'201S'
p4293
aa(lp4294
S'UPPERCLASS'
p4295
ag196
aS'300'
p4296
aa(lp4297
S'UPPERCLASS'
p4298
ag196
aS'202S'
p4299
aa(lp4300
S'UPPERCLASS'
p4301
ag122
aS'144'
p4302
aa(lp4303
S'UPPERCLASS'
p4304
ag78
aS'741'
p4305
aa(lp4306
S'UPPERCLASS'
p4307
ag171
aS'041'
p4308
aa(lp4309
S'UPPERCLASS'
p4310
ag78
aS'601'
p4311
aa(lp4312
S'UPPERCLASS'
p4313
ag88
aS'233'
p4314
aa(lp4315
S'UPPERCLASS'
p4316
ag3163
aS'314'
p4317
aa(lp4318
S'UPPERCLASS'
p4319
ag122
aS'140'
p4320
aa(lp4321
S'UPPERCLASS'
p4322
ag3163
aS'113'
p4323
aa(lp4324
S'UPPERCLASS'
p4325
ag3153
aS'404'
p4326
aa(lp4327
S'UPPERCLASS'
p4328
ag3163
aS'125'
p4329
aa(lp4330
S'UPPERCLASS'
p4331
ag3163
aS'114'
p4332
aa(lp4333
S'UPPERCLASS'
p4334
ag3163
aS'123'
p4335
aa(lp4336
S'UPPERCLASS'
p4337
ag196
aS'107'
p4338
aa(lp4339
S'UPPERCLASS'
p4340
ag196
aS'201'
p4341
aa(lp4342
S'UPPERCLASS'
p4343
ag78
aS'225'
p4344
aa(lp4345
S'UPPERCLASS'
p4346
ag78
aS'423'
p4347
aa(lp4348
S'UPPERCLASS'
p4349
ag196
aS'101N'
p4350
aa(lp4351
S'UPPERCLASS'
p4352
ag3439
aS'633'
p4353
aa(lp4354
S'UPPERCLASS'
p4355
ag3587
aS'102'
p4356
aa(lp4357
S'UPPERCLASS'
p4358
ag88
aS'220'
p4359
aa(lp4360
S'UPPERCLASS'
p4361
ag88
aS'224'
p4362
aa(lp4363
S'UPPERCLASS'
p4364
ag88
aS'235'
p4365
aa(lp4366
S'UPPERCLASS'
p4367
ag88
aS'236'
p4368
aa(lp4369
S'UPPERCLASS'
p4370
ag88
aS'229'
p4371
aa(lp4372
S'UPPERCLASS'
p4373
ag88
aS'132'
p4374
aa(lp4375
S'UPPERCLASS'
p4376
ag3153
aS'233'
p4377
aa(lp4378
S'UPPERCLASS'
p4379
ag3153
aS'234'
p4380
aa(lp4381
S'UPPERCLASS'
p4382
ag3153
aS'235'
p4383
aa(lp4384
S'UPPERCLASS'
p4385
ag3153
aS'221'
p4386
aa(lp4387
S'UPPERCLASS'
p4388
ag88
aS'131'
p4389
aa(lp4390
S'UPPERCLASS'
p4391
ag196
aS'301S'
p4392
aa(lp4393
S'UPPERCLASS'
p4394
ag196
aS'303'
p4395
aa(lp4396
S'UPPERCLASS'
p4397
ag196
aS'312'
p4398
aa(lp4399
S'UPPERCLASS'
p4400
ag196
aS'302'
p4401
aa(lp4402
S'UPPERCLASS'
p4403
ag196
aS'306'
p4404
aa(lp4405
S'UPPERCLASS'
p4406
ag3153
aS'126'
p4407
aa(lp4408
S'UPPERCLASS'
p4409
ag3153
aS'223'
p4410
aa(lp4411
S'UPPERCLASS'
p4412
ag3439
aS'621'
p4413
aa(lp4414
S'UPPERCLASS'
p4415
ag196
aS'113'
p4416
aa(lp4417
S'UPPERCLASS'
p4418
ag3439
aS'618'
p4419
aa(lp4420
S'UPPERCLASS'
p4421
ag11
aS'411'
p4422
aa(lp4423
S'UPPERCLASS'
p4424
ag3153
aS'116'
p4425
aa(lp4426
S'UPPERCLASS'
p4427
ag78
aS'615'
p4428
aa(lp4429
S'UPPERCLASS'
p4430
ag30
aS'232'
p4431
aa(lp4432
S'UPPERCLASS'
p4433
ag30
aS'334'
p4434
aa(lp4435
S'UPPERCLASS'
p4436
ag11
aS'211'
p4437
aa(lp4438
S'UPPERCLASS'
p4439
ag78
aS'121'
p4440
aa(lp4441
S'UPPERCLASS'
p4442
ag171
aS'062'
p4443
aa(lp4444
S'UPPERCLASS'
p4445
ag3153
aS'402'
p4446
aa(lp4447
S'UPPERCLASS'
p4448
ag3587
aS'101'
p4449
aa(lp4450
S'UPPERCLASS'
p4451
ag11
aS'313'
p4452
aa(lp4453
S'UPPERCLASS'
p4454
ag11
aS'412'
p4455
aa(lp4456
S'UPPERCLASS'
p4457
ag3587
aS'332'
p4458
aa(lp4459
S'UPPERCLASS'
p4460
ag3587
aS'333'
p4461
aa(lp4462
S'UPPERCLASS'
p4463
ag122
aS'273'
p4464
aa(lp4465
S'UPPERCLASS'
p4466
ag3587
aS'124'
p4467
aa(lp4468
S'UPPERCLASS'
p4469
ag3587
aS'324'
p4470
aa(lp4471
S'UPPERCLASS'
p4472
ag3587
aS'123'
p4473
aa(lp4474
S'UPPERCLASS'
p4475
ag3587
aS'323'
p4476
aa(lp4477
S'UPPERCLASS'
p4478
ag122
aS'210'
p4479
aa(lp4480
S'UPPERCLASS'
p4481
ag88
aS'141'
p4482
aa(lp4483
S'UPPERCLASS'
p4484
ag88
aS'134'
p4485
aa(lp4486
S'UPPERCLASS'
p4487
ag196
aS'317'
p4488
aa(lp4489
S'UPPERCLASS'
p4490
ag78
aS'412'
p4491
aa(lp4492
S'UPPERCLASS'
p4493
ag3587
aS'306'
p4494
aa(lp4495
S'UPPERCLASS'
p4496
ag3587
aS'307'
p4497
aa(lp4498
S'UPPERCLASS'
p4499
ag3587
aS'341'
p4500
aa(lp4501
S'UPPERCLASS'
p4502
ag3587
aS'132'
p4503
aa(lp4504
S'UPPERCLASS'
p4505
ag78
aS'733'
p4506
aa(lp4507
S'UPPERCLASS'
p4508
ag78
aS'732'
p4509
aa(lp4510
S'UPPERCLASS'
p4511
ag122
aS'270'
p4512
aa(lp4513
S'UPPERCLASS'
p4514
ag3153
aS'321'
p4515
aa(lp4516
S'UPPERCLASS'
p4517
ag78
aS'135'
p4518
aa(lp4519
S'UPPERCLASS'
p4520
ag3163
aS'218'
p4521
aa(lp4522
S'UPPERCLASS'
p4523
ag3230
aS'010'
p4524
aa(lp4525
S'UPPERCLASS'
p4526
ag11
aS'102'
p4527
aa(lp4528
S'UPPERCLASS'
p4529
ag30
aS'523'
p4530
aa(lp4531
S'UPPERCLASS'
p4532
ag3153
aS'117'
p4533
aa(lp4534
S'UPPERCLASS'
p4535
ag3153
aS'201'
p4536
aa(lp4537
S'UPPERCLASS'
p4538
ag3153
aS'214'
p4539
aa(lp4540
S'UPPERCLASS'
p4541
ag3153
aS'213'
p4542
aa(lp4543
S'UPPERCLASS'
p4544
ag3153
aS'333'
p4545
aa(lp4546
S'UPPERCLASS'
p4547
ag3153
aS'224'
p4548
aa(lp4549
S'UPPERCLASS'
p4550
ag3153
aS'413'
p4551
aa(lp4552
S'UPPERCLASS'
p4553
ag3587
aS'112'
p4554
aa(lp4555
S'UPPERCLASS'
p4556
ag3587
aS'113'
p4557
aa(lp4558
S'UPPERCLASS'
p4559
ag3587
aS'215'
p4560
aa(lp4561
S'UPPERCLASS'
p4562
ag3587
aS'122'
p4563
aa(lp4564
S'UPPERCLASS'
p4565
ag3163
aS'219'
p4566
aa(lp4567
S'UPPERCLASS'
p4568
ag3163
aS'220'
p4569
aa(lp4570
S'UPPERCLASS'
p4571
ag171
aS'308'
p4572
aa(lp4573
S'UPPERCLASS'
p4574
ag11
aS'101'
p4575
aa(lp4576
S'UPPERCLASS'
p4577
ag122
aS'212'
p4578
aa(lp4579
S'UPPERCLASS'
p4580
ag122
aS'214'
p4581
aa(lp4582
S'UPPERCLASS'
p4583
ag122
aS'340'
p4584
aa(lp4585
S'UPPERCLASS'
p4586
ag71
aS'142'
p4587
aa(lp4588
S'UPPERCLASS'
p4589
ag122
aS'348'
p4590
aa(lp4591
S'UPPERCLASS'
p4592
ag196
aS'406'
p4593
aa(lp4594
S'UPPERCLASS'
p4595
ag78
aS'438'
p4596
aa(lp4597
S'UPPERCLASS'
p4598
ag122
aS'439'
p4599
aa(lp4600
S'UPPERCLASS'
p4601
ag122
aS'438'
p4602
aa(lp4603
S'UPPERCLASS'
p4604
ag78
aS'705'
p4605
aa(lp4606
S'UPPERCLASS'
p4607
ag122
aS'437'
p4608
aa(lp4609
S'UPPERCLASS'
p4610
ag122
aS'442'
p4611
aa(lp4612
S'UPPERCLASS'
p4613
ag78
aS'703'
p4614
aa(lp4615
S'UPPERCLASS'
p4616
ag122
aS'441'
p4617
aa(lp4618
S'UPPERCLASS'
p4619
ag78
aS'742'
p4620
aa(lp4621
S'UPPERCLASS'
p4622
ag78
aS'743'
p4623
aa(lp4624
S'UPPERCLASS'
p4625
ag3276
aS'404'
p4626
aa(lp4627
S'UPPERCLASS'
p4628
ag88
aS'101'
p4629
aa(lp4630
S'UPPERCLASS'
p4631
ag196
aS'313'
p4632
aa(lp4633
S'UPPERCLASS'
p4634
ag171
aS'072'
p4635
aa(lp4636
S'UPPERCLASS'
p4637
ag3153
aS'101'
p4638
aa(lp4639
S'UPPERCLASS'
p4640
ag122
aS'302'
p4641
aa(lp4642
S'UPPERCLASS'
p4643
ag3153
aS'119'
p4644
aa(lp4645
S'UPPERCLASS'
p4646
ag3153
aS'118'
p4647
aa(lp4648
S'UPPERCLASS'
p4649
ag78
aS'701'
p4650
aa(lp4651
S'UPPERCLASS'
p4652
ag122
aS'108'
p4653
aa(lp4654
S'UPPERCLASS'
p4655
ag122
aS'110'
p4656
aa(lp4657
S'UPPERCLASS'
p4658
ag122
aS'223'
p4659
aa(lp4660
S'UPPERCLASS'
p4661
ag3163
aS'312'
p4662
aa(lp4663
S'UPPERCLASS'
p4664
ag3230
aS'304'
p4665
aa(lp4666
S'UPPERCLASS'
p4667
ag3163
aS'319'
p4668
aa(lp4669
S'UPPERCLASS'
p4670
ag122
aS'428'
p4671
aa(lp4672
S'UPPERCLASS'
p4673
ag3163
aS'417'
p4674
aa(lp4675
S'UPPERCLASS'
p4676
ag122
aS'322'
p4677
aa(lp4678
S'UPPERCLASS'
p4679
ag78
aS'134'
p4680
aa(lp4681
S'UPPERCLASS'
p4682
ag78
aS'231A'
p4683
aa(lp4684
S'UPPERCLASS'
p4685
ag71
aS'A46'
p4686
aa(lp4687
S'UPPERCLASS'
p4688
ag78
aS'124'
p4689
aa(lp4690
S'UPPERCLASS'
p4691
ag122
aS'316'
p4692
aa(lp4693
S'UPPERCLASS'
p4694
ag88
aS'302'
p4695
aa(lp4696
S'UPPERCLASS'
p4697
ag3153
aS'103'
p4698
aa(lp4699
S'UPPERCLASS'
p4700
ag3153
aS'104'
p4701
aa(lp4702
S'UPPERCLASS'
p4703
ag122
aS'253'
p4704
aa(lp4705
S'UPPERCLASS'
p4706
ag71
aS'A20'
p4707
aa(lp4708
S'UPPERCLASS'
p4709
ag3163
aS'328'
p4710
aa(lp4711
S'UPPERCLASS'
p4712
ag3163
aS'313'
p4713
aa(lp4714
S'UPPERCLASS'
p4715
ag3439
aS'617'
p4716
aa(lp4717
S'UPPERCLASS'
p4718
ag71
aS'115'
p4719
aa(lp4720
S'UPPERCLASS'
p4721
ag71
aS'146'
p4722
aa(lp4723
S'UPPERCLASS'
p4724
ag71
aS'A14'
p4725
aa(lp4726
S'UPPERCLASS'
p4727
ag71
aS'A56'
p4728
aa(lp4729
S'UPPERCLASS'
p4730
ag3276
aS'421'
p4731
aa(lp4732
S'UPPERCLASS'
p4733
ag122
aS'268'
p4734
aa(lp4735
S'UPPERCLASS'
p4736
ag3163
aS'127'
p4737
aa(lp4738
S'UPPERCLASS'
p4739
ag3163
aS'121'
p4740
aa(lp4741
S'UPPERCLASS'
p4742
ag3163
aS'128'
p4743
aa(lp4744
S'UPPERCLASS'
p4745
ag88
aS'324'
p4746
aa(lp4747
S'UPPERCLASS'
p4748
ag88
aS'214'
p4749
aa(lp4750
S'UPPERCLASS'
p4751
ag88
aS'221'
p4752
aa(lp4753
S'UPPERCLASS'
p4754
ag88
aS'222A'
p4755
aa(lp4756
S'UPPERCLASS'
p4757
ag11
aS'104'
p4758
aa(lp4759
S'UPPERCLASS'
p4760
ag196
aS'307'
p4761
aa(lp4762
S'UPPERCLASS'
p4763
ag122
aS'335'
p4764
aa(lp4765
S'UPPERCLASS'
p4766
ag3276
aS'601'
p4767
aa(lp4768
S'UPPERCLASS'
p4769
ag3276
aS'234'
p4770
aa(lp4771
S'UPPERCLASS'
p4772
ag122
aS'166'
p4773
aa(lp4774
S'UPPERCLASS'
p4775
ag122
aS'134'
p4776
aa(lp4777
S'UPPERCLASS'
p4778
ag122
aS'138'
p4779
aa(lp4780
S'UPPERCLASS'
p4781
ag122
aS'136'
p4782
aa(lp4783
S'UPPERCLASS'
p4784
ag71
aS'112'
p4785
aa(lp4786
S'UPPERCLASS'
p4787
ag78
aS'643'
p4788
aa(lp4789
S'UPPERCLASS'
p4790
ag78
aS'345'
p4791
aa(lp4792
S'UPPERCLASS'
p4793
ag122
aS'112'
p4794
aa(lp4795
S'UPPERCLASS'
p4796
ag122
aS'101'
p4797
aa(lp4798
S'UPPERCLASS'
p4799
ag30
aS'533'
p4800
aa(lp4801
S'UPPERCLASS'
p4802
ag88
aS'223'
p4803
aa(lp4804
S'UPPERCLASS'
p4805
ag3153
aS'232'
p4806
aa(lp4807
S'UPPERCLASS'
p4808
ag3153
aS'334'
p4809
aa(lp4810
S'UPPERCLASS'
p4811
ag3230
aS'306'
p4812
aa(lp4813
S'UPPERCLASS'
p4814
ag122
aS'130'
p4815
aa(lp4816
S'UPPERCLASS'
p4817
ag122
aS'128'
p4818
aa(lp4819
S'UPPERCLASS'
p4820
ag122
aS'118'
p4821
aa(lp4822
S'UPPERCLASS'
p4823
ag122
aS'116'
p4824
aa(lp4825
S'UPPERCLASS'
p4826
ag122
aS'104'
p4827
aa(lp4828
S'UPPERCLASS'
p4829
ag122
aS'173'
p4830
aa(lp4831
S'UPPERCLASS'
p4832
ag3163
aS'322'
p4833
aa(lp4834
S'UPPERCLASS'
p4835
ag196
aS'417'
p4836
aa(lp4837
S'UPPERCLASS'
p4838
ag3153
aS'332'
p4839
aa(lp4840
S'UPPERCLASS'
p4841
ag122
aS'443'
p4842
aa(lp4843
S'UPPERCLASS'
p4844
ag122
aS'266'
p4845
aa(lp4846
S'UPPERCLASS'
p4847
ag122
aS'247'
p4848
aa(lp4849
S'UPPERCLASS'
p4850
ag122
aS'264'
p4851
aa(lp4852
S'UPPERCLASS'
p4853
ag122
aS'249'
p4854
aa(lp4855
S'UPPERCLASS'
p4856
ag171
aS'081'
p4857
aa(lp4858
S'UPPERCLASS'
p4859
ag30
aS'534'
p4860
aa(lp4861
S'UPPERCLASS'
p4862
ag122
aS'206'
p4863
aa(lp4864
S'UPPERCLASS'
p4865
ag122
aS'204'
p4866
aa(lp4867
S'UPPERCLASS'
p4868
ag3276
aS'631'
p4869
aa(lp4870
S'UPPERCLASS'
p4871
ag11
aS'423'
p4872
aa(lp4873
S'UPPERCLASS'
p4874
ag11
aS'223'
p4875
aa(lp4876
S'UPPERCLASS'
p4877
ag71
aS'141'
p4878
aa(lp4879
S'UPPERCLASS'
p4880
ag71
aS'143'
p4881
aa(lp4882
S'UPPERCLASS'
p4883
ag3587
aS'201'
p4884
aa(lp4885
S'UPPERCLASS'
p4886
ag122
aS'373'
p4887
aa(lp4888
S'UPPERCLASS'
p4889
ag122
aS'106'
p4890
aa(lp4891
S'UPPERCLASS'
p4892
ag122
aS'420'
p4893
aa(lp4894
S'UPPERCLASS'
p4895
ag71
aS'123'
p4896
aa(lp4897
S'UPPERCLASS'
p4898
ag122
aS'147'
p4899
aa(lp4900
S'UPPERCLASS'
p4901
ag3439
aS'522'
p4902
aa(lp4903
S'UPPERCLASS'
p4904
ag11
aS'325'
p4905
aa(lp4906
S'UPPERCLASS'
p4907
ag122
aS'418'
p4908
aa(lp4909
S'UPPERCLASS'
p4910
ag3439
aS'534'
p4911
aa(lp4912
S'UPPERCLASS'
p4913
ag171
aS'312'
p4914
aa(lp4915
S'UPPERCLASS'
p4916
ag30
aS'141'
p4917
aa(lp4918
S'UPPERCLASS'
p4919
ag3587
aS'329'
p4920
aa(lp4921
S'UPPERCLASS'
p4922
ag3587
aS'322'
p4923
aa(lp4924
S'UPPERCLASS'
p4925
ag3230
aS'032'
p4926
aa(lp4927
S'UPPERCLASS'
p4928
ag3439
aS'612'
p4929
aa(lp4930
S'UPPERCLASS'
p4931
ag122
aS'274'
p4932
aa(lp4933
S'UPPERCLASS'
p4934
ag122
aS'272'
p4935
aa(lp4936
S'UPPERCLASS'
p4937
ag122
aS'401'
p4938
aa(lp4939
S'UPPERCLASS'
p4940
ag122
aS'318'
p4941
aa(lp4942
S'UPPERCLASS'
p4943
ag11
aS'421'
p4944
aa(lp4945
S'UPPERCLASS'
p4946
ag3587
aS'203'
p4947
aa(lp4948
S'UPPERCLASS'
p4949
ag78
aS'432'
p4950
aa(lp4951
S'UPPERCLASS'
p4952
ag122
aS'132'
p4953
aa(lp4954
S'UPPERCLASS'
p4955
ag30
aS'226'
p4956
aa(lp4957
S'UPPERCLASS'
p4958
ag11
aS'331'
p4959
aa(lp4960
S'UPPERCLASS'
p4961
ag122
aS'372'
p4962
aa(lp4963
S'UPPERCLASS'
p4964
ag122
aS'368'
p4965
aa(lp4966
S'UPPERCLASS'
p4967
ag122
aS'366'
p4968
aa(lp4969
S'UPPERCLASS'
p4970
ag122
aS'370'
p4971
aa(lp4972
S'UPPERCLASS'
p4973
ag122
aS'308'
p4974
aa(lp4975
S'UPPERCLASS'
p4976
ag122
aS'310'
p4977
aa(lp4978
S'UPPERCLASS'
p4979
ag122
aS'324'
p4980
aa(lp4981
S'UPPERCLASS'
p4982
ag122
aS'326'
p4983
aa(lp4984
S'UPPERCLASS'
p4985
ag122
aS'349'
p4986
aa(lp4987
S'UPPERCLASS'
p4988
ag122
aS'232'
p4989
aa(lp4990
S'UPPERCLASS'
p4991
ag122
aS'347'
p4992
aa(lp4993
S'UPPERCLASS'
p4994
ag122
aS'353'
p4995
aa(lp4996
S'UPPERCLASS'
p4997
ag122
aS'416'
p4998
aa(lp4999
S'UPPERCLASS'
p5000
ag3153
aS'131'
p5001
aa(lp5002
S'UPPERCLASS'
p5003
ag3439
aS'614'
p5004
aa(lp5005
S'UPPERCLASS'
p5006
ag30
aS'512'
p5007
aa(lp5008
S'UPPERCLASS'
p5009
ag78
aS'626'
p5010
aa(lp5011
S'UPPERCLASS'
p5012
ag11
aS'232'
p5013
aa(lp5014
S'UPPERCLASS'
p5015
ag3153
aS'202'
p5016
aa(lp5017
S'UPPERCLASS'
p5018
ag78
aS'437'
p5019
aa(lp5020
S'UPPERCLASS'
p5021
ag3153
aS'203'
p5022
aa(lp5023
S'UPPERCLASS'
p5024
ag3153
aS'311'
p5025
aa(lp5026
S'UPPERCLASS'
p5027
ag3153
aS'215'
p5028
aa(lp5029
S'UPPERCLASS'
p5030
ag71
aS'121'
p5031
aa(lp5032
S'UPPERCLASS'
p5033
ag71
aS'122'
p5034
aa(lp5035
S'UPPERCLASS'
p5036
ag122
aS'402'
p5037
aa(lp5038
S'UPPERCLASS'
p5039
ag3439
aS'532'
p5040
aa(lp5041
S'UPPERCLASS'
p5042
ag88
aS'323'
p5043
aa(lp5044
S'UPPERCLASS'
p5045
ag171
aS'061'
p5046
aa(lp5047
S'UPPERCLASS'
p5048
ag171
aS'088'
p5049
aa(lp5050
S'UPPERCLASS'
p5051
ag122
aS'364'
p5052
aa(lp5053
S'UPPERCLASS'
p5054
ag3153
aS'301'
p5055
aa(lp5056
S'UPPERCLASS'
p5057
ag3153
aS'222'
p5058
aa(lp5059
S'UPPERCLASS'
p5060
ag78
aS'143'
p5061
aa(lp5062
S'UPPERCLASS'
p5063
ag3276
aS'611'
p5064
aa(lp5065
S'UPPERCLASS'
p5066
ag88
aS'332'
p5067
aa(lp5068
S'UPPERCLASS'
p5069
ag122
aS'412'
p5070
aa(lp5071
S'UPPERCLASS'
p5072
ag122
aS'414'
p5073
aa(lp5074
S'UPPERCLASS'
p5075
ag122
aS'410'
p5076
aa(lp5077
S'UPPERCLASS'
p5078
ag3153
aS'124'
p5079
aa(lp5080
S'UPPERCLASS'
p5081
ag122
aS'301'
p5082
aa(lp5083
S'UPPERCLASS'
p5084
ag78
aS'335'
p5085
aa(lp5086
S'UPPERCLASS'
p5087
ag122
aS'142'
p5088
aa(lp5089
S'UPPERCLASS'
p5090
ag3276
aS'112'
p5091
aa(lp5092
S'UPPERCLASS'
p5093
ag3276
aS'122'
p5094
aa(lp5095
S'UPPERCLASS'
p5096
ag3153
aS'102'
p5097
aa(lp5098
S'UPPERCLASS'
p5099
ag30
aS'432'
p5100
aa(lp5101
S'UPPERCLASS'
p5102
ag30
aS'413'
p5103
aa(lp5104
S'UPPERCLASS'
p5105
ag3276
aS'111'
p5106
aa(lp5107
S'UPPERCLASS'
p5108
ag122
aS'164'
p5109
aa(lp5110
S'UPPERCLASS'
p5111
ag122
aS'417'
p5112
aa(lp5113
S'UPPERCLASS'
p5114
ag122
aS'415'
p5115
aa(lp5116
S'UPPERCLASS'
p5117
ag71
aS'A40'
p5118
aa(lp5119
S'UPPERCLASS'
p5120
ag122
aS'114'
p5121
aa(lp5122
S'UPPERCLASS'
p5123
ag122
aS'374'
p5124
aa(lp5125
S'UPPERCLASS'
p5126
ag122
aS'413'
p5127
aa(lp5128
S'UPPERCLASS'
p5129
ag122
aS'208'
p5130
aa(lp5131
S'UPPERCLASS'
p5132
ag122
aS'218'
p5133
aa(lp5134
S'UPPERCLASS'
p5135
ag3587
aS'327'
p5136
aa(lp5137
S'UPPERCLASS'
p5138
ag3163
aS'418'
p5139
aa(lp5140
S'UPPERCLASS'
p5141
ag3587
aS'312'
p5142
aa(lp5143
S'UPPERCLASS'
p5144
ag88
aS'113'
p5145
aa(lp5146
S'UPPERCLASS'
p5147
ag122
aS'153'
p5148
aa(lp5149
S'UPPERCLASS'
p5150
ag3587
aS'121'
p5151
aa(lp5152
S'UPPERCLASS'
p5153
ag88
aS'314'
p5154
aa(lp5155
S'UPPERCLASS'
p5156
ag3153
aS'211'
p5157
aa(lp5158
S'UPPERCLASS'
p5159
ag3153
aS'331'
p5160
aa(lp5161
S'UPPERCLASS'
p5162
ag88
aS'321'
p5163
aa(lp5164
S'UPPERCLASS'
p5165
ag122
aS'207'
p5166
aa(lp5167
S'UPPERCLASS'
p5168
ag122
aS'422'
p5169
aa(lp5170
S'UPPERCLASS'
p5171
ag171
aS'T03'
p5172
aa(lp5173
S'UPPERCLASS'
p5174
ag3276
aS'622'
p5175
aa(lp5176
S'UPPERCLASS'
p5177
ag3276
aS'623'
p5178
aa(lp5179
S'UPPERCLASS'
p5180
ag122
aS'306'
p5181
aa(lp5182
S'UPPERCLASS'
p5183
ag122
aS'314'
p5184
aa(lp5185
S'UPPERCLASS'
p5186
ag122
aS'406'
p5187
aa(lp5188
S'UPPERCLASS'
p5189
ag78
aS'141'
p5190
aa(lp5191
S'UPPERCLASS'
p5192
ag122
aS'405'
p5193
aa(lp5194
S'UPPERCLASS'
p5195
ag122
aS'411'
p5196
aa(lp5197
S'UPPERCLASS'
p5198
ag122
aS'408'
p5199
aa(lp5200
S'UPPERCLASS'
p5201
ag122
aS'404'
p5202
aa(lp5203
S'UPPERCLASS'
p5204
ag122
aS'409'
p5205
aa(lp5206
S'UPPERCLASS'
p5207
ag122
aS'149'
p5208
aa(lp5209
S'UPPERCLASS'
p5210
ag3276
aS'311'
p5211
aa(lp5212
S'UPPERCLASS'
p5213
ag3276
aS'312'
p5214
aa(lp5215
S'UPPERCLASS'
p5216
ag88
aS'232'
p5217
aa(lp5218
S'UPPERCLASS'
p5219
ag78
aS'630'
p5220
aa(lp5221
S'UPPERCLASS'
p5222
ag78
aS'441A'
p5223
aa(lp5224
S'UPPERCLASS'
p5225
ag78
aS'441'
p5226
aa(lp5227
S'UPPERCLASS'
p5228
ag122
aS'447'
p5229
aa(lp5230
S'UPPERCLASS'
p5231
ag88
aS'133'
p5232
aa(lp5233
S'UPPERCLASS'
p5234
ag3276
aS'121'
p5235
aa(lp5236
S'UPPERCLASS'
p5237
ag71
aS'A38'
p5238
aa(lp5239
S'UPPERCLASS'
p5240
ag78
aS'440'
p5241
aa(lp5242
S'UPPERCLASS'
p5243
ag122
aS'107'
p5244
aa(lp5245
S'UPPERCLASS'
p5246
ag78
aS'346'
p5247
aa(lp5248
S'UPPERCLASS'
p5249
ag122
aS'201'
p5250
aa(lp5251
S'UPPERCLASS'
p5252
ag11
aS'201'
p5253
aa(lp5254
S'UPPERCLASS'
p5255
ag11
aS'422'
p5256
aa(lp5257
S'UPPERCLASS'
p5258
ag78
aS'230'
p5259
aa(lp5260
S'UPPERCLASS'
p5261
ag88
aS'331'
p5262
aa(lp5263
S'UPPERCLASS'
p5264
ag171
aS'030'
p5265
aa(lp5266
S'UPPERCLASS'
p5267
ag3153
aS'222A'
p5268
aa(lp5269
S'UPPERCLASS'
p5270
ag3276
aS'414'
p5271
aa(lp5272
S'UPPERCLASS'
p5273
ag3
aS'036'
p5274
aa(lp5275
S'UPPERCLASS'
p5276
ag11
aS'431'
p5277
aa(lp5278
S'UPPERCLASS'
p5279
ag3
aS'026'
p5280
aa(lp5281
S'UPPERCLASS'
p5282
ag3
aS'032'
p5283
aa(lp5284
S'UPPERCLASS'
p5285
ag3
aS'034'
p5286
aa(lp5287
S'UPPERCLASS'
p5288
ag3
aS'024'
p5289
aa(lp5290
S'UPPERCLASS'
p5291
ag3276
aS'613'
p5292
aa(lp5293
S'UPPERCLASS'
p5294
ag78
aS'602'
p5295
aa(lp5296
S'UPPERCLASS'
p5297
ag3276
aS'522'
p5298
aa(lp5299
S'UPPERCLASS'
p5300
ag3276
aS'211'
p5301
aa(lp5302
S'UPPERCLASS'
p5303
ag30
aS'324'
p5304
aa(lp5305
S'UPPERCLASS'
p5306
ag3230
aS'021'
p5307
aa(lp5308
S'UPPERCLASS'
p5309
ag71
aS'A48'
p5310
aa(lp5311
S'UPPERCLASS'
p5312
ag3276
aS'612'
p5313
aa(lp5314
S'UPPERCLASS'
p5315
ag88
aS'123'
p5316
aa(lp5317
S'UPPERCLASS'
p5318
ag88
aS'124'
p5319
aa(lp5320
S'UPPERCLASS'
p5321
ag3276
aS'403'
p5322
aa(lp5323
S'UPPERCLASS'
p5324
ag3587
aS'222'
p5325
aa(lp5326
S'UPPERCLASS'
p5327
ag3587
aS'133'
p5328
aa(lp5329
S'UPPERCLASS'
p5330
ag88
aS'111'
p5331
aa(lp5332
S'UPPERCLASS'
p5333
ag88
aS'114'
p5334
aa(lp5335
S'UPPERCLASS'
p5336
ag3
aS'031'
p5337
aa(lp5338
S'UPPERCLASS'
p5339
ag78
aS'442'
p5340
aa(lp5341
S'UPPERCLASS'
p5342
ag78
aS'641'
p5343
aa(lp5344
S'UPPERCLASS'
p5345
ag3276
aS'621'
p5346
aa(lp5347
S'UPPERCLASS'
p5348
ag171
aS'073'
p5349
aa(lp5350
S'UPPERCLASS'
p5351
ag78
aS'642'
p5352
aa(lp5353
S'UPPERCLASS'
p5354
ag88
aS'234'
p5355
aa(lp5356
S'UPPERCLASS'
p5357
ag3587
aS'304'
p5358
aa(lp5359
S'UPPERCLASS'
p5360
ag30
aS'501'
p5361
aa(lp5362
S'UPPERCLASS'
p5363
ag30
aS'504'
p5364
aa(lp5365
S'UPPERCLASS'
p5366
ag11
aS'121'
p5367
aa(lp5368
S'UPPERCLASS'
p5369
ag11
aS'213'
p5370
aa(lp5371
S'UPPERCLASS'
p5372
ag3153
aS'123'
p5373
aa(lp5374
S'UPPERCLASS'
p5375
ag3153
aS'133'
p5376
aa(lp5377
S'UPPERCLASS'
p5378
ag171
aS'T01'
p5379
aa(lp5380
S'UPPERCLASS'
p5381
ag3276
aS'413'
p5382
aa(lp5383
S'UPPERCLASS'
p5384
ag3276
aS'221'
p5385
aa(lp5386
S'UPPERCLASS'
p5387
ag171
aS'090'
p5388
aa(lp5389
S'UPPERCLASS'
p5390
ag3439
aS'531'
p5391
aa(lp5392
S'UPPERCLASS'
p5393
ag3163
aS'427'
p5394
aa(lp5395
S'UPPERCLASS'
p5396
ag3276
aS'633'
p5397
aa(lp5398
S'UPPERCLASS'
p5399
ag3163
aS'212'
p5400
aa(lp5401
S'UPPERCLASS'
p5402
ag11
aS'234'
p5403
aa(lp5404
S'UPPERCLASS'
p5405
ag3276
aS'321'
p5406
aa(lp5407
S'UPPERCLASS'
p5408
ag78
aS'232'
p5409
aa(lp5410
S'UPPERCLASS'
p5411
ag3587
aS'221'
p5412
aa(lp5413
S'UPPERCLASS'
p5414
ag30
aS'311'
p5415
aa(lp5416
S'UPPERCLASS'
p5417
ag30
aS'314'
p5418
aa(lp5419
S'UPPERCLASS'
p5420
ag171
aS'060'
p5421
aa(lp5422
S'UPPERCLASS'
p5423
ag3163
aS'228'
p5424
aa(lp5425
S'UPPERCLASS'
p5426
ag71
aS'145'
p5427
aa(lp5428
S'UPPERCLASS'
p5429
ag3276
aS'222'
p5430
aa(lp5431
S'UPPERCLASS'
p5432
ag3276
aS'322'
p5433
aa(lp5434
S'UPPERCLASS'
p5435
ag3587
aS'211'
p5436
aa(lp5437
S'UPPERCLASS'
p5438
ag3153
aS'421'
p5439
aa(lp5440
S'UPPERCLASS'
p5441
ag78
aS'443'
p5442
aa(lp5443
S'UPPERCLASS'
p5444
ag78
aS'333'
p5445
aa(lp5446
S'UPPERCLASS'
p5447
ag78
aS'323'
p5448
aa(lp5449
S'UPPERCLASS'
p5450
ag3163
aS'227'
p5451
aa(lp5452
S'UPPERCLASS'
p5453
ag3276
aS'212'
p5454
aa(lp5455
S'UPPERCLASS'
p5456
ag30
aS'244'
p5457
aa(lp5458
S'UPPERCLASS'
p5459
ag3163
aS'318'
p5460
aa(lp5461
S'UPPERCLASS'
p5462
ag78
aS'728'
p5463
aa(lp5464
S'UPPERCLASS'
p5465
ag78
aS'242'
p5466
aa(lp5467
S'UPPERCLASS'
p5468
ag3163
aS'221'
p5469
aa(lp5470
S'UPPERCLASS'
p5471
ag30
aS'321'
p5472
aa(lp5473
S'UPPERCLASS'
p5474
ag30
aS'401'
p5475
aa(lp5476
S'UPPERCLASS'
p5477
ag3439
aS'616'
p5478
aa(lp5479
S'UPPERCLASS'
p5480
ag3163
aS'327'
p5481
aa(lp5482
S'UPPERCLASS'
p5483
ag78
aS'142'
p5484
aa(lp5485
S'UPPERCLASS'
p5486
ag3276
aS'437'
p5487
aa(lp5488
S'UPPERCLASS'
p5489
ag3153
aS'122'
p5490
aa(lp5491
S'UPPERCLASS'
p5492
ag3587
aS'114'
p5493
aa(lp5494
S'UPPERCLASS'
p5495
ag3587
aS'111'
p5496
aa(lp5497
S'UPPERCLASS'
p5498
ag3276
aS'412'
p5499
aa(lp5500
S'UPPERCLASS'
p5501
ag3153
aS'141'
p5502
aa(lp5503
S'UPPERCLASS'
p5504
ag3587
aS'321'
p5505
aa(lp5506
S'UPPERCLASS'
p5507
ag71
aS'097'
p5508
aa(lp5509
S'UPPERCLASS'
p5510
ag3153
aS'323'
p5511
aa(lp5512
S'UPPERCLASS'
p5513
ag3276
aS'402'
p5514
aa(lp5515
S'UPPERCLASS'
p5516
ag3276
aS'422'
p5517
aa(lp5518
S'UPPERCLASS'
p5519
ag71
aS'105'
p5520
aa(lp5521
S'UPPERCLASS'
p5522
ag88
aS'151'
p5523
aa(lp5524
S'UPPERCLASS'
p5525
ag30
aS'236'
p5526
aa(lp5527
S'UPPERCLASS'
p5528
ag3163
aS'419'
p5529
aa(lp5530
S'UPPERCLASS'
p5531
ag30
aS'123'
p5532
aa(lp5533
S'UPPERCLASS'
p5534
ag11
aS'214'
p5535
aa(lp5536
S'UPPERCLASS'
p5537
ag71
aS'093'
p5538
aa(lp5539
S'UPPERCLASS'
p5540
ag3153
aS'403'
p5541
aa(lp5542
S'UPPERCLASS'
p5543
ag71
aS'101'
p5544
aa(lp5545
S'UPPERCLASS'
p5546
ag71
aS'103'
p5547
aa(lp5548
S'UPPERCLASS'
p5549
ag3163
aS'412'
p5550
aa(lp5551
S'UPPERCLASS'
p5552
ag11
aS'311'
p5553
aa(lp5554
S'UPPERCLASS'
p5555
ag3153
aS'212'
p5556
aa(lp5557
S'UPPERCLASS'
p5558
ag11
aS'321'
p5559
aa(lp5560
S'UPPERCLASS'
p5561
ag122
aS'307'
p5562
aa(lp5563
S'UPPERCLASS'
p5564
ag3587
aS'131'
p5565
aa(lp5566
S'UPPERCLASS'
p5567
ag3587
aS'305'
p5568
aa(lp5569
S'UPPERCLASS'
p5570
ag88
aS'212'
p5571
aa(lp5572
S'UPPERCLASS'
p5573
ag3153
aS'112'
p5574
aa(lp5575
S'UPPERCLASS'
p5576
ag3587
aS'326'
p5577
aa(lp5578
S'UPPERCLASS'
p5579
ag88
aS'333'
p5580
aa(lp5581
S'UPPERCLASS'
p5582
ag3163
aS'112'
p5583
aa(lp5584
S'UPPERCLASS'
p5585
ag11
aS'103'
p5586
aa(lp5587
S'UPPERCLASS'
p5588
ag88
aS'112'
p5589
aa(lp5590
S'UPPERCLASS'
p5591
ag88
aS'122'
p5592
aa(lp5593
S'UPPERCLASS'
p5594
ag3587
aS'316'
p5595
aa(lp5596
S'UPPERCLASS'
p5597
ag3163
aS'122'
p5598
aa(lp5599
S'UPPERCLASS'
p5600
ag3439
aS'631'
p5601
aa(lp5602
S'UPPERCLASS'
p5603
ag71
aS'091'
p5604
aa(lp5605
S'UPPERCLASS'
p5606
ag11
aS'113'
p5607
aa(lp5608
S'UPPERCLASS'
p5609
ag3163
aS'421'
p5610
aa(lp5611
S'UPPERCLASS'
p5612
ag3163
aS'320'
p5613
aa(lp5614
S'UPPERCLASS'
p5615
ag3163
aS'411'
p5616
aa(lp5617
S'UPPERCLASS'
p5618
ag78
aS'314'
p5619
aa(lp5620
S'UPPERCLASS'
p5621
ag78
aS'718'
p5622
aa(lp5623
S'UPPERCLASS'
p5624
ag3439
aS'632'
p5625
aa(lp5626
S'UPPERCLASS'
p5627
ag3439
aS'625'
p5628
aa(lp5629
S'UPPERCLASS'
p5630
ag3153
aS'115'
p5631
aa(lp5632
S'UPPERCLASS'
p5633
ag78
aS'614'
p5634
aa(lp5635
S'UPPERCLASS'
p5636
ag3163
aS'211'
p5637
aa(lp5638
S'UPPERCLASS'
p5639
ag78
aS'704'
p5640
aa(lp5641
S'UPPERCLASS'
p5642
ag88
aS'217'
p5643
aa(lp5644
S'UPPERCLASS'
p5645
ag3163
aS'311'
p5646
aa(lp5647
S'UPPERCLASS'
p5648
ag71
aS'A54'
p5649
aa(lp5650
S'UPPERCLASS'
p5651
ag3163
aS'428'
p5652
aa.