(lp0
(lp1
S'UPPERCLASS'
p2
aS'2 DICKINSON'
p3
aS'033'
p4
aa(lp5
S'UPPERCLASS'
p6
aS'SPELMAN'
p7
aS'056'
p8
aa(lp9
S'UPPERCLASS'
p10
aS'LOCKHART'
p11
aS'222'
p12
aa(lp13
S'UPPERCLASS'
p14
ag3
aS'023'
p15
aa(lp16
S'UPPERCLASS'
p17
ag7
aS'075'
p18
aa(lp19
S'UPPERCLASS'
p20
ag11
aS'224'
p21
aa(lp22
S'UPPERCLASS'
p23
ag3
aS'025'
p24
aa(lp25
S'UPPERCLASS'
p26
ag7
aS'076'
p27
aa(lp28
S'UPPERCLASS'
p29
aS'1903'
p30
aS'213'
p31
aa(lp32
S'UPPERCLASS'
p33
aS'WILF'
p34
aS'E401'
p35
aa(lp36
S'UPPERCLASS'
p37
ag3
aS'012'
p38
aa(lp39
S'UPPERCLASS'
p40
ag3
aS'010'
p41
aa(lp42
S'UPPERCLASS'
p43
ag7
aS'034'
p44
aa(lp45
S'UPPERCLASS'
p46
ag3
aS'022'
p47
aa(lp48
S'UPPERCLASS'
p49
ag7
aS'023'
p50
aa(lp51
S'UPPERCLASS'
p52
ag3
aS'011'
p53
aa(lp54
S'UPPERCLASS'
p55
ag30
aS'214'
p56
aa(lp57
S'UPPERCLASS'
p58
ag3
aS'020'
p59
aa(lp60
S'UPPERCLASS'
p61
ag3
aS'021'
p62
aa(lp63
S'UPPERCLASS'
p64
ag7
aS'014'
p65
aa(lp66
S'UPPERCLASS'
p67
ag3
aS'035'
p68
aa(lp69
S'UPPERCLASS'
p70
aS'LITTLE'
p71
aS'A36'
p72
aa(lp73
S'UPPERCLASS'
p74
ag11
aS'225'
p75
aa(lp76
S'UPPERCLASS'
p77
aS'PYNE'
p78
aS'115'
p79
aa(lp80
S'UPPERCLASS'
p81
ag7
aS'012'
p82
aa(lp83
S'UPPERCLASS'
p84
ag78
aS'133'
p85
aa(lp86
S'UPPERCLASS'
p87
aS'HENRY'
p88
aS'103'
p89
aa(lp90
S'UPPERCLASS'
p91
ag7
aS'054'
p92
aa(lp93
S'UPPERCLASS'
p94
ag7
aS'043'
p95
aa(lp96
S'UPPERCLASS'
p97
ag7
aS'024'
p98
aa(lp99
S'UPPERCLASS'
p100
ag7
aS'022'
p101
aa(lp102
S'UPPERCLASS'
p103
ag71
aS'A34'
p104
aa(lp105
S'UPPERCLASS'
p106
ag71
aS'A24'
p107
aa(lp108
S'UPPERCLASS'
p109
ag7
aS'046'
p110
aa(lp111
S'UPPERCLASS'
p112
ag7
aS'053'
p113
aa(lp114
S'UPPERCLASS'
p115
ag7
aS'063'
p116
aa(lp117
S'UPPERCLASS'
p118
ag7
aS'064'
p119
aa(lp120
S'UPPERCLASS'
p121
aS'SCULLY'
p122
aS'262'
p123
aa(lp124
S'UPPERCLASS'
p125
ag122
aS'260'
p126
aa(lp127
S'UPPERCLASS'
p128
ag122
aS'267'
p129
aa(lp130
S'UPPERCLASS'
p131
ag11
aS'235'
p132
aa(lp133
S'UPPERCLASS'
p134
ag7
aS'083'
p135
aa(lp136
S'UPPERCLASS'
p137
ag11
aS'322'
p138
aa(lp139
S'UPPERCLASS'
p140
ag7
aS'045'
p141
aa(lp142
S'UPPERCLASS'
p143
ag78
aS'114'
p144
aa(lp145
S'UPPERCLASS'
p146
ag7
aS'021'
p147
aa(lp148
S'UPPERCLASS'
p149
ag7
aS'065'
p150
aa(lp151
S'UPPERCLASS'
p152
ag7
aS'082'
p153
aa(lp154
S'UPPERCLASS'
p155
ag7
aS'036'
p156
aa(lp157
S'UPPERCLASS'
p158
ag7
aS'035'
p159
aa(lp160
S'UPPERCLASS'
p161
ag11
aS'241'
p162
aa(lp163
S'UPPERCLASS'
p164
ag7
aS'066'
p165
aa(lp166
S'UPPERCLASS'
p167
ag122
aS'168'
p168
aa(lp169
S'UPPERCLASS'
p170
aS'PATTON'
p171
aS'071'
p172
aa(lp173
S'UPPERCLASS'
p174
ag7
aS'038'
p175
aa(lp176
S'UPPERCLASS'
p177
ag7
aS'037'
p178
aa(lp179
S'UPPERCLASS'
p180
ag7
aS'084'
p181
aa(lp182
S'UPPERCLASS'
p183
ag7
aS'026'
p184
aa(lp185
S'UPPERCLASS'
p186
ag7
aS'085'
p187
aa(lp188
S'UPPERCLASS'
p189
ag7
aS'025'
p190
aa(lp191
S'UPPERCLASS'
p192
ag34
aS'E403'
p193
aa(lp194
S'UPPERCLASS'
p195
aS'DOD'
p196
aS'114'
p197
aa(lp198
S'UPPERCLASS'
p199
ag7
aS'067'
p200
aa(lp201
S'UPPERCLASS'
p202
ag196
aS'115'
p203
aa(lp204
S'UPPERCLASS'
p205
ag7
aS'052'
p206
aa(lp207
S'UPPERCLASS'
p208
ag7
aS'051'
p209
aa(lp210
S'UPPERCLASS'
p211
ag11
aS'231'
p212
aa(lp213
S'UPPERCLASS'
p214
ag11
aS'323'
p215
aa(lp216
S'UPPERCLASS'
p217
ag7
aS'048'
p218
aa(lp219
S'UPPERCLASS'
p220
ag7
aS'055'
p221
aa(lp222
S'UPPERCLASS'
p223
ag171
aS'086'
p224
aa(lp225
S'UPPERCLASS'
p226
ag7
aS'013'
p227
aa(lp228
S'UPPERCLASS'
p229
ag7
aS'081'
p230
aa(lp231
S'UPPERCLASS'
p232
ag78
aS'125'
p233
aa(lp234
S'UPPERCLASS'
p235
ag7
aS'016'
p236
aa(lp237
S'UPPERCLASS'
p238
ag88
aS'102'
p239
aa(lp240
S'UPPERCLASS'
p241
ag7
aS'032'
p242
aa(lp243
S'UPPERCLASS'
p244
ag7
aS'071'
p245
aa(lp246
S'UPPERCLASS'
p247
ag7
aS'073'
p248
aa(lp249
S'UPPERCLASS'
p250
ag196
aS'112'
p251
aa(lp252
S'UPPERCLASS'
p253
ag7
aS'047'
p254
aa(lp255
S'UPPERCLASS'
p256
ag196
aS'102N'
p257
aa(lp258
S'UPPERCLASS'
p259
ag7
aS'015'
p260
aa(lp261
S'UPPERCLASS'
p262
ag7
aS'068'
p263
aa(lp264
S'UPPERCLASS'
p265
ag122
aS'160'
p266
aa(lp267
S'UPPERCLASS'
p268
ag7
aS'017'
p269
aa(lp270
S'UPPERCLASS'
p271
ag11
aS'324'
p272
aa(lp273
S'UPPERCLASS'
p274
ag7
aS'078'
p275
aa(lp276
S'UPPERCLASS'
p277
ag7
aS'061'
p278
aa(lp279
S'UPPERCLASS'
p280
ag122
aS'265'
p281
aa(lp282
S'UPPERCLASS'
p283
ag171
aS'082'
p284
aa(lp285
S'UPPERCLASS'
p286
ag196
aS'111'
p287
aa(lp288
S'UPPERCLASS'
p289
ag7
aS'086'
p290
aa(lp291
S'UPPERCLASS'
p292
ag78
aS'116'
p293
aa(lp294
S'UPPERCLASS'
p295
ag196
aS'104'
p296
aa(lp297
S'UPPERCLASS'
p298
ag196
aS'105'
p299
aa(lp300
S'UPPERCLASS'
p301
ag7
aS'074'
p302
aa(lp303
S'UPPERCLASS'
p304
ag7
aS'018'
p305
aa(lp306
S'UPPERCLASS'
p307
ag7
aS'011'
p308
aa(lp309
S'UPPERCLASS'
p310
ag7
aS'077'
p311
aa(lp312
S'UPPERCLASS'
p313
ag122
aS'174'
p314
aa(lp315
S'UPPERCLASS'
p316
ag78
aS'122'
p317
aa(lp318
S'UPPERCLASS'
p319
ag122
aS'162'
p320
aa(lp321
S'UPPERCLASS'
p322
ag196
aS'101'
p323
aa(lp324
S'UPPERCLASS'
p325
ag11
aS'302'
p326
aa(lp327
S'UPPERCLASS'
p328
ag196
aS'103'
p329
aa(lp330
S'UPPERCLASS'
p331
ag122
aS'271'
p332
aa(lp333
S'UPPERCLASS'
p334
ag78
aS'113'
p335
aa(lp336
S'UPPERCLASS'
p337
ag11
aS'303'
p338
aa(lp339
S'UPPERCLASS'
p340
ag171
aS'080'
p341
aa(lp342
S'UPPERCLASS'
p343
ag196
aS'101S'
p344
aa(lp345
S'UPPERCLASS'
p346
ag122
aS'172'
p347
aa(lp348
S'UPPERCLASS'
p349
ag78
aS'112'
p350
aa(lp351
S'UPPERCLASS'
p352
ag196
aS'102'
p353
aa(lp354
S'UPPERCLASS'
p355
ag11
aS'233'
p356
aa(lp357
S'UPPERCLASS'
p358
ag78
aS'132'
p359
aa(lp360
S'UPPERCLASS'
p361
ag11
aS'304'
p362
aa(lp363
S'UPPERCLASS'
p364
ag196
aS'102S'
p365
aa(lp366
S'UPPERCLASS'
p367
ag71
aS'A10'
p368
aa(lp369
S'UPPERCLASS'
p370
ag122
aS'170'
p371
aa(lp372
S'UPPERCLASS'
p373
ag71
aS'A16'
p374
aa(lp375
S'UPPERCLASS'
p376
ag196
aS'106'
p377
aa(lp378
S'UPPERCLASS'
p379
ag34
aS'E402'
p380
aa(lp381
S'UPPERCLASS'
p382
ag122
aS'367'
p383
aa(lp384
S'UPPERCLASS'
p385
ag34
aS'E405'
p386
aa(lp387
S'UPPERCLASS'
p388
ag78
aS'131'
p389
aa(lp390
S'UPPERCLASS'
p391
ag71
aS'A28'
p392
aa(lp393
S'UPPERCLASS'
p394
ag78
aS'123'
p395
aa(lp396
S'MATHEY'
p397
ag71
aS'045'
p398
aa(lp399
S'WHITMAN'
p400
aS'FISHER'
p401
aS'A303'
p402
aa(lp403
S'WHITMAN'
p404
ag401
aS'A323'
p405
aa(lp406
S'BUTLER'
p407
aS'BLOOMBERG'
p408
aS'474'
p409
aa(lp410
S'MATHEY'
p411
ag71
aS'047'
p412
aa(lp413
S'MATHEY'
p414
aS'BLAIR'
p415
aS'B52'
p416
aa(lp417
S'BUTLER'
p418
aS'1976'
p419
aS'D304'
p420
aa(lp421
S'MATHEY'
p422
aS'JOLINE'
p423
aS'433'
p424
aa(lp425
S'WHITMAN'
p426
aS'WENDELL C'
p427
aS'B407'
p428
aa(lp429
S'WHITMAN'
p430
ag401
aS'A224'
p431
aa(lp432
S'BUTLER'
p433
ag408
aS'401'
p434
aa(lp435
S'WHITMAN'
p436
ag427
aS'C214'
p437
aa(lp438
S'BUTLER'
p439
ag419
aS'D204'
p440
aa(lp441
S'WHITMAN'
p442
ag427
aS'C216'
p443
aa(lp444
S'MATHEY'
p445
ag71
aS'062'
p446
aa(lp447
S'BUTLER'
p448
ag408
aS'357'
p449
aa(lp450
S'WHITMAN'
p451
aS'BAKER'
p452
aS'S305'
p453
aa(lp454
S'BUTLER'
p455
ag408
aS'459'
p456
aa(lp457
S'BUTLER'
p458
ag408
aS'349'
p459
aa(lp460
S'WHITMAN'
p461
aS'1981'
p462
aS'F027'
p463
aa(lp464
S'BUTLER'
p465
ag408
aS'447'
p466
aa(lp467
S'BUTLER'
p468
ag408
aS'451'
p469
aa(lp470
S'MATHEY'
p471
ag71
aS'395'
p472
aa(lp473
S'BUTLER'
p474
ag408
aS'461'
p475
aa(lp476
S'WHITMAN'
p477
ag452
aS'E113'
p478
aa(lp479
S'MATHEY'
p480
aS'EDWARDS'
p481
aS'415'
p482
aa(lp483
S'BUTLER'
p484
ag408
aS'369'
p485
aa(lp486
S'MATHEY'
p487
ag415
aS'B53'
p488
aa(lp489
S'WHITMAN'
p490
aS'HARGADON'
p491
aS'G203B'
p492
aa(lp493
S'WHITMAN'
p494
ag491
aS'G403'
p495
aa(lp496
S'WHITMAN'
p497
ag452
aS'S205'
p498
aa(lp499
S'BUTLER'
p500
aS'1967'
p501
aS'B305'
p502
aa(lp503
S'WHITMAN'
p504
ag491
aS'G304B'
p505
aa(lp506
S'BUTLER'
p507
ag501
aS'B309'
p508
aa(lp509
S'WHITMAN'
p510
ag401
aS'A308'
p511
aa(lp512
S'BUTLER'
p513
ag419
aS'D114'
p514
aa(lp515
S'MATHEY'
p516
ag423
aS'332'
p517
aa(lp518
S'WHITMAN'
p519
ag452
aS'S203'
p520
aa(lp521
S'WHITMAN'
p522
ag452
aS'S204'
p523
aa(lp524
S'MATHEY'
p525
ag71
aS'087'
p526
aa(lp527
S'MATHEY'
p528
ag71
aS'318'
p529
aa(lp530
S'WHITMAN'
p531
ag452
aS'E206'
p532
aa(lp533
S'BUTLER'
p534
ag408
aS'479'
p535
aa(lp536
S'WHITMAN'
p537
ag491
aS'G401'
p538
aa(lp539
S'MATHEY'
p540
ag415
aS'094'
p541
aa(lp542
S'MATHEY'
p543
ag71
aS'055'
p544
aa(lp545
S'BUTLER'
p546
ag34
aS'E103'
p547
aa(lp548
S'WHITMAN'
p549
ag491
aS'G311'
p550
aa(lp551
S'MATHEY'
p552
ag71
aS'385'
p553
aa(lp554
S'WHITMAN'
p555
ag491
aS'G309'
p556
aa(lp557
S'MATHEY'
p558
ag71
aS'303'
p559
aa(lp560
S'WHITMAN'
p561
ag452
aS'S104'
p562
aa(lp563
S'BUTLER'
p564
ag408
aS'456'
p565
aa(lp566
S'WHITMAN'
p567
ag427
aS'C215'
p568
aa(lp569
S'WHITMAN'
p570
ag491
aS'G404'
p571
aa(lp572
S'BUTLER'
p573
ag419
aS'D214'
p574
aa(lp575
S'MATHEY'
p576
ag71
aS'302'
p577
aa(lp578
S'BUTLER'
p579
ag408
aS'192'
p580
aa(lp581
S'BUTLER'
p582
ag34
aS'E105'
p583
aa(lp584
S'BUTLER'
p585
ag34
aS'E107'
p586
aa(lp587
S'BUTLER'
p588
ag34
aS'E104'
p589
aa(lp590
S'WHITMAN'
p591
ag491
aS'G207'
p592
aa(lp593
S'MATHEY'
p594
ag415
aS'B71'
p595
aa(lp596
S'WHITMAN'
p597
ag491
aS'G205'
p598
aa(lp599
S'WHITMAN'
p600
ag491
aS'G301'
p601
aa(lp602
S'MATHEY'
p603
ag481
aS'110'
p604
aa(lp605
S'BUTLER'
p606
ag34
aS'E108'
p607
aa(lp608
S'BUTLER'
p609
ag34
aS'E106'
p610
aa(lp611
S'WHITMAN'
p612
ag491
aS'G405'
p613
aa(lp614
S'WHITMAN'
p615
ag491
aS'G406'
p616
aa(lp617
S'MATHEY'
p618
aS'HAMILTON'
p619
aS'113'
p620
aa(lp621
S'WHITMAN'
p622
ag427
aS'C206'
p623
aa(lp624
S'WHITMAN'
p625
ag427
aS'B212'
p626
aa(lp627
S'WHITMAN'
p628
ag427
aS'C208'
p629
aa(lp630
S'WHITMAN'
p631
ag427
aS'C202'
p632
aa(lp633
S'WHITMAN'
p634
ag427
aS'C210'
p635
aa(lp636
S'WHITMAN'
p637
ag427
aS'C212'
p638
aa(lp639
S'WHITMAN'
p640
ag427
aS'C217'
p641
aa(lp642
S'BUTLER'
p643
ag408
aS'449'
p644
aa(lp645
S'BUTLER'
p646
aS'YOSELOFF'
p647
aS'A107'
p648
aa(lp649
S'WHITMAN'
p650
ag462
aS'F025'
p651
aa(lp652
S'BUTLER'
p653
aS'BOGLE'
p654
aS'C205'
p655
aa(lp656
S'MATHEY'
p657
ag423
aS'235'
p658
aa(lp659
S'MATHEY'
p660
ag423
aS'234'
p661
aa(lp662
S'MATHEY'
p663
ag423
aS'333'
p664
aa(lp665
S'MATHEY'
p666
ag481
aS'306'
p667
aa(lp668
S'WHITMAN'
p669
ag427
aS'B312'
p670
aa(lp671
S'WHITMAN'
p672
ag427
aS'B310'
p673
aa(lp674
S'BUTLER'
p675
ag419
aS'D316'
p676
aa(lp677
S'WHITMAN'
p678
ag491
aS'G203A'
p679
aa(lp680
S'BUTLER'
p681
ag419
aS'D314'
p682
aa(lp683
S'WHITMAN'
p684
aS'LAURITZEN'
p685
aS'D306'
p686
aa(lp687
S'WHITMAN'
p688
ag685
aS'D304'
p689
aa(lp690
S'BUTLER'
p691
ag408
aS'334'
p692
aa(lp693
S'BUTLER'
p694
ag408
aS'407'
p695
aa(lp696
S'BUTLER'
p697
ag408
aS'359'
p698
aa(lp699
S'BUTLER'
p700
ag408
aS'405'
p701
aa(lp702
S'BUTLER'
p703
ag408
aS'371'
p704
aa(lp705
S'BUTLER'
p706
ag408
aS'379'
p707
aa(lp708
S'BUTLER'
p709
ag408
aS'381'
p710
aa(lp711
S'WHITMAN'
p712
ag452
aS'S303'
p713
aa(lp714
S'WHITMAN'
p715
ag427
aS'B408'
p716
aa(lp717
S'BUTLER'
p718
ag408
aS'193'
p719
aa(lp720
S'BUTLER'
p721
ag408
aS'430'
p722
aa(lp723
S'WHITMAN'
p724
ag427
aS'C211'
p725
aa(lp726
S'WHITMAN'
p727
ag401
aS'A201'
p728
aa(lp729
S'WHITMAN'
p730
aS'MURLEY-PIVIROTTO'
p731
aS'T403'
p732
aa(lp733
S'BUTLER'
p734
ag408
aS'348'
p735
aa(lp736
S'WHITMAN'
p737
ag491
aS'G407A'
p738
aa(lp739
S'WHITMAN'
p740
ag462
aS'F102'
p741
aa(lp742
S'BUTLER'
p743
ag408
aS'124'
p744
aa(lp745
S'BUTLER'
p746
ag647
aS'A205'
p747
aa(lp748
S'BUTLER'
p749
ag647
aS'A207'
p750
aa(lp751
S'BUTLER'
p752
ag408
aS'281'
p753
aa(lp754
S'BUTLER'
p755
ag408
aS'111'
p756
aa(lp757
S'MATHEY'
p758
ag481
aS'104'
p759
aa(lp760
S'MATHEY'
p761
ag481
aS'113'
p762
aa(lp763
S'MATHEY'
p764
ag481
aS'413'
p765
aa(lp766
S'MATHEY'
p767
ag71
aS'057'
p768
aa(lp769
S'BUTLER'
p770
ag408
aS'269'
p771
aa(lp772
S'MATHEY'
p773
ag415
aS'B51'
p774
aa(lp775
S'BUTLER'
p776
ag408
aS'276'
p777
aa(lp778
S'MATHEY'
p779
ag71
aS'085'
p780
aa(lp781
S'MATHEY'
p782
ag481
aS'405'
p783
aa(lp784
S'MATHEY'
p785
ag481
aS'408'
p786
aa(lp787
S'MATHEY'
p788
ag481
aS'106'
p789
aa(lp790
S'WHITMAN'
p791
ag462
aS'F201'
p792
aa(lp793
S'BUTLER'
p794
ag501
aS'B206'
p795
aa(lp796
S'BUTLER'
p797
ag408
aS'434'
p798
aa(lp799
S'BUTLER'
p800
ag34
aS'E306'
p801
aa(lp802
S'BUTLER'
p803
ag34
aS'E308'
p804
aa(lp805
S'WHITMAN'
p806
ag462
aS'F301'
p807
aa(lp808
S'WHITMAN'
p809
ag452
aS'E308'
p810
aa(lp811
S'WHITMAN'
p812
ag462
aS'F225'
p813
aa(lp814
S'WHITMAN'
p815
ag462
aS'F227'
p816
aa(lp817
S'MATHEY'
p818
ag481
aS'314'
p819
aa(lp820
S'BUTLER'
p821
ag408
aS'402'
p822
aa(lp823
S'WHITMAN'
p824
ag491
aS'G304A'
p825
aa(lp826
S'UPPERCLASS'
p827
ag196
aS'116'
p828
aa(lp829
S'UPPERCLASS'
p830
ag196
aS'117'
p831
aa(lp832
S'BUTLER'
p833
ag408
aS'121'
p834
aa(lp835
S'MATHEY'
p836
ag481
aS'310'
p837
aa(lp838
S'MATHEY'
p839
ag481
aS'416'
p840
aa(lp841
S'BUTLER'
p842
ag419
aS'D210'
p843
aa(lp844
S'MATHEY'
p845
ag423
aS'412'
p846
aa(lp847
S'MATHEY'
p848
ag415
aS'114'
p849
aa(lp850
S'MATHEY'
p851
ag423
aS'422'
p852
aa(lp853
S'BUTLER'
p854
ag408
aS'314'
p855
aa(lp856
S'WHITMAN'
p857
ag452
aS'E412'
p858
aa(lp859
S'MATHEY'
p860
ag415
aS'B73'
p861
aa(lp862
S'MATHEY'
p863
ag71
aS'311'
p864
aa(lp865
S'MATHEY'
p866
ag415
aS'B82'
p867
aa(lp868
S'WHITMAN'
p869
ag452
aS'E414'
p870
aa(lp871
S'WHITMAN'
p872
ag462
aS'F104'
p873
aa(lp874
S'BUTLER'
p875
ag408
aS'181'
p876
aa(lp877
S'WHITMAN'
p878
ag452
aS'E105'
p879
aa(lp880
S'BUTLER'
p881
ag408
aS'301'
p882
aa(lp883
S'MATHEY'
p884
ag423
aS'311'
p885
aa(lp886
S'BUTLER'
p887
ag408
aS'346'
p888
aa(lp889
S'MATHEY'
p890
ag71
aS'083'
p891
aa(lp892
S'BUTLER'
p893
ag34
aS'E201'
p894
aa(lp895
S'WHITMAN'
p896
ag427
aS'C209'
p897
aa(lp898
S'BUTLER'
p899
ag647
aS'A105'
p900
aa(lp901
S'WHITMAN'
p902
ag452
aS'E323'
p903
aa(lp904
S'WHITMAN'
p905
ag452
aS'E120'
p906
aa(lp907
S'WHITMAN'
p908
ag452
aS'E221'
p909
aa(lp910
S'BUTLER'
p911
ag408
aS'411'
p912
aa(lp913
S'WHITMAN'
p914
ag401
aS'A318'
p915
aa(lp916
S'BUTLER'
p917
ag34
aS'E301'
p918
aa(lp919
S'MATHEY'
p920
ag71
aS'393'
p921
aa(lp922
S'BUTLER'
p923
ag34
aS'E208'
p924
aa(lp925
S'BUTLER'
p926
ag34
aS'E206'
p927
aa(lp928
S'BUTLER'
p929
ag34
aS'E303'
p930
aa(lp931
S'MATHEY'
p932
ag71
aS'323'
p933
aa(lp934
S'MATHEY'
p935
ag619
aS'221'
p936
aa(lp937
S'WHITMAN'
p938
ag401
aS'A312'
p939
aa(lp940
S'BUTLER'
p941
ag408
aS'409'
p942
aa(lp943
S'MATHEY'
p944
ag481
aS'108'
p945
aa(lp946
S'MATHEY'
p947
ag71
aS'381'
p948
aa(lp949
S'BUTLER'
p950
ag408
aS'277'
p951
aa(lp952
S'BUTLER'
p953
ag408
aS'279'
p954
aa(lp955
S'MATHEY'
p956
ag415
aS'B83'
p957
aa(lp958
S'WHITMAN'
p959
ag491
aS'G306'
p960
aa(lp961
S'WHITMAN'
p962
ag685
aS'D312'
p963
aa(lp964
S'MATHEY'
p965
ag71
aS'051'
p966
aa(lp967
S'WHITMAN'
p968
ag427
aS'B316'
p969
aa(lp970
S'MATHEY'
p971
ag415
aS'A02'
p972
aa(lp973
S'BUTLER'
p974
ag501
aS'B205'
p975
aa(lp976
S'BUTLER'
p977
ag501
aS'B208'
p978
aa(lp979
S'WHITMAN'
p980
ag685
aS'D314'
p981
aa(lp982
S'BUTLER'
p983
ag408
aS'463'
p984
aa(lp985
S'WHITMAN'
p986
ag462
aS'F017'
p987
aa(lp988
S'WHITMAN'
p989
ag401
aS'A316'
p990
aa(lp991
S'BUTLER'
p992
ag408
aS'310'
p993
aa(lp994
S'WHITMAN'
p995
ag427
aS'B317'
p996
aa(lp997
S'MATHEY'
p998
ag71
aS'025'
p999
aa(lp1000
S'BUTLER'
p1001
ag408
aS'436'
p1002
aa(lp1003
S'BUTLER'
p1004
ag408
aS'340'
p1005
aa(lp1006
S'WHITMAN'
p1007
ag401
aS'A101'
p1008
aa(lp1009
S'MATHEY'
p1010
ag71
aS'389'
p1011
aa(lp1012
S'BUTLER'
p1013
ag408
aS'465'
p1014
aa(lp1015
S'BUTLER'
p1016
ag408
aS'469'
p1017
aa(lp1018
S'MATHEY'
p1019
ag481
aS'409'
p1020
aa(lp1021
S'WHITMAN'
p1022
ag427
aS'C207'
p1023
aa(lp1024
S'BUTLER'
p1025
ag408
aS'471'
p1026
aa(lp1027
S'BUTLER'
p1028
ag408
aS'467'
p1029
aa(lp1030
S'BUTLER'
p1031
ag408
aS'457'
p1032
aa(lp1033
S'MATHEY'
p1034
ag481
aS'315'
p1035
aa(lp1036
S'MATHEY'
p1037
ag481
aS'407'
p1038
aa(lp1039
S'BUTLER'
p1040
ag34
aS'E203'
p1041
aa(lp1042
S'WHITMAN'
p1043
ag462
aS'F101'
p1044
aa(lp1045
S'WHITMAN'
p1046
ag427
aS'C213'
p1047
aa(lp1048
S'BUTLER'
p1049
ag408
aS'305'
p1050
aa(lp1051
S'BUTLER'
p1052
ag408
aS'307'
p1053
aa(lp1054
S'WHITMAN'
p1055
ag452
aS'E108'
p1056
aa(lp1057
S'WHITMAN'
p1058
ag401
aS'A225'
p1059
aa(lp1060
S'WHITMAN'
p1061
ag427
aS'B210'
p1062
aa(lp1063
S'BUTLER'
p1064
ag408
aS'306'
p1065
aa(lp1066
S'BUTLER'
p1067
ag408
aS'308'
p1068
aa(lp1069
S'WHITMAN'
p1070
ag462
aS'F023'
p1071
aa(lp1072
S'BUTLER'
p1073
ag408
aS'361'
p1074
aa(lp1075
S'WHITMAN'
p1076
ag685
aS'D108'
p1077
aa(lp1078
S'WHITMAN'
p1079
ag685
aS'D110'
p1080
aa(lp1081
S'MATHEY'
p1082
ag71
aS'391'
p1083
aa(lp1084
S'BUTLER'
p1085
ag654
aS'C203'
p1086
aa(lp1087
S'MATHEY'
p1088
ag481
aS'107'
p1089
aa(lp1090
S'WHITMAN'
p1091
ag452
aS'E321'
p1092
aa(lp1093
S'BUTLER'
p1094
ag419
aS'D216'
p1095
aa(lp1096
S'BUTLER'
p1097
ag408
aS'408'
p1098
aa(lp1099
S'BUTLER'
p1100
ag408
aS'404'
p1101
aa(lp1102
S'BUTLER'
p1103
ag408
aS'406'
p1104
aa(lp1105
S'BUTLER'
p1106
ag34
aS'E102'
p1107
aa(lp1108
S'WHITMAN'
p1109
ag452
aS'E317'
p1110
aa(lp1111
S'BUTLER'
p1112
ag408
aS'326'
p1113
aa(lp1114
S'MATHEY'
p1115
ag423
aS'312'
p1116
aa(lp1117
S'WHITMAN'
p1118
ag731
aS'T402'
p1119
aa(lp1120
S'WHITMAN'
p1121
ag452
aS'E212'
p1122
aa(lp1123
S'WHITMAN'
p1124
ag452
aS'E214'
p1125
aa(lp1126
S'BUTLER'
p1127
ag408
aS'445'
p1128
aa(lp1129
S'WHITMAN'
p1130
ag685
aS'D201'
p1131
aa(lp1132
S'BUTLER'
p1133
ag408
aS'316'
p1134
aa(lp1135
S'MATHEY'
p1136
ag71
aS'077'
p1137
aa(lp1138
S'WHITMAN'
p1139
ag685
aS'D206'
p1140
aa(lp1141
S'BUTLER'
p1142
ag408
aS'226'
p1143
aa(lp1144
S'BUTLER'
p1145
ag408
aS'175'
p1146
aa(lp1147
S'WHITMAN'
p1148
ag462
aS'F123'
p1149
aa(lp1150
S'BUTLER'
p1151
aS'1915'
p1152
aS'411'
p1153
aa(lp1154
S'BUTLER'
p1155
ag408
aS'177'
p1156
aa(lp1157
S'MATHEY'
p1158
ag481
aS'111'
p1159
aa(lp1160
S'WHITMAN'
p1161
ag452
aS'E109'
p1162
aa(lp1163
S'WHITMAN'
p1164
ag452
aS'E210'
p1165
aa(lp1166
S'WHITMAN'
p1167
ag452
aS'E123'
p1168
aa(lp1169
S'WHITMAN'
p1170
ag452
aS'E125'
p1171
aa(lp1172
S'MATHEY'
p1173
ag481
aS'109'
p1174
aa(lp1175
S'WHITMAN'
p1176
ag452
aS'E118'
p1177
aa(lp1178
S'BUTLER'
p1179
ag408
aS'325'
p1180
aa(lp1181
S'BUTLER'
p1182
ag408
aS'327'
p1183
aa(lp1184
S'MATHEY'
p1185
ag423
aS'225'
p1186
aa(lp1187
S'WHITMAN'
p1188
ag685
aS'D302'
p1189
aa(lp1190
S'WHITMAN'
p1191
ag452
aS'E423'
p1192
aa(lp1193
S'MATHEY'
p1194
ag481
aS'311'
p1195
aa(lp1196
S'WHITMAN'
p1197
ag685
aS'D311'
p1198
aa(lp1199
S'MATHEY'
p1200
ag481
aS'305'
p1201
aa(lp1202
S'BUTLER'
p1203
ag408
aS'336'
p1204
aa(lp1205
S'WHITMAN'
p1206
ag452
aS'E421'
p1207
aa(lp1208
S'BUTLER'
p1209
ag408
aS'342'
p1210
aa(lp1211
S'BUTLER'
p1212
ag408
aS'344'
p1213
aa(lp1214
S'WHITMAN'
p1215
ag452
aS'E223'
p1216
aa(lp1217
S'MATHEY'
p1218
aS'CAMPBELL'
p1219
aS'006B'
p1220
aa(lp1221
S'MATHEY'
p1222
ag481
aS'312'
p1223
aa(lp1224
S'BUTLER'
p1225
ag1152
aS'624'
p1226
aa(lp1227
S'MATHEY'
p1228
ag619
aS'322'
p1229
aa(lp1230
S'BUTLER'
p1231
ag408
aS'350'
p1232
aa(lp1233
S'BUTLER'
p1234
ag408
aS'341'
p1235
aa(lp1236
S'MATHEY'
p1237
ag423
aS'331'
p1238
aa(lp1239
S'WHITMAN'
p1240
ag452
aS'E213'
p1241
aa(lp1242
S'MATHEY'
p1243
ag415
aS'B81'
p1244
aa(lp1245
S'BUTLER'
p1246
ag408
aS'425'
p1247
aa(lp1248
S'BUTLER'
p1249
ag408
aS'427'
p1250
aa(lp1251
S'MATHEY'
p1252
ag71
aS'387'
p1253
aa(lp1254
S'MATHEY'
p1255
ag481
aS'301'
p1256
aa(lp1257
S'BUTLER'
p1258
ag34
aS'E202'
p1259
aa(lp1260
S'MATHEY'
p1261
ag481
aS'504'
p1262
aa(lp1263
S'MATHEY'
p1264
ag481
aS'313'
p1265
aa(lp1266
S'MATHEY'
p1267
ag481
aS'308'
p1268
aa(lp1269
S'BUTLER'
p1270
ag408
aS'443'
p1271
aa(lp1272
S'BUTLER'
p1273
ag408
aS'441'
p1274
aa(lp1275
S'MATHEY'
p1276
ag619
aS'324'
p1277
aa(lp1278
S'MATHEY'
p1279
ag71
aS'063'
p1280
aa(lp1281
S'MATHEY'
p1282
ag481
aS'406'
p1283
aa(lp1284
S'UPPERCLASS'
p1285
ag11
aS'301'
p1286
aa(lp1287
S'MATHEY'
p1288
ag481
aS'101'
p1289
aa(lp1290
S'MATHEY'
p1291
ag481
aS'411'
p1292
aa(lp1293
S'MATHEY'
p1294
ag481
aS'512'
p1295
aa(lp1296
S'MATHEY'
p1297
ag481
aS'410'
p1298
aa(lp1299
S'MATHEY'
p1300
ag481
aS'317'
p1301
aa(lp1302
S'BUTLER'
p1303
ag408
aS'324'
p1304
aa(lp1305
S'BUTLER'
p1306
ag408
aS'140'
p1307
aa(lp1308
S'BUTLER'
p1309
ag408
aS'227'
p1310
aa(lp1311
S'BUTLER'
p1312
ag408
aS'329'
p1313
aa(lp1314
S'MATHEY'
p1315
ag481
aS'117'
p1316
aa(lp1317
S'WHITMAN'
p1318
ag462
aS'F121'
p1319
aa(lp1320
S'BUTLER'
p1321
ag408
aS'322'
p1322
aa(lp1323
S'BUTLER'
p1324
ag408
aS'259'
p1325
aa(lp1326
S'WHITMAN'
p1327
ag452
aS'E207'
p1328
aa(lp1329
S'WHITMAN'
p1330
ag452
aS'E205'
p1331
aa(lp1332
S'WHITMAN'
p1333
ag462
aS'F229'
p1334
aa(lp1335
S'WHITMAN'
p1336
ag452
aS'S206'
p1337
aa(lp1338
S'MATHEY'
p1339
ag415
aS'096'
p1340
aa(lp1341
S'MATHEY'
p1342
ag415
aS'098'
p1343
aa(lp1344
S'BUTLER'
p1345
ag408
aS'481'
p1346
aa(lp1347
S'WHITMAN'
p1348
ag452
aS'E307'
p1349
aa(lp1350
S'WHITMAN'
p1351
ag452
aS'E305'
p1352
aa(lp1353
S'WHITMAN'
p1354
ag452
aS'E313'
p1355
aa(lp1356
S'WHITMAN'
p1357
ag462
aS'F015'
p1358
aa(lp1359
S'BUTLER'
p1360
ag408
aS'423'
p1361
aa(lp1362
S'BUTLER'
p1363
ag408
aS'241'
p1364
aa(lp1365
S'WHITMAN'
p1366
ag452
aS'E320'
p1367
aa(lp1368
S'BUTLER'
p1369
ag419
aS'D112'
p1370
aa(lp1371
S'WHITMAN'
p1372
ag452
aS'E310'
p1373
aa(lp1374
S'MATHEY'
p1375
ag481
aS'319'
p1376
aa(lp1377
S'WHITMAN'
p1378
ag452
aS'E312'
p1379
aa(lp1380
S'WHITMAN'
p1381
ag452
aS'E318'
p1382
aa(lp1383
S'MATHEY'
p1384
ag481
aS'513'
p1385
aa(lp1386
S'MATHEY'
p1387
ag481
aS'502'
p1388
aa(lp1389
S'MATHEY'
p1390
ag481
aS'501'
p1391
aa(lp1392
S'MATHEY'
p1393
ag481
aS'511'
p1394
aa(lp1395
S'WHITMAN'
p1396
ag462
aS'F026'
p1397
aa(lp1398
S'MATHEY'
p1399
ag481
aS'503'
p1400
aa(lp1401
S'WHITMAN'
p1402
ag462
aS'F024'
p1403
aa(lp1404
S'BUTLER'
p1405
ag408
aS'376'
p1406
aa(lp1407
S'BUTLER'
p1408
ag408
aS'303'
p1409
aa(lp1410
S'WHITMAN'
p1411
ag462
aS'F018'
p1412
aa(lp1413
S'WHITMAN'
p1414
ag462
aS'F016'
p1415
aa(lp1416
S'BUTLER'
p1417
ag408
aS'373'
p1418
aa(lp1419
S'BUTLER'
p1420
ag408
aS'374'
p1421
aa(lp1422
S'BUTLER'
p1423
ag408
aS'318'
p1424
aa(lp1425
S'WHITMAN'
p1426
ag462
aS'F107'
p1427
aa(lp1428
S'MATHEY'
p1429
ag71
aS'074'
p1430
aa(lp1431
S'MATHEY'
p1432
ag481
aS'506'
p1433
aa(lp1434
S'MATHEY'
p1435
ag481
aS'508'
p1436
aa(lp1437
S'WHITMAN'
p1438
ag452
aS'S106'
p1439
aa(lp1440
S'MATHEY'
p1441
ag71
aS'301'
p1442
aa(lp1443
S'BUTLER'
p1444
ag408
aS'320'
p1445
aa(lp1446
S'WHITMAN'
p1447
ag452
aS'S405'
p1448
aa(lp1449
S'BUTLER'
p1450
ag408
aS'191'
p1451
aa(lp1452
S'MATHEY'
p1453
ag71
aS'401'
p1454
aa(lp1455
S'BUTLER'
p1456
ag408
aS'270'
p1457
aa(lp1458
S'WHITMAN'
p1459
ag685
aS'D109'
p1460
aa(lp1461
S'BUTLER'
p1462
ag408
aS'278'
p1463
aa(lp1464
S'WHITMAN'
p1465
ag685
aS'D114'
p1466
aa(lp1467
S'WHITMAN'
p1468
ag452
aS'E215'
p1469
aa(lp1470
S'WHITMAN'
p1471
ag452
aS'E217'
p1472
aa(lp1473
S'WHITMAN'
p1474
ag452
aS'S403'
p1475
aa(lp1476
S'BUTLER'
p1477
ag419
aS'D212'
p1478
aa(lp1479
S'BUTLER'
p1480
ag408
aS'132'
p1481
aa(lp1482
S'WHITMAN'
p1483
ag427
aS'B313'
p1484
aa(lp1485
S'MATHEY'
p1486
ag71
aS'073'
p1487
aa(lp1488
S'WHITMAN'
p1489
ag491
aS'G402'
p1490
aa(lp1491
S'WHITMAN'
p1492
ag452
aS'E315'
p1493
aa(lp1494
S'MATHEY'
p1495
ag71
aS'048'
p1496
aa(lp1497
S'BUTLER'
p1498
ag34
aS'E305'
p1499
aa(lp1500
S'WHITMAN'
p1501
ag401
aS'A302'
p1502
aa(lp1503
S'BUTLER'
p1504
ag34
aS'E302'
p1505
aa(lp1506
S'MATHEY'
p1507
ag481
aS'507'
p1508
aa(lp1509
S'WHITMAN'
p1510
ag401
aS'A305'
p1511
aa(lp1512
S'WHITMAN'
p1513
ag427
aS'B204'
p1514
aa(lp1515
S'MATHEY'
p1516
ag423
aS'214'
p1517
aa(lp1518
S'MATHEY'
p1519
ag423
aS'213'
p1520
aa(lp1521
S'MATHEY'
p1522
ag423
aS'334'
p1523
aa(lp1524
S'MATHEY'
p1525
ag71
aS'305'
p1526
aa(lp1527
S'WHITMAN'
p1528
ag452
aS'S406'
p1529
aa(lp1530
S'WHITMAN'
p1531
ag427
aS'B205'
p1532
aa(lp1533
S'WHITMAN'
p1534
ag452
aS'S404'
p1535
aa(lp1536
S'MATHEY'
p1537
ag71
aS'012'
p1538
aa(lp1539
S'WHITMAN'
p1540
ag427
aS'B311'
p1541
aa(lp1542
S'WHITMAN'
p1543
ag491
aS'G407B'
p1544
aa(lp1545
S'WHITMAN'
p1546
ag462
aS'F114'
p1547
aa(lp1548
S'WHITMAN'
p1549
ag685
aS'D303'
p1550
aa(lp1551
S'BUTLER'
p1552
ag408
aS'274'
p1553
aa(lp1554
S'MATHEY'
p1555
ag481
aS'505'
p1556
aa(lp1557
S'BUTLER'
p1558
ag647
aS'A202'
p1559
aa(lp1560
S'BUTLER'
p1561
ag647
aS'A203'
p1562
aa(lp1563
S'WHITMAN'
p1564
ag401
aS'A321'
p1565
aa(lp1566
S'WHITMAN'
p1567
ag452
aS'E314'
p1568
aa(lp1569
S'MATHEY'
p1570
ag481
aS'514'
p1571
aa(lp1572
S'WHITMAN'
p1573
ag452
aS'E306'
p1574
aa(lp1575
S'MATHEY'
p1576
ag481
aS'515'
p1577
aa(lp1578
S'MATHEY'
p1579
ag481
aS'302'
p1580
aa(lp1581
S'MATHEY'
p1582
ag481
aS'304'
p1583
aa(lp1584
S'MATHEY'
p1585
ag481
aS'509'
p1586
aa(lp1587
S'BUTLER'
p1588
ag408
aS'323'
p1589
aa(lp1590
S'BUTLER'
p1591
ag408
aS'182'
p1592
aa(lp1593
S'MATHEY'
p1594
ag71
aS'327'
p1595
aa(lp1596
S'WHITMAN'
p1597
ag452
aS'E107'
p1598
aa(lp1599
S'MATHEY'
p1600
ag71
aS'325'
p1601
aa(lp1602
S'MATHEY'
p1603
ag71
aS'321'
p1604
aa(lp1605
S'MATHEY'
p1606
ag71
aS'329'
p1607
aa(lp1608
S'WHITMAN'
p1609
ag731
aS'T302'
p1610
aa(lp1611
S'BUTLER'
p1612
ag34
aS'E205'
p1613
aa(lp1614
S'BUTLER'
p1615
ag408
aS'378'
p1616
aa(lp1617
S'MATHEY'
p1618
ag481
aS'510'
p1619
aa(lp1620
S'MATHEY'
p1621
ag71
aS'071'
p1622
aa(lp1623
S'MATHEY'
p1624
ag481
aS'303'
p1625
aa(lp1626
S'MATHEY'
p1627
ag71
aS'307'
p1628
aa(lp1629
S'MATHEY'
p1630
ag71
aS'309'
p1631
aa(lp1632
S'BUTLER'
p1633
ag647
aS'A213'
p1634
aa(lp1635
S'WHITMAN'
p1636
ag685
aS'D107'
p1637
aa(lp1638
S'BUTLER'
p1639
ag408
aS'429'
p1640
aa(lp1641
S'BUTLER'
p1642
ag408
aS'439'
p1643
aa(lp1644
S'BUTLER'
p1645
ag408
aS'410'
p1646
aa(lp1647
S'BUTLER'
p1648
ag408
aS'356'
p1649
aa(lp1650
S'WHITMAN'
p1651
ag452
aS'S202'
p1652
aa(lp1653
S'MATHEY'
p1654
ag415
aS'B92'
p1655
aa(lp1656
S'WHITMAN'
p1657
ag401
aS'A301'
p1658
aa(lp1659
S'MATHEY'
p1660
ag415
aS'097'
p1661
aa(lp1662
S'WHITMAN'
p1663
ag462
aS'F007'
p1664
aa(lp1665
S'BUTLER'
p1666
ag408
aS'458'
p1667
aa(lp1668
S'WHITMAN'
p1669
ag452
aS'E208'
p1670
aa(lp1671
S'MATHEY'
p1672
ag481
aS'116'
p1673
aa(lp1674
S'MATHEY'
p1675
ag481
aS'417'
p1676
aa(lp1677
S'BUTLER'
p1678
ag501
aS'B313'
p1679
aa(lp1680
S'MATHEY'
p1681
ag481
aS'114'
p1682
aa(lp1683
S'BUTLER'
p1684
ag501
aS'B304'
p1685
aa(lp1686
S'MATHEY'
p1687
ag415
aS'102'
p1688
aa(lp1689
S'WHITMAN'
p1690
ag452
aS'E316'
p1691
aa(lp1692
S'BUTLER'
p1693
ag408
aS'476'
p1694
aa(lp1695
S'BUTLER'
p1696
ag408
aS'454'
p1697
aa(lp1698
S'MATHEY'
p1699
ag619
aS'124'
p1700
aa(lp1701
S'WHITMAN'
p1702
ag731
aS'T304'
p1703
aa(lp1704
S'BUTLER'
p1705
ag1152
aS'412'
p1706
aa(lp1707
S'BUTLER'
p1708
ag647
aS'A208'
p1709
aa(lp1710
S'BUTLER'
p1711
ag1152
aS'524'
p1712
aa(lp1713
S'MATHEY'
p1714
ag619
aS'325'
p1715
aa(lp1716
S'BUTLER'
p1717
ag1152
aS'615'
p1718
aa(lp1719
S'WHITMAN'
p1720
ag427
aS'B318'
p1721
aa(lp1722
S'BUTLER'
p1723
ag408
aS'478'
p1724
aa(lp1725
S'MATHEY'
p1726
ag415
aS'B91'
p1727
aa(lp1728
S'MATHEY'
p1729
ag415
aS'B72'
p1730
aa(lp1731
S'WHITMAN'
p1732
ag452
aS'S102'
p1733
aa(lp1734
S'WHITMAN'
p1735
ag427
aS'B218'
p1736
aa(lp1737
S'MATHEY'
p1738
ag1219
aS'052'
p1739
aa(lp1740
S'MATHEY'
p1741
ag415
aS'095'
p1742
aa(lp1743
S'BUTLER'
p1744
ag501
aS'B214'
p1745
aa(lp1746
S'WHITMAN'
p1747
ag685
aS'D105'
p1748
aa(lp1749
S'MATHEY'
p1750
ag481
aS'103'
p1751
aa(lp1752
S'MATHEY'
p1753
ag423
aS'233'
p1754
aa(lp1755
S'BUTLER'
p1756
ag654
aS'C202'
p1757
aa(lp1758
S'WHITMAN'
p1759
ag685
aS'D112'
p1760
aa(lp1761
S'BUTLER'
p1762
ag419
aS'D312'
p1763
aa(lp1764
S'MATHEY'
p1765
ag71
aS'013'
p1766
aa(lp1767
S'MATHEY'
p1768
ag415
aS'082'
p1769
aa(lp1770
S'MATHEY'
p1771
ag415
aS'093'
p1772
aa(lp1773
S'MATHEY'
p1774
ag481
aS'102'
p1775
aa(lp1776
S'MATHEY'
p1777
ag481
aS'112'
p1778
aa(lp1779
S'BUTLER'
p1780
ag501
aS'B204'
p1781
aa(lp1782
S'BUTLER'
p1783
ag501
aS'B202'
p1784
aa(lp1785
S'MATHEY'
p1786
ag415
aS'B41'
p1787
aa(lp1788
S'MATHEY'
p1789
ag415
aS'062'
p1790
aa(lp1791
S'MATHEY'
p1792
ag1219
aS'006A'
p1793
aa(lp1794
S'BUTLER'
p1795
ag654
aS'C104'
p1796
aa(lp1797
S'WHITMAN'
p1798
ag427
aS'B309'
p1799
aa(lp1800
S'BUTLER'
p1801
ag1152
aS'511'
p1802
aa(lp1803
S'MATHEY'
p1804
ag1219
aS'005B'
p1805
aa(lp1806
S'MATHEY'
p1807
ag1219
aS'052B'
p1808
aa(lp1809
S'BUTLER'
p1810
ag501
aS'B211'
p1811
aa(lp1812
S'MATHEY'
p1813
ag423
aS'231'
p1814
aa(lp1815
S'MATHEY'
p1816
ag415
aS'302'
p1817
aa(lp1818
S'WHITMAN'
p1819
ag427
aS'B320'
p1820
aa(lp1821
S'BUTLER'
p1822
ag1152
aS'521'
p1823
aa(lp1824
S'BUTLER'
p1825
ag1152
aS'522'
p1826
aa(lp1827
S'BUTLER'
p1828
ag1152
aS'422'
p1829
aa(lp1830
S'MATHEY'
p1831
ag1219
aS'063'
p1832
aa(lp1833
S'MATHEY'
p1834
ag1219
aS'065'
p1835
aa(lp1836
S'MATHEY'
p1837
ag71
aS'015'
p1838
aa(lp1839
S'BUTLER'
p1840
ag419
aS'D306'
p1841
aa(lp1842
S'WHITMAN'
p1843
ag462
aS'F116'
p1844
aa(lp1845
S'WHITMAN'
p1846
ag452
aS'E218'
p1847
aa(lp1848
S'MATHEY'
p1849
ag71
aS'313'
p1850
aa(lp1851
S'WHITMAN'
p1852
ag452
aS'E211'
p1853
aa(lp1854
S'BUTLER'
p1855
ag408
aS'131'
p1856
aa(lp1857
S'MATHEY'
p1858
ag415
aS'083'
p1859
aa(lp1860
S'MATHEY'
p1861
ag415
aS'081'
p1862
aa(lp1863
S'BUTLER'
p1864
ag1152
aS'611'
p1865
aa(lp1866
S'BUTLER'
p1867
ag1152
aS'621'
p1868
aa(lp1869
S'BUTLER'
p1870
ag1152
aS'625'
p1871
aa(lp1872
S'BUTLER'
p1873
ag1152
aS'514'
p1874
aa(lp1875
S'MATHEY'
p1876
ag415
aS'301'
p1877
aa(lp1878
S'BUTLER'
p1879
ag501
aS'B212'
p1880
aa(lp1881
S'BUTLER'
p1882
ag1152
aS'425'
p1883
aa(lp1884
S'BUTLER'
p1885
ag1152
aS'424'
p1886
aa(lp1887
S'MATHEY'
p1888
ag481
aS'115'
p1889
aa(lp1890
S'MATHEY'
p1891
ag415
aS'045'
p1892
aa(lp1893
S'MATHEY'
p1894
ag71
aS'033'
p1895
aa(lp1896
S'WHITMAN'
p1897
ag462
aS'F105'
p1898
aa(lp1899
S'MATHEY'
p1900
ag71
aS'031'
p1901
aa(lp1902
S'WHITMAN'
p1903
ag427
aS'B315'
p1904
aa(lp1905
S'BUTLER'
p1906
ag501
aS'B213'
p1907
aa(lp1908
S'BUTLER'
p1909
ag1152
aS'421'
p1910
aa(lp1911
S'BUTLER'
p1912
ag408
aS'473'
p1913
aa(lp1914
S'MATHEY'
p1915
ag415
aS'061'
p1916
aa(lp1917
S'WHITMAN'
p1918
ag452
aS'S402'
p1919
aa(lp1920
S'MATHEY'
p1921
ag415
aS'091'
p1922
aa(lp1923
S'BUTLER'
p1924
ag654
aS'C102'
p1925
aa(lp1926
S'BUTLER'
p1927
ag647
aS'A115'
p1928
aa(lp1929
S'MATHEY'
p1930
ag1219
aS'061'
p1931
aa(lp1932
S'WHITMAN'
p1933
ag462
aS'F113'
p1934
aa(lp1935
S'BUTLER'
p1936
ag654
aS'C204'
p1937
aa(lp1938
S'WHITMAN'
p1939
ag427
aS'B314'
p1940
aa(lp1941
S'MATHEY'
p1942
ag1219
aS'062'
p1943
aa(lp1944
S'MATHEY'
p1945
ag71
aS'053'
p1946
aa(lp1947
S'BUTLER'
p1948
ag1152
aS'415'
p1949
aa(lp1950
S'MATHEY'
p1951
ag415
aS'051'
p1952
aa(lp1953
S'MATHEY'
p1954
ag415
aS'065'
p1955
aa(lp1956
S'BUTLER'
p1957
ag647
aS'A113'
p1958
aa(lp1959
S'BUTLER'
p1960
ag1152
aS'413'
p1961
aa(lp1962
S'BUTLER'
p1963
ag1152
aS'414'
p1964
aa(lp1965
S'BUTLER'
p1966
ag1152
aS'423'
p1967
aa(lp1968
S'MATHEY'
p1969
ag415
aS'084'
p1970
aa(lp1971
S'MATHEY'
p1972
ag71
aS'081'
p1973
aa(lp1974
S'MATHEY'
p1975
ag415
aS'B61'
p1976
aa(lp1977
S'MATHEY'
p1978
ag415
aS'B62'
p1979
aa(lp1980
S'MATHEY'
p1981
ag1219
aS'005A'
p1982
aa(lp1983
S'MATHEY'
p1984
ag423
aS'321'
p1985
aa(lp1986
S'WHITMAN'
p1987
ag452
aS'S302'
p1988
aa(lp1989
S'MATHEY'
p1990
ag415
aS'B42'
p1991
aa(lp1992
S'MATHEY'
p1993
ag423
aS'313'
p1994
aa(lp1995
S'MATHEY'
p1996
ag423
aS'323'
p1997
aa(lp1998
S'WHITMAN'
p1999
ag452
aS'E319'
p2000
aa(lp2001
S'WHITMAN'
p2002
ag462
aS'F103'
p2003
aa(lp2004
S'WHITMAN'
p2005
ag462
aS'F117'
p2006
aa(lp2007
S'WHITMAN'
p2008
ag685
aS'D307'
p2009
aa(lp2010
S'FORBES'
p2011
aS'FORBES ADDITION'
p2012
aS'112'
p2013
aa(lp2014
S'ROCKEFELLER'
p2015
aS'WITHERSPOON'
p2016
aS'416'
p2017
aa(lp2018
S'WILSON'
p2019
aS'1927'
p2020
aS'122'
p2021
aa(lp2022
S'ROCKEFELLER'
p2023
ag2016
aS'422'
p2024
aa(lp2025
S'ROCKEFELLER'
p2026
ag2016
aS'417'
p2027
aa(lp2028
S'FORBES'
p2029
ag2012
aS'326'
p2030
aa(lp2031
S'FORBES'
p2032
ag2012
aS'308'
p2033
aa(lp2034
S'FORBES'
p2035
ag2012
aS'327'
p2036
aa(lp2037
S'FORBES'
p2038
ag2012
aS'165'
p2039
aa(lp2040
S'WILSON'
p2041
aS'WALKER'
p2042
aS'327'
p2043
aa(lp2044
S'WILSON'
p2045
ag2042
aS'325'
p2046
aa(lp2047
S'WILSON'
p2048
ag2042
aS'324'
p2049
aa(lp2050
S'WILSON'
p2051
ag2042
aS'313'
p2052
aa(lp2053
S'WILSON'
p2054
ag2042
aS'319'
p2055
aa(lp2056
S'ROCKEFELLER'
p2057
ag2016
aS'517'
p2058
aa(lp2059
S'ROCKEFELLER'
p2060
ag2016
aS'317'
p2061
aa(lp2062
S'WILSON'
p2063
ag2042
aS'314'
p2064
aa(lp2065
S'WILSON'
p2066
ag2042
aS'132'
p2067
aa(lp2068
S'FORBES'
p2069
ag2012
aS'306'
p2070
aa(lp2071
S'FORBES'
p2072
ag2012
aS'320'
p2073
aa(lp2074
S'WILSON'
p2075
ag2042
aS'232'
p2076
aa(lp2077
S'FORBES'
p2078
ag2012
aS'319'
p2079
aa(lp2080
S'FORBES'
p2081
ag2012
aS'328'
p2082
aa(lp2083
S'FORBES'
p2084
ag2012
aS'329'
p2085
aa(lp2086
S'FORBES'
p2087
ag2012
aS'307'
p2088
aa(lp2089
S'FORBES'
p2090
ag2012
aS'322'
p2091
aa(lp2092
S'FORBES'
p2093
ag2012
aS'323'
p2094
aa(lp2095
S'WILSON'
p2096
ag2042
aS'331'
p2097
aa(lp2098
S'ROCKEFELLER'
p2099
aS'HOLDER'
p2100
aS'126'
p2101
aa(lp2102
S'WILSON'
p2103
ag2042
aS'305'
p2104
aa(lp2105
S'FORBES'
p2106
ag2012
aS'255'
p2107
aa(lp2108
S'FORBES'
p2109
ag2012
aS'251'
p2110
aa(lp2111
S'WILSON'
p2112
aS'CLAPP'
p2113
aS'232'
p2114
aa(lp2115
S'FORBES'
p2116
ag2012
aS'254'
p2117
aa(lp2118
S'ROCKEFELLER'
p2119
ag2100
aS'012'
p2120
aa(lp2121
S'ROCKEFELLER'
p2122
ag2016
aS'403'
p2123
aa(lp2124
S'WILSON'
p2125
ag2042
aS'214'
p2126
aa(lp2127
S'WILSON'
p2128
ag2042
aS'304'
p2129
aa(lp2130
S'FORBES'
p2131
ag2012
aS'304'
p2132
aa(lp2133
S'ROCKEFELLER'
p2134
ag2016
aS'414'
p2135
aa(lp2136
S'FORBES'
p2137
ag2012
aS'106'
p2138
aa(lp2139
S'ROCKEFELLER'
p2140
ag2016
aS'412'
p2141
aa(lp2142
S'ROCKEFELLER'
p2143
ag2016
aS'408'
p2144
aa(lp2145
S'FORBES'
p2146
ag2012
aS'155'
p2147
aa(lp2148
S'ROCKEFELLER'
p2149
ag2100
aS'116'
p2150
aa(lp2151
S'FORBES'
p2152
ag2012
aS'A158'
p2153
aa(lp2154
S'WILSON'
p2155
ag2042
aS'303'
p2156
aa(lp2157
S'FORBES'
p2158
ag2012
aS'A126'
p2159
aa(lp2160
S'FORBES'
p2161
ag2012
aS'219'
p2162
aa(lp2163
S'WILSON'
p2164
ag2020
aS'132'
p2165
aa(lp2166
S'FORBES'
p2167
ag2012
aS'220'
p2168
aa(lp2169
S'ROCKEFELLER'
p2170
ag2016
aS'121'
p2171
aa(lp2172
S'FORBES'
p2173
ag2012
aS'221'
p2174
aa(lp2175
S'FORBES'
p2176
ag2012
aS'A258'
p2177
aa(lp2178
S'ROCKEFELLER'
p2179
ag2016
aS'222'
p2180
aa(lp2181
S'ROCKEFELLER'
p2182
ag2016
aS'216'
p2183
aa(lp2184
S'ROCKEFELLER'
p2185
ag2016
aS'217'
p2186
aa(lp2187
S'WILSON'
p2188
ag2042
aS'123'
p2189
aa(lp2190
S'FORBES'
p2191
ag2012
aS'154'
p2192
aa(lp2193
S'WILSON'
p2194
aS'1939'
p2195
aS'115'
p2196
aa(lp2197
S'WILSON'
p2198
ag2195
aS'232'
p2199
aa(lp2200
S'FORBES'
p2201
ag2012
aS'151'
p2202
aa(lp2203
S'ROCKEFELLER'
p2204
ag2100
aS'074'
p2205
aa(lp2206
S'WILSON'
p2207
aS'DODGE OSBORN'
p2208
aS'121'
p2209
aa(lp2210
S'FORBES'
p2211
ag2012
aS'152'
p2212
aa(lp2213
S'FORBES'
p2214
ag2012
aS'153'
p2215
aa(lp2216
S'ROCKEFELLER'
p2217
ag2016
aS'203'
p2218
aa(lp2219
S'ROCKEFELLER'
p2220
ag2016
aS'516'
p2221
aa(lp2222
S'FORBES'
p2223
ag2012
aS'A268'
p2224
aa(lp2225
S'FORBES'
p2226
ag2012
aS'A270'
p2227
aa(lp2228
S'FORBES'
p2229
ag2012
aS'301'
p2230
aa(lp2231
S'ROCKEFELLER'
p2232
ag2016
aS'221'
p2233
aa(lp2234
S'FORBES'
p2235
ag2012
aS'A255'
p2236
aa(lp2237
S'WILSON'
p2238
ag2042
aS'223'
p2239
aa(lp2240
S'WILSON'
p2241
ag2042
aS'124'
p2242
aa(lp2243
S'ROCKEFELLER'
p2244
ag2016
aS'215'
p2245
aa(lp2246
S'FORBES'
p2247
ag2012
aS'A135'
p2248
aa(lp2249
S'WILSON'
p2250
ag2042
aS'213'
p2251
aa(lp2252
S'ROCKEFELLER'
p2253
ag2016
aS'321'
p2254
aa(lp2255
S'WILSON'
p2256
ag2042
aS'302'
p2257
aa(lp2258
S'FORBES'
p2259
ag2012
aS'321'
p2260
aa(lp2261
S'WILSON'
p2262
ag2020
aS'131'
p2263
aa(lp2264
S'ROCKEFELLER'
p2265
ag2016
aS'303'
p2266
aa(lp2267
S'FORBES'
p2268
ag2012
aS'A136'
p2269
aa(lp2270
S'FORBES'
p2271
ag2012
aS'A133'
p2272
aa(lp2273
S'FORBES'
p2274
ag2012
aS'A134'
p2275
aa(lp2276
S'FORBES'
p2277
ag2012
aS'A257'
p2278
aa(lp2279
S'FORBES'
p2280
ag2012
aS'A261'
p2281
aa(lp2282
S'FORBES'
p2283
ag2012
aS'A259'
p2284
aa(lp2285
S'FORBES'
p2286
ag2012
aS'A256'
p2287
aa(lp2288
S'ROCKEFELLER'
p2289
ag2100
aS'088'
p2290
aa(lp2291
S'FORBES'
p2292
ag2012
aS'A263'
p2293
aa(lp2294
S'FORBES'
p2295
ag2012
aS'A260'
p2296
aa(lp2297
S'ROCKEFELLER'
p2298
ag2100
aS'057'
p2299
aa(lp2300
S'ROCKEFELLER'
p2301
ag2100
aS'115'
p2302
aa(lp2303
S'FORBES'
p2304
ag2012
aS'A266'
p2305
aa(lp2306
S'WILSON'
p2307
ag2195
aS'337'
p2308
aa(lp2309
S'FORBES'
p2310
ag2012
aS'A254'
p2311
aa(lp2312
S'WILSON'
p2313
ag2208
aS'212'
p2314
aa(lp2315
S'ROCKEFELLER'
p2316
ag2100
aS'076'
p2317
aa(lp2318
S'ROCKEFELLER'
p2319
ag2100
aS'068'
p2320
aa(lp2321
S'WILSON'
p2322
aS'1937'
p2323
aS'122'
p2324
aa(lp2325
S'WILSON'
p2326
ag2323
aS'123'
p2327
aa(lp2328
S'FORBES'
p2329
ag2012
aS'A250'
p2330
aa(lp2331
S'FORBES'
p2332
ag2012
aS'A147'
p2333
aa(lp2334
S'ROCKEFELLER'
p2335
aS'BUYERS'
p2336
aS'024'
p2337
aa(lp2338
S'FORBES'
p2339
ag2012
aS'A155'
p2340
aa(lp2341
S'ROCKEFELLER'
p2342
ag2336
aS'034'
p2343
aa(lp2344
S'FORBES'
p2345
ag2012
aS'A154'
p2346
aa(lp2347
S'FORBES'
p2348
ag2012
aS'252'
p2349
aa(lp2350
S'WILSON'
p2351
aS'GAUSS'
p2352
aS'117'
p2353
aa(lp2354
S'WILSON'
p2355
ag2042
aS'231'
p2356
aa(lp2357
S'WILSON'
p2358
ag2323
aS'216'
p2359
aa(lp2360
S'FORBES'
p2361
ag2012
aS'253'
p2362
aa(lp2363
S'WILSON'
p2364
ag2323
aS'201'
p2365
aa(lp2366
S'ROCKEFELLER'
p2367
ag2016
aS'521'
p2368
aa(lp2369
S'ROCKEFELLER'
p2370
ag2016
aS'510'
p2371
aa(lp2372
S'ROCKEFELLER'
p2373
ag2016
aS'421'
p2374
aa(lp2375
S'ROCKEFELLER'
p2376
ag1219
aS'013'
p2377
aa(lp2378
S'ROCKEFELLER'
p2379
ag1219
aS'004B'
p2380
aa(lp2381
S'FORBES'
p2382
ag2012
aS'217'
p2383
aa(lp2384
S'FORBES'
p2385
ag2012
aS'218'
p2386
aa(lp2387
S'FORBES'
p2388
ag2012
aS'237'
p2389
aa(lp2390
S'FORBES'
p2391
ag2012
aS'235'
p2392
aa(lp2393
S'WILSON'
p2394
ag2195
aS'120'
p2395
aa(lp2396
S'ROCKEFELLER'
p2397
ag2016
aS'208'
p2398
aa(lp2399
S'ROCKEFELLER'
p2400
ag2100
aS'079'
p2401
aa(lp2402
S'ROCKEFELLER'
p2403
ag2100
aS'078'
p2404
aa(lp2405
S'ROCKEFELLER'
p2406
ag2016
aS'508'
p2407
aa(lp2408
S'WILSON'
p2409
aS'FEINBERG'
p2410
aS'401'
p2411
aa(lp2412
S'ROCKEFELLER'
p2413
ag2016
aS'503'
p2414
aa(lp2415
S'WILSON'
p2416
ag2042
aS'220'
p2417
aa(lp2418
S'ROCKEFELLER'
p2419
ag2016
aS'506'
p2420
aa(lp2421
S'FORBES'
p2422
ag2012
aS'A240'
p2423
aa(lp2424
S'FORBES'
p2425
ag2012
aS'264'
p2426
aa(lp2427
S'WILSON'
p2428
ag2410
aS'402'
p2429
aa(lp2430
S'FORBES'
p2431
ag2012
aS'A248'
p2432
aa(lp2433
S'ROCKEFELLER'
p2434
ag2016
aS'117'
p2435
aa(lp2436
S'FORBES'
p2437
ag2012
aS'156'
p2438
aa(lp2439
S'WILSON'
p2440
ag2410
aS'301'
p2441
aa(lp2442
S'ROCKEFELLER'
p2443
ag2100
aS'142'
p2444
aa(lp2445
S'FORBES'
p2446
ag2012
aS'A242'
p2447
aa(lp2448
S'FORBES'
p2449
ag2012
aS'A245'
p2450
aa(lp2451
S'FORBES'
p2452
ag2012
aS'A246'
p2453
aa(lp2454
S'FORBES'
p2455
ag2012
aS'A244'
p2456
aa(lp2457
S'FORBES'
p2458
ag2012
aS'A247'
p2459
aa(lp2460
S'FORBES'
p2461
ag2012
aS'A249'
p2462
aa(lp2463
S'ROCKEFELLER'
p2464
ag2016
aS'310'
p2465
aa(lp2466
S'ROCKEFELLER'
p2467
ag2016
aS'308'
p2468
aa(lp2469
S'ROCKEFELLER'
p2470
ag2016
aS'312'
p2471
aa(lp2472
S'FORBES'
p2473
ag2012
aS'324'
p2474
aa(lp2475
S'ROCKEFELLER'
p2476
ag2016
aS'306'
p2477
aa(lp2478
S'WILSON'
p2479
ag2208
aS'226'
p2480
aa(lp2481
S'WILSON'
p2482
ag2208
aS'227'
p2483
aa(lp2484
S'WILSON'
p2485
ag2113
aS'201'
p2486
aa(lp2487
S'WILSON'
p2488
ag2042
aS'301'
p2489
aa(lp2490
S'ROCKEFELLER'
p2491
ag2100
aS'046'
p2492
aa(lp2493
S'FORBES'
p2494
ag2012
aS'A252'
p2495
aa(lp2496
S'FORBES'
p2497
ag2012
aS'A157'
p2498
aa(lp2499
S'ROCKEFELLER'
p2500
ag2016
aS'401'
p2501
aa(lp2502
S'WILSON'
p2503
aS'1938'
p2504
aS'215'
p2505
aa(lp2506
S'FORBES'
p2507
ag2012
aS'A156'
p2508
aa(lp2509
S'FORBES'
p2510
ag2012
aS'A142'
p2511
aa(lp2512
S'FORBES'
p2513
ag2012
aS'A152'
p2514
aa(lp2515
S'WILSON'
p2516
ag2323
aS'232'
p2517
aa(lp2518
S'FORBES'
p2519
ag2012
aS'A144'
p2520
aa(lp2521
S'ROCKEFELLER'
p2522
ag2100
aS'066'
p2523
aa(lp2524
S'ROCKEFELLER'
p2525
ag2100
aS'063'
p2526
aa(lp2527
S'FORBES'
p2528
ag2012
aS'A146'
p2529
aa(lp2530
S'WILSON'
p2531
ag2504
aS'225'
p2532
aa(lp2533
S'FORBES'
p2534
ag2012
aS'A148'
p2535
aa(lp2536
S'WILSON'
p2537
ag2113
aS'202'
p2538
aa(lp2539
S'FORBES'
p2540
ag2012
aS'A150'
p2541
aa(lp2542
S'FORBES'
p2543
ag2012
aS'261'
p2544
aa(lp2545
S'FORBES'
p2546
ag2012
aS'A145'
p2547
aa(lp2548
S'FORBES'
p2549
ag2012
aS'A149'
p2550
aa(lp2551
S'ROCKEFELLER'
p2552
ag2016
aS'006'
p2553
aa(lp2554
S'WILSON'
p2555
ag2208
aS'116'
p2556
aa(lp2557
S'ROCKEFELLER'
p2558
ag2100
aS'085'
p2559
aa(lp2560
S'FORBES'
p2561
ag2012
aS'268'
p2562
aa(lp2563
S'FORBES'
p2564
ag2012
aS'267'
p2565
aa(lp2566
S'WILSON'
p2567
ag2504
aS'112'
p2568
aa(lp2569
S'FORBES'
p2570
ag2012
aS'210'
p2571
aa(lp2572
S'WILSON'
p2573
ag2195
aS'126'
p2574
aa(lp2575
S'ROCKEFELLER'
p2576
ag2100
aS'067'
p2577
aa(lp2578
S'ROCKEFELLER'
p2579
ag2016
aS'012'
p2580
aa(lp2581
S'ROCKEFELLER'
p2582
ag2100
aS'047'
p2583
aa(lp2584
S'WILSON'
p2585
ag2195
aS'222'
p2586
aa(lp2587
S'FORBES'
p2588
ag2012
aS'263'
p2589
aa(lp2590
S'WILSON'
p2591
ag2504
aS'214'
p2592
aa(lp2593
S'ROCKEFELLER'
p2594
ag2336
aS'033'
p2595
aa(lp2596
S'WILSON'
p2597
ag2020
aS'112'
p2598
aa(lp2599
S'WILSON'
p2600
ag2352
aS'116'
p2601
aa(lp2602
S'WILSON'
p2603
ag2504
aS'212'
p2604
aa(lp2605
S'WILSON'
p2606
ag2504
aS'211'
p2607
aa(lp2608
S'ROCKEFELLER'
p2609
ag2016
aS'210'
p2610
aa(lp2611
S'FORBES'
p2612
ag2012
aS'367'
p2613
aa(lp2614
S'FORBES'
p2615
ag2012
aS'262'
p2616
aa(lp2617
S'FORBES'
p2618
ag2012
aS'373'
p2619
aa(lp2620
S'ROCKEFELLER'
p2621
ag2016
aS'405'
p2622
aa(lp2623
S'FORBES'
p2624
ag2012
aS'A237'
p2625
aa(lp2626
S'ROCKEFELLER'
p2627
ag2016
aS'201'
p2628
aa(lp2629
S'FORBES'
p2630
ag2012
aS'A125'
p2631
aa(lp2632
S'FORBES'
p2633
ag2012
aS'A316'
p2634
aa(lp2635
S'ROCKEFELLER'
p2636
ag2016
aS'415'
p2637
aa(lp2638
S'FORBES'
p2639
ag2012
aS'266'
p2640
aa(lp2641
S'ROCKEFELLER'
p2642
ag2100
aS'027'
p2643
aa(lp2644
S'FORBES'
p2645
ag2012
aS'234'
p2646
aa(lp2647
S'WILSON'
p2648
ag2323
aS'204'
p2649
aa(lp2650
S'ROCKEFELLER'
p2651
ag2336
aS'017'
p2652
aa(lp2653
S'WILSON'
p2654
ag2323
aS'206'
p2655
aa(lp2656
S'FORBES'
p2657
ag2012
aS'239'
p2658
aa(lp2659
S'WILSON'
p2660
ag2352
aS'130'
p2661
aa(lp2662
S'FORBES'
p2663
ag2012
aS'211'
p2664
aa(lp2665
S'ROCKEFELLER'
p2666
ag2100
aS'056'
p2667
aa(lp2668
S'FORBES'
p2669
ag2012
aS'206'
p2670
aa(lp2671
S'WILSON'
p2672
ag2208
aS'201'
p2673
aa(lp2674
S'WILSON'
p2675
ag2208
aS'203'
p2676
aa(lp2677
S'WILSON'
p2678
ag2208
aS'202'
p2679
aa(lp2680
S'ROCKEFELLER'
p2681
ag2100
aS'136'
p2682
aa(lp2683
S'WILSON'
p2684
ag2208
aS'122'
p2685
aa(lp2686
S'WILSON'
p2687
ag2504
aS'222'
p2688
aa(lp2689
S'WILSON'
p2690
ag2323
aS'226'
p2691
aa(lp2692
S'ROCKEFELLER'
p2693
ag2336
aS'B13'
p2694
aa(lp2695
S'WILSON'
p2696
ag2323
aS'202'
p2697
aa(lp2698
S'ROCKEFELLER'
p2699
ag2336
aS'B21'
p2700
aa(lp2701
S'FORBES'
p2702
ag2012
aS'A265'
p2703
aa(lp2704
S'WILSON'
p2705
ag2410
aS'102'
p2706
aa(lp2707
S'ROCKEFELLER'
p2708
ag2100
aS'025'
p2709
aa(lp2710
S'ROCKEFELLER'
p2711
ag2100
aS'107'
p2712
aa(lp2713
S'WILSON'
p2714
ag2195
aS'331'
p2715
aa(lp2716
S'FORBES'
p2717
ag2012
aS'A231'
p2718
aa(lp2719
S'WILSON'
p2720
ag2323
aS'104'
p2721
aa(lp2722
S'WILSON'
p2723
ag2323
aS'205'
p2724
aa(lp2725
S'WILSON'
p2726
ag2323
aS'103'
p2727
aa(lp2728
S'WILSON'
p2729
ag2323
aS'225'
p2730
aa(lp2731
S'ROCKEFELLER'
p2732
ag2016
aS'305'
p2733
aa(lp2734
S'ROCKEFELLER'
p2735
ag2016
aS'316'
p2736
aa(lp2737
S'ROCKEFELLER'
p2738
ag2016
aS'214'
p2739
aa(lp2740
S'ROCKEFELLER'
p2741
ag1219
aS'021'
p2742
aa(lp2743
S'FORBES'
p2744
ag2012
aS'103'
p2745
aa(lp2746
S'ROCKEFELLER'
p2747
ag2100
aS'061'
p2748
aa(lp2749
S'FORBES'
p2750
ag2012
aS'107'
p2751
aa(lp2752
S'WILSON'
p2753
ag2195
aS'335'
p2754
aa(lp2755
S'WILSON'
p2756
ag2042
aS'332'
p2757
aa(lp2758
S'ROCKEFELLER'
p2759
ag2016
aS'102'
p2760
aa(lp2761
S'FORBES'
p2762
ag2012
aS'207'
p2763
aa(lp2764
S'FORBES'
p2765
ag2012
aS'111'
p2766
aa(lp2767
S'FORBES'
p2768
ag2012
aS'A377'
p2769
aa(lp2770
S'FORBES'
p2771
ag2012
aS'203'
p2772
aa(lp2773
S'WILSON'
p2774
ag2208
aS'211'
p2775
aa(lp2776
S'ROCKEFELLER'
p2777
ag2100
aS'097'
p2778
aa(lp2779
S'FORBES'
p2780
ag2012
aS'110'
p2781
aa(lp2782
S'ROCKEFELLER'
p2783
ag2100
aS'081'
p2784
aa(lp2785
S'ROCKEFELLER'
p2786
ag2100
aS'073'
p2787
aa(lp2788
S'FORBES'
p2789
ag2012
aS'A437'
p2790
aa(lp2791
S'ROCKEFELLER'
p2792
ag2016
aS'014'
p2793
aa(lp2794
S'ROCKEFELLER'
p2795
ag2016
aS'206'
p2796
aa(lp2797
S'ROCKEFELLER'
p2798
ag2100
aS'095'
p2799
aa(lp2800
S'WILSON'
p2801
ag2504
aS'235'
p2802
aa(lp2803
S'ROCKEFELLER'
p2804
ag2336
aS'032'
p2805
aa(lp2806
S'FORBES'
p2807
ag2012
aS'208'
p2808
aa(lp2809
S'WILSON'
p2810
ag2504
aS'234'
p2811
aa(lp2812
S'FORBES'
p2813
ag2012
aS'A431'
p2814
aa(lp2815
S'WILSON'
p2816
ag2504
aS'233'
p2817
aa(lp2818
S'FORBES'
p2819
ag2012
aS'A327'
p2820
aa(lp2821
S'WILSON'
p2822
ag2352
aS'101'
p2823
aa(lp2824
S'FORBES'
p2825
ag2012
aS'A131'
p2826
aa(lp2827
S'ROCKEFELLER'
p2828
ag1219
aS'026'
p2829
aa(lp2830
S'FORBES'
p2831
ag2012
aS'209'
p2832
aa(lp2833
S'FORBES'
p2834
ag2012
aS'A371'
p2835
aa(lp2836
S'FORBES'
p2837
ag2012
aS'A331'
p2838
aa(lp2839
S'WILSON'
p2840
ag2195
aS'343'
p2841
aa(lp2842
S'FORBES'
p2843
ag2012
aS'A427'
p2844
aa(lp2845
S'FORBES'
p2846
ag2012
aS'109'
p2847
aa(lp2848
S'WILSON'
p2849
ag2195
aS'342'
p2850
aa(lp2851
S'ROCKEFELLER'
p2852
ag2100
aS'092'
p2853
aa(lp2854
S'WILSON'
p2855
ag2195
aS'340'
p2856
aa(lp2857
S'WILSON'
p2858
ag2195
aS'341'
p2859
aa(lp2860
S'WILSON'
p2861
ag2195
aS'339'
p2862
aa(lp2863
S'ROCKEFELLER'
p2864
ag2100
aS'042'
p2865
aa(lp2866
S'WILSON'
p2867
ag2323
aS'105'
p2868
aa(lp2869
S'FORBES'
p2870
ag2012
aS'A138'
p2871
aa(lp2872
S'WILSON'
p2873
ag2323
aS'203'
p2874
aa(lp2875
S'ROCKEFELLER'
p2876
ag1219
aS'003C'
p2877
aa(lp2878
S'WILSON'
p2879
ag2020
aS'111'
p2880
aa(lp2881
S'ROCKEFELLER'
p2882
ag1219
aS'014'
p2883
aa(lp2884
S'WILSON'
p2885
ag2113
aS'212'
p2886
aa(lp2887
S'FORBES'
p2888
ag2012
aS'A132'
p2889
aa(lp2890
S'ROCKEFELLER'
p2891
ag2100
aS'022'
p2892
aa(lp2893
S'FORBES'
p2894
ag2012
aS'A234'
p2895
aa(lp2896
S'FORBES'
p2897
ag2012
aS'303'
p2898
aa(lp2899
S'FORBES'
p2900
ag2012
aS'A323'
p2901
aa(lp2902
S'ROCKEFELLER'
p2903
ag2100
aS'062'
p2904
aa(lp2905
S'WILSON'
p2906
ag2352
aS'114'
p2907
aa(lp2908
S'ROCKEFELLER'
p2909
ag2100
aS'143'
p2910
aa(lp2911
S'ROCKEFELLER'
p2912
ag2100
aS'024'
p2913
aa(lp2914
S'WILSON'
p2915
ag2020
aS'135'
p2916
aa(lp2917
S'WILSON'
p2918
ag2504
aS'121'
p2919
aa(lp2920
S'ROCKEFELLER'
p2921
ag2336
aS'018'
p2922
aa(lp2923
S'ROCKEFELLER'
p2924
ag2336
aS'B22'
p2925
aa(lp2926
S'ROCKEFELLER'
p2927
ag2336
aS'B23'
p2928
aa(lp2929
S'ROCKEFELLER'
p2930
ag1219
aS'003A'
p2931
aa(lp2932
S'FORBES'
p2933
ag2012
aS'A434'
p2934
aa(lp2935
S'FORBES'
p2936
ag2012
aS'A232'
p2937
aa(lp2938
S'FORBES'
p2939
ag2012
aS'A432'
p2940
aa(lp2941
S'FORBES'
p2942
ag2012
aS'A436'
p2943
aa(lp2944
S'ROCKEFELLER'
p2945
ag2336
aS'016'
p2946
aa(lp2947
S'WILSON'
p2948
ag2352
aS'134'
p2949
aa(lp2950
S'FORBES'
p2951
ag2012
aS'A438'
p2952
aa(lp2953
S'FORBES'
p2954
ag2012
aS'A238'
p2955
aa(lp2956
S'FORBES'
p2957
ag2012
aS'A236'
p2958
aa(lp2959
S'ROCKEFELLER'
p2960
ag1219
aS'022'
p2961
aa(lp2962
S'ROCKEFELLER'
p2963
ag1219
aS'003B'
p2964
aa(lp2965
S'FORBES'
p2966
ag2012
aS'108'
p2967
aa(lp2968
S'WILSON'
p2969
ag2504
aS'213'
p2970
aa(lp2971
S'WILSON'
p2972
ag2504
aS'113'
p2973
aa(lp2974
S'ROCKEFELLER'
p2975
ag1219
aS'028'
p2976
aa(lp2977
S'WILSON'
p2978
ag2323
aS'131'
p2979
aa(lp2980
S'ROCKEFELLER'
p2981
ag2100
aS'086'
p2982
aa(lp2983
S'ROCKEFELLER'
p2984
ag2100
aS'041'
p2985
aa(lp2986
S'FORBES'
p2987
ag2012
aS'A428'
p2988
aa(lp2989
S'FORBES'
p2990
ag2012
aS'A372'
p2991
aa(lp2992
S'FORBES'
p2993
ag2012
aS'A137'
p2994
aa(lp2995
S'FORBES'
p2996
ag2012
aS'A332'
p2997
aa(lp2998
S'FORBES'
p2999
ag2012
aS'A338'
p3000
aa(lp3001
S'FORBES'
p3002
ag2012
aS'A336'
p3003
aa(lp3004
S'WILSON'
p3005
ag2352
aS'120'
p3006
aa(lp3007
S'WILSON'
p3008
ag2195
aS'338'
p3009
aa(lp3010
S'WILSON'
p3011
ag2020
aS'121'
p3012
aa(lp3013
S'WILSON'
p3014
ag2208
aS'204'
p3015
aa(lp3016
S'FORBES'
p3017
ag2012
aS'A334'
p3018
aa(lp3019
S'ROCKEFELLER'
p3020
ag2100
aS'096'
p3021
aa(lp3022
S'FORBES'
p3023
ag2012
aS'A328'
p3024
aa(lp3025
S'ROCKEFELLER'
p3026
ag2100
aS'111'
p3027
aa(lp3028
S'FORBES'
p3029
ag2012
aS'A378'
p3030
aa(lp3031
S'WILSON'
p3032
ag2042
aS'312'
p3033
aa(lp3034
S'WILSON'
p3035
ag2042
aS'311'
p3036
aa(lp3037
S'ROCKEFELLER'
p3038
ag2100
aS'112'
p3039
aa(lp3040
S'ROCKEFELLER'
p3041
ag2100
aS'026'
p3042
aa(lp3043
S'WILSON'
p3044
ag2504
aS'132'
p3045
aa(lp3046
S'ROCKEFELLER'
p3047
ag2016
aS'409'
p3048
aa(lp3049
S'WILSON'
p3050
ag2195
aS'333'
p3051
aa(lp3052
S'ROCKEFELLER'
p3053
ag2100
aS'051'
p3054
aa(lp3055
S'WILSON'
p3056
ag2323
aS'233'
p3057
aa(lp3058
S'WILSON'
p3059
ag2042
aS'221'
p3060
aa(lp3061
S'ROCKEFELLER'
p3062
ag2016
aS'211'
p3063
aa(lp3064
S'WILSON'
p3065
ag2195
aS'334'
p3066
aa(lp3067
S'WILSON'
p3068
ag2195
aS'332'
p3069
aa(lp3070
S'ROCKEFELLER'
p3071
ag2016
aS'209'
p3072
aa(lp3073
S'ROCKEFELLER'
p3074
ag2100
aS'037'
p3075
aa(lp3076
S'WILSON'
p3077
ag2323
aS'213'
p3078
aa(lp3079
S'ROCKEFELLER'
p3080
ag2016
aS'205'
p3081
aa(lp3082
S'UPPERCLASS'
p3083
ag78
aS'221'
p3084
aa(lp3085
S'UPPERCLASS'
p3086
ag196
aS'401'
p3087
aa(lp3088
S'UPPERCLASS'
p3089
ag171
aS'T12'
p3090
aa(lp3091
S'UPPERCLASS'
p3092
ag171
aS'313'
p3093
aa(lp3094
S'UPPERCLASS'
p3095
ag171
aS'T08'
p3096
aa(lp3097
S'UPPERCLASS'
p3098
ag30
aS'331'
p3099
aa(lp3100
S'UPPERCLASS'
p3101
ag30
aS'502'
p3102
aa(lp3103
S'UPPERCLASS'
p3104
ag30
aS'523A'
p3105
aa(lp3106
S'UPPERCLASS'
p3107
ag30
aS'535'
p3108
aa(lp3109
S'UPPERCLASS'
p3110
ag30
aS'522'
p3111
aa(lp3112
S'UPPERCLASS'
p3113
ag196
aS'403'
p3114
aa(lp3115
S'UPPERCLASS'
p3116
ag30
aS'243'
p3117
aa(lp3118
S'UPPERCLASS'
p3119
ag30
aS'421'
p3120
aa(lp3121
S'UPPERCLASS'
p3122
ag30
aS'517'
p3123
aa(lp3124
S'UPPERCLASS'
p3125
ag88
aS'206'
p3126
aa(lp3127
S'UPPERCLASS'
p3128
ag88
aS'218'
p3129
aa(lp3130
S'UPPERCLASS'
p3131
ag88
aS'205'
p3132
aa(lp3133
S'UPPERCLASS'
p3134
ag88
aS'204'
p3135
aa(lp3136
S'UPPERCLASS'
p3137
ag88
aS'203'
p3138
aa(lp3139
S'UPPERCLASS'
p3140
ag88
aS'216'
p3141
aa(lp3142
S'UPPERCLASS'
p3143
ag88
aS'207'
p3144
aa(lp3145
S'UPPERCLASS'
p3146
ag122
aS'235'
p3147
aa(lp3148
S'UPPERCLASS'
p3149
aS'1901'
p3150
aS'322'
p3151
aa(lp3152
S'UPPERCLASS'
p3153
ag3150
aS'324'
p3154
aa(lp3155
S'UPPERCLASS'
p3156
ag30
aS'241'
p3157
aa(lp3158
S'UPPERCLASS'
p3159
aS'BROWN'
p3160
aS'410'
p3161
aa(lp3162
S'UPPERCLASS'
p3163
ag30
aS'528'
p3164
aa(lp3165
S'UPPERCLASS'
p3166
ag30
aS'527'
p3167
aa(lp3168
S'UPPERCLASS'
p3169
ag30
aS'526'
p3170
aa(lp3171
S'UPPERCLASS'
p3172
ag196
aS'213'
p3173
aa(lp3174
S'UPPERCLASS'
p3175
ag71
aS'124'
p3176
aa(lp3177
S'UPPERCLASS'
p3178
ag3150
aS'412'
p3179
aa(lp3180
S'UPPERCLASS'
p3181
ag3150
aS'441'
p3182
aa(lp3183
S'UPPERCLASS'
p3184
ag3150
aS'411'
p3185
aa(lp3186
S'UPPERCLASS'
p3187
ag88
aS'225'
p3188
aa(lp3189
S'UPPERCLASS'
p3190
ag30
aS'532'
p3191
aa(lp3192
S'UPPERCLASS'
p3193
ag30
aS'536'
p3194
aa(lp3195
S'UPPERCLASS'
p3196
ag30
aS'531'
p3197
aa(lp3198
S'UPPERCLASS'
p3199
ag30
aS'524'
p3200
aa(lp3201
S'UPPERCLASS'
p3202
ag30
aS'516'
p3203
aa(lp3204
S'UPPERCLASS'
p3205
ag30
aS'521'
p3206
aa(lp3207
S'UPPERCLASS'
p3208
ag30
aS'402'
p3209
aa(lp3210
S'UPPERCLASS'
p3211
ag3160
aS'329'
p3212
aa(lp3213
S'UPPERCLASS'
p3214
ag196
aS'200S'
p3215
aa(lp3216
S'UPPERCLASS'
p3217
ag196
aS'411'
p3218
aa(lp3219
S'UPPERCLASS'
p3220
ag3160
aS'210'
p3221
aa(lp3222
S'UPPERCLASS'
p3223
ag30
aS'112'
p3224
aa(lp3225
S'UPPERCLASS'
p3226
aS'WRIGHT'
p3227
aS'011'
p3228
aa(lp3229
S'UPPERCLASS'
p3230
ag122
aS'245'
p3231
aa(lp3232
S'UPPERCLASS'
p3233
ag122
aS'231'
p3234
aa(lp3235
S'UPPERCLASS'
p3236
ag122
aS'233'
p3237
aa(lp3238
S'UPPERCLASS'
p3239
ag78
aS'621'
p3240
aa(lp3241
S'UPPERCLASS'
p3242
ag78
aS'722'
p3243
aa(lp3244
S'UPPERCLASS'
p3245
ag78
aS'721'
p3246
aa(lp3247
S'UPPERCLASS'
p3248
ag122
aS'304'
p3249
aa(lp3250
S'UPPERCLASS'
p3251
ag30
aS'503'
p3252
aa(lp3253
S'UPPERCLASS'
p3254
ag30
aS'216'
p3255
aa(lp3256
S'UPPERCLASS'
p3257
ag30
aS'233'
p3258
aa(lp3259
S'UPPERCLASS'
p3260
ag30
aS'131'
p3261
aa(lp3262
S'UPPERCLASS'
p3263
ag30
aS'231'
p3264
aa(lp3265
S'UPPERCLASS'
p3266
ag196
aS'300S'
p3267
aa(lp3268
S'UPPERCLASS'
p3269
ag196
aS'401N'
p3270
aa(lp3271
S'UPPERCLASS'
p3272
aS'CUYLER'
p3273
aS'521'
p3274
aa(lp3275
S'UPPERCLASS'
p3276
ag196
aS'400S'
p3277
aa(lp3278
S'UPPERCLASS'
p3279
ag3160
aS'429'
p3280
aa(lp3281
S'UPPERCLASS'
p3282
ag78
aS'734'
p3283
aa(lp3284
S'UPPERCLASS'
p3285
ag78
aS'726'
p3286
aa(lp3287
S'UPPERCLASS'
p3288
ag78
aS'735'
p3289
aa(lp3290
S'UPPERCLASS'
p3291
ag171
aS'T07'
p3292
aa(lp3293
S'UPPERCLASS'
p3294
ag30
aS'237'
p3295
aa(lp3296
S'UPPERCLASS'
p3297
ag196
aS'413'
p3298
aa(lp3299
S'UPPERCLASS'
p3300
ag122
aS'255'
p3301
aa(lp3302
S'UPPERCLASS'
p3303
ag122
aS'333'
p3304
aa(lp3305
S'UPPERCLASS'
p3306
ag122
aS'331'
p3307
aa(lp3308
S'UPPERCLASS'
p3309
ag122
aS'261'
p3310
aa(lp3311
S'UPPERCLASS'
p3312
ag122
aS'355'
p3313
aa(lp3314
S'UPPERCLASS'
p3315
ag122
aS'361'
p3316
aa(lp3317
S'UPPERCLASS'
p3318
ag122
aS'131'
p3319
aa(lp3320
S'UPPERCLASS'
p3321
ag122
aS'121'
p3322
aa(lp3323
S'UPPERCLASS'
p3324
ag122
aS'133'
p3325
aa(lp3326
S'UPPERCLASS'
p3327
ag122
aS'123'
p3328
aa(lp3329
S'UPPERCLASS'
p3330
ag122
aS'125'
p3331
aa(lp3332
S'UPPERCLASS'
p3333
ag122
aS'127'
p3334
aa(lp3335
S'UPPERCLASS'
p3336
ag78
aS'211'
p3337
aa(lp3338
S'UPPERCLASS'
p3339
ag3273
aS'511'
p3340
aa(lp3341
S'UPPERCLASS'
p3342
ag196
aS'400N'
p3343
aa(lp3344
S'UPPERCLASS'
p3345
ag196
aS'402N'
p3346
aa(lp3347
S'UPPERCLASS'
p3348
ag30
aS'212'
p3349
aa(lp3350
S'UPPERCLASS'
p3351
ag122
aS'358'
p3352
aa(lp3353
S'UPPERCLASS'
p3354
ag122
aS'356'
p3355
aa(lp3356
S'UPPERCLASS'
p3357
ag122
aS'122'
p3358
aa(lp3359
S'UPPERCLASS'
p3360
ag30
aS'132'
p3361
aa(lp3362
S'UPPERCLASS'
p3363
ag196
aS'402S'
p3364
aa(lp3365
S'UPPERCLASS'
p3366
ag196
aS'211'
p3367
aa(lp3368
S'UPPERCLASS'
p3369
ag196
aS'200N'
p3370
aa(lp3371
S'UPPERCLASS'
p3372
ag171
aS'311'
p3373
aa(lp3374
S'UPPERCLASS'
p3375
ag3160
aS'117'
p3376
aa(lp3377
S'UPPERCLASS'
p3378
ag30
aS'228'
p3379
aa(lp3380
S'UPPERCLASS'
p3381
ag3160
aS'119'
p3382
aa(lp3383
S'UPPERCLASS'
p3384
ag3273
aS'432'
p3385
aa(lp3386
S'UPPERCLASS'
p3387
ag88
aS'121'
p3388
aa(lp3389
S'UPPERCLASS'
p3390
ag3273
aS'438'
p3391
aa(lp3392
S'UPPERCLASS'
p3393
ag88
aS'322'
p3394
aa(lp3395
S'UPPERCLASS'
p3396
ag122
aS'221'
p3397
aa(lp3398
S'UPPERCLASS'
p3399
ag171
aS'307'
p3400
aa(lp3401
S'UPPERCLASS'
p3402
ag3227
aS'303'
p3403
aa(lp3404
S'UPPERCLASS'
p3405
ag3227
aS'302'
p3406
aa(lp3407
S'UPPERCLASS'
p3408
ag30
aS'222'
p3409
aa(lp3410
S'UPPERCLASS'
p3411
ag30
aS'221'
p3412
aa(lp3413
S'UPPERCLASS'
p3414
ag78
aS'511'
p3415
aa(lp3416
S'UPPERCLASS'
p3417
ag3227
aS'404'
p3418
aa(lp3419
S'UPPERCLASS'
p3420
ag171
aS'083'
p3421
aa(lp3422
S'UPPERCLASS'
p3423
ag171
aS'089'
p3424
aa(lp3425
S'UPPERCLASS'
p3426
ag171
aS'074'
p3427
aa(lp3428
S'UPPERCLASS'
p3429
ag171
aS'T04'
p3430
aa(lp3431
S'UPPERCLASS'
p3432
ag171
aS'T05'
p3433
aa(lp3434
S'UPPERCLASS'
p3435
aS'LAUGHLIN'
p3436
aS'523'
p3437
aa(lp3438
S'UPPERCLASS'
p3439
ag88
aS'115'
p3440
aa(lp3441
S'UPPERCLASS'
p3442
ag3273
aS'401'
p3443
aa(lp3444
S'UPPERCLASS'
p3445
ag3160
aS'111'
p3446
aa(lp3447
S'UPPERCLASS'
p3448
ag30
aS'215'
p3449
aa(lp3450
S'UPPERCLASS'
p3451
ag78
aS'342'
p3452
aa(lp3453
S'UPPERCLASS'
p3454
ag78
aS'331'
p3455
aa(lp3456
S'UPPERCLASS'
p3457
ag78
aS'332'
p3458
aa(lp3459
S'UPPERCLASS'
p3460
ag78
aS'343'
p3461
aa(lp3462
S'UPPERCLASS'
p3463
ag78
aS'344'
p3464
aa(lp3465
S'UPPERCLASS'
p3466
ag3227
aS'305'
p3467
aa(lp3468
S'UPPERCLASS'
p3469
ag3227
aS'301'
p3470
aa(lp3471
S'UPPERCLASS'
p3472
ag78
aS'311'
p3473
aa(lp3474
S'UPPERCLASS'
p3475
ag78
aS'312'
p3476
aa(lp3477
S'UPPERCLASS'
p3478
ag78
aS'634'
p3479
aa(lp3480
S'UPPERCLASS'
p3481
ag78
aS'633'
p3482
aa(lp3483
S'UPPERCLASS'
p3484
ag78
aS'414'
p3485
aa(lp3486
S'UPPERCLASS'
p3487
ag78
aS'623'
p3488
aa(lp3489
S'UPPERCLASS'
p3490
ag78
aS'413'
p3491
aa(lp3492
S'UPPERCLASS'
p3493
ag78
aS'411'
p3494
aa(lp3495
S'UPPERCLASS'
p3496
ag78
aS'611'
p3497
aa(lp3498
S'UPPERCLASS'
p3499
ag78
aS'617'
p3500
aa(lp3501
S'UPPERCLASS'
p3502
ag78
aS'613'
p3503
aa(lp3504
S'UPPERCLASS'
p3505
ag30
aS'227'
p3506
aa(lp3507
S'UPPERCLASS'
p3508
ag171
aS'075'
p3509
aa(lp3510
S'UPPERCLASS'
p3511
ag78
aS'427'
p3512
aa(lp3513
S'UPPERCLASS'
p3514
ag78
aS'426'
p3515
aa(lp3516
S'UPPERCLASS'
p3517
ag78
aS'429'
p3518
aa(lp3519
S'UPPERCLASS'
p3520
ag78
aS'428'
p3521
aa(lp3522
S'UPPERCLASS'
p3523
ag71
aS'095'
p3524
aa(lp3525
S'UPPERCLASS'
p3526
ag30
aS'113'
p3527
aa(lp3528
S'UPPERCLASS'
p3529
ag71
aS'399'
p3530
aa(lp3531
S'UPPERCLASS'
p3532
ag71
aS'111'
p3533
aa(lp3534
S'UPPERCLASS'
p3535
ag171
aS'310'
p3536
aa(lp3537
S'UPPERCLASS'
p3538
ag30
aS'414'
p3539
aa(lp3540
S'UPPERCLASS'
p3541
ag196
aS'300N'
p3542
aa(lp3543
S'UPPERCLASS'
p3544
ag30
aS'211'
p3545
aa(lp3546
S'UPPERCLASS'
p3547
ag30
aS'143'
p3548
aa(lp3549
S'UPPERCLASS'
p3550
ag78
aS'213'
p3551
aa(lp3552
S'UPPERCLASS'
p3553
ag78
aS'212'
p3554
aa(lp3555
S'UPPERCLASS'
p3556
ag196
aS'401S'
p3557
aa(lp3558
S'UPPERCLASS'
p3559
ag196
aS'414'
p3560
aa(lp3561
S'UPPERCLASS'
p3562
ag196
aS'415'
p3563
aa(lp3564
S'UPPERCLASS'
p3565
ag3150
aS'125'
p3566
aa(lp3567
S'UPPERCLASS'
p3568
ag30
aS'313'
p3569
aa(lp3570
S'UPPERCLASS'
p3571
ag30
aS'312'
p3572
aa(lp3573
S'UPPERCLASS'
p3574
ag30
aS'224'
p3575
aa(lp3576
S'UPPERCLASS'
p3577
ag30
aS'225'
p3578
aa(lp3579
S'UPPERCLASS'
p3580
ag30
aS'223'
p3581
aa(lp3582
S'UPPERCLASS'
p3583
aS'FOULKE'
p3584
aS'331'
p3585
aa(lp3586
S'UPPERCLASS'
p3587
ag3584
aS'335'
p3588
aa(lp3589
S'UPPERCLASS'
p3590
ag30
aS'322'
p3591
aa(lp3592
S'UPPERCLASS'
p3593
ag30
aS'234'
p3594
aa(lp3595
S'UPPERCLASS'
p3596
ag30
aS'134'
p3597
aa(lp3598
S'UPPERCLASS'
p3599
ag30
aS'136'
p3600
aa(lp3601
S'UPPERCLASS'
p3602
ag30
aS'111'
p3603
aa(lp3604
S'UPPERCLASS'
p3605
ag30
aS'114'
p3606
aa(lp3607
S'UPPERCLASS'
p3608
ag30
aS'235'
p3609
aa(lp3610
S'UPPERCLASS'
p3611
ag30
aS'125'
p3612
aa(lp3613
S'UPPERCLASS'
p3614
ag30
aS'121'
p3615
aa(lp3616
S'UPPERCLASS'
p3617
ag30
aS'135'
p3618
aa(lp3619
S'UPPERCLASS'
p3620
ag30
aS'124'
p3621
aa(lp3622
S'UPPERCLASS'
p3623
ag30
aS'126'
p3624
aa(lp3625
S'UPPERCLASS'
p3626
ag78
aS'421'
p3627
aa(lp3628
S'UPPERCLASS'
p3629
ag3150
aS'314'
p3630
aa(lp3631
S'UPPERCLASS'
p3632
ag3150
aS'312'
p3633
aa(lp3634
S'UPPERCLASS'
p3635
ag30
aS'433'
p3636
aa(lp3637
S'UPPERCLASS'
p3638
ag30
aS'422'
p3639
aa(lp3640
S'UPPERCLASS'
p3641
ag3160
aS'225'
p3642
aa(lp3643
S'UPPERCLASS'
p3644
ag3160
aS'226'
p3645
aa(lp3646
S'UPPERCLASS'
p3647
ag3160
aS'222'
p3648
aa(lp3649
S'UPPERCLASS'
p3650
ag30
aS'431'
p3651
aa(lp3652
S'UPPERCLASS'
p3653
ag30
aS'515'
p3654
aa(lp3655
S'UPPERCLASS'
p3656
ag30
aS'511'
p3657
aa(lp3658
S'UPPERCLASS'
p3659
ag30
aS'513'
p3660
aa(lp3661
S'UPPERCLASS'
p3662
ag30
aS'411'
p3663
aa(lp3664
S'UPPERCLASS'
p3665
ag30
aS'514'
p3666
aa(lp3667
S'UPPERCLASS'
p3668
ag171
aS'087'
p3669
aa(lp3670
S'UPPERCLASS'
p3671
ag3227
aS'402'
p3672
aa(lp3673
S'UPPERCLASS'
p3674
ag3227
aS'401'
p3675
aa(lp3676
S'UPPERCLASS'
p3677
ag3227
aS'407'
p3678
aa(lp3679
S'UPPERCLASS'
p3680
ag3227
aS'406'
p3681
aa(lp3682
S'UPPERCLASS'
p3683
ag122
aS'330'
p3684
aa(lp3685
S'UPPERCLASS'
p3686
ag122
aS'332'
p3687
aa(lp3688
S'UPPERCLASS'
p3689
ag122
aS'334'
p3690
aa(lp3691
S'UPPERCLASS'
p3692
ag122
aS'328'
p3693
aa(lp3694
S'UPPERCLASS'
p3695
ag30
aS'133'
p3696
aa(lp3697
S'UPPERCLASS'
p3698
ag171
aS'408'
p3699
aa(lp3700
S'UPPERCLASS'
p3701
ag30
aS'142'
p3702
aa(lp3703
S'UPPERCLASS'
p3704
ag3584
aS'325'
p3705
aa(lp3706
S'UPPERCLASS'
p3707
ag3584
aS'315'
p3708
aa(lp3709
S'UPPERCLASS'
p3710
ag3584
aS'318'
p3711
aa(lp3712
S'UPPERCLASS'
p3713
ag30
aS'332'
p3714
aa(lp3715
S'UPPERCLASS'
p3716
ag30
aS'323'
p3717
aa(lp3718
S'UPPERCLASS'
p3719
ag3227
aS'031'
p3720
aa(lp3721
S'UPPERCLASS'
p3722
ag122
aS'234'
p3723
aa(lp3724
S'UPPERCLASS'
p3725
ag122
aS'236'
p3726
aa(lp3727
S'UPPERCLASS'
p3728
ag122
aS'238'
p3729
aa(lp3730
S'UPPERCLASS'
p3731
ag3227
aS'403'
p3732
aa(lp3733
S'UPPERCLASS'
p3734
ag122
aS'222'
p3735
aa(lp3736
S'UPPERCLASS'
p3737
ag122
aS'102'
p3738
aa(lp3739
S'UPPERCLASS'
p3740
ag122
aS'448'
p3741
aa(lp3742
S'UPPERCLASS'
p3743
ag171
aS'070'
p3744
aa(lp3745
S'UPPERCLASS'
p3746
ag3436
aS'624'
p3747
aa(lp3748
S'UPPERCLASS'
p3749
ag3436
aS'626'
p3750
aa(lp3751
S'UPPERCLASS'
p3752
ag78
aS'624'
p3753
aa(lp3754
S'UPPERCLASS'
p3755
ag11
aS'114'
p3756
aa(lp3757
S'UPPERCLASS'
p3758
ag171
aS'076'
p3759
aa(lp3760
S'UPPERCLASS'
p3761
ag11
aS'112'
p3762
aa(lp3763
S'UPPERCLASS'
p3764
ag11
aS'111'
p3765
aa(lp3766
S'UPPERCLASS'
p3767
ag78
aS'222'
p3768
aa(lp3769
S'UPPERCLASS'
p3770
ag78
aS'223'
p3771
aa(lp3772
S'UPPERCLASS'
p3773
ag122
aS'436'
p3774
aa(lp3775
S'UPPERCLASS'
p3776
ag3150
aS'313'
p3777
aa(lp3778
S'UPPERCLASS'
p3779
ag122
aS'360'
p3780
aa(lp3781
S'UPPERCLASS'
p3782
ag122
aS'362'
p3783
aa(lp3784
S'UPPERCLASS'
p3785
ag122
aS'350'
p3786
aa(lp3787
S'UPPERCLASS'
p3788
ag122
aS'352'
p3789
aa(lp3790
S'UPPERCLASS'
p3791
ag122
aS'354'
p3792
aa(lp3793
S'UPPERCLASS'
p3794
ag3160
aS'325'
p3795
aa(lp3796
S'UPPERCLASS'
p3797
ag3150
aS'405'
p3798
aa(lp3799
S'UPPERCLASS'
p3800
ag3160
aS'326'
p3801
aa(lp3802
S'UPPERCLASS'
p3803
ag196
aS'302S'
p3804
aa(lp3805
S'UPPERCLASS'
p3806
ag11
aS'413'
p3807
aa(lp3808
S'UPPERCLASS'
p3809
ag11
aS'402'
p3810
aa(lp3811
S'UPPERCLASS'
p3812
ag11
aS'401'
p3813
aa(lp3814
S'UPPERCLASS'
p3815
ag78
aS'313'
p3816
aa(lp3817
S'UPPERCLASS'
p3818
ag196
aS'214'
p3819
aa(lp3820
S'UPPERCLASS'
p3821
ag78
aS'435'
p3822
aa(lp3823
S'UPPERCLASS'
p3824
ag78
aS'436'
p3825
aa(lp3826
S'UPPERCLASS'
p3827
ag78
aS'433'
p3828
aa(lp3829
S'UPPERCLASS'
p3830
ag78
aS'439'
p3831
aa(lp3832
S'UPPERCLASS'
p3833
ag78
aS'431'
p3834
aa(lp3835
S'UPPERCLASS'
p3836
ag78
aS'334'
p3837
aa(lp3838
S'UPPERCLASS'
p3839
ag78
aS'434'
p3840
aa(lp3841
S'UPPERCLASS'
p3842
ag30
aS'525'
p3843
aa(lp3844
S'UPPERCLASS'
p3845
ag171
aS'309'
p3846
aa(lp3847
S'UPPERCLASS'
p3848
ag78
aS'321'
p3849
aa(lp3850
S'UPPERCLASS'
p3851
ag3273
aS'233'
p3852
aa(lp3853
S'UPPERCLASS'
p3854
ag78
aS'243'
p3855
aa(lp3856
S'UPPERCLASS'
p3857
ag78
aS'241'
p3858
aa(lp3859
S'UPPERCLASS'
p3860
ag3150
aS'111'
p3861
aa(lp3862
S'UPPERCLASS'
p3863
ag3150
aS'113'
p3864
aa(lp3865
S'UPPERCLASS'
p3866
ag3150
aS'114'
p3867
aa(lp3868
S'UPPERCLASS'
p3869
ag122
aS'321'
p3870
aa(lp3871
S'UPPERCLASS'
p3872
ag3584
aS'202'
p3873
aa(lp3874
S'UPPERCLASS'
p3875
ag3584
aS'205'
p3876
aa(lp3877
S'UPPERCLASS'
p3878
ag3584
aS'204'
p3879
aa(lp3880
S'UPPERCLASS'
p3881
ag122
aS'126'
p3882
aa(lp3883
S'UPPERCLASS'
p3884
ag196
aS'216'
p3885
aa(lp3886
S'UPPERCLASS'
p3887
ag122
aS'124'
p3888
aa(lp3889
S'UPPERCLASS'
p3890
ag122
aS'312'
p3891
aa(lp3892
S'UPPERCLASS'
p3893
ag196
aS'404'
p3894
aa(lp3895
S'UPPERCLASS'
p3896
ag196
aS'314'
p3897
aa(lp3898
S'UPPERCLASS'
p3899
ag196
aS'310'
p3900
aa(lp3901
S'UPPERCLASS'
p3902
ag3150
aS'142'
p3903
aa(lp3904
S'UPPERCLASS'
p3905
ag3150
aS'121'
p3906
aa(lp3907
S'UPPERCLASS'
p3908
ag3436
aS'623'
p3909
aa(lp3910
S'UPPERCLASS'
p3911
ag122
aS'202'
p3912
aa(lp3913
S'UPPERCLASS'
p3914
ag171
aS'T02'
p3915
aa(lp3916
S'UPPERCLASS'
p3917
ag196
aS'206'
p3918
aa(lp3919
S'UPPERCLASS'
p3920
ag78
aS'603'
p3921
aa(lp3922
S'UPPERCLASS'
p3923
ag196
aS'205'
p3924
aa(lp3925
S'UPPERCLASS'
p3926
ag3150
aS'431'
p3927
aa(lp3928
S'UPPERCLASS'
p3929
ag3150
aS'335'
p3930
aa(lp3931
S'UPPERCLASS'
p3932
ag78
aS'713'
p3933
aa(lp3934
S'UPPERCLASS'
p3935
ag78
aS'714'
p3936
aa(lp3937
S'UPPERCLASS'
p3938
ag78
aS'711'
p3939
aa(lp3940
S'UPPERCLASS'
p3941
ag78
aS'712'
p3942
aa(lp3943
S'UPPERCLASS'
p3944
ag78
aS'716'
p3945
aa(lp3946
S'UPPERCLASS'
p3947
ag78
aS'715'
p3948
aa(lp3949
S'UPPERCLASS'
p3950
ag3436
aS'511'
p3951
aa(lp3952
S'UPPERCLASS'
p3953
ag3150
aS'132'
p3954
aa(lp3955
S'UPPERCLASS'
p3956
ag3436
aS'615'
p3957
aa(lp3958
S'UPPERCLASS'
p3959
ag196
aS'210'
p3960
aa(lp3961
S'UPPERCLASS'
p3962
ag71
aS'131'
p3963
aa(lp3964
S'UPPERCLASS'
p3965
ag78
aS'632'
p3966
aa(lp3967
S'UPPERCLASS'
p3968
ag3273
aS'632'
p3969
aa(lp3970
S'UPPERCLASS'
p3971
ag78
aS'625'
p3972
aa(lp3973
S'UPPERCLASS'
p3974
ag122
aS'250'
p3975
aa(lp3976
S'UPPERCLASS'
p3977
ag122
aS'248'
p3978
aa(lp3979
S'UPPERCLASS'
p3980
ag3273
aS'433'
p3981
aa(lp3982
S'UPPERCLASS'
p3983
ag78
aS'622'
p3984
aa(lp3985
S'UPPERCLASS'
p3986
ag88
aS'313'
p3987
aa(lp3988
S'UPPERCLASS'
p3989
ag88
aS'312'
p3990
aa(lp3991
S'UPPERCLASS'
p3992
ag88
aS'202'
p3993
aa(lp3994
S'UPPERCLASS'
p3995
ag88
aS'201'
p3996
aa(lp3997
S'UPPERCLASS'
p3998
ag88
aS'116'
p3999
aa(lp4000
S'UPPERCLASS'
p4001
ag88
aS'213'
p4002
aa(lp4003
S'UPPERCLASS'
p4004
ag88
aS'211'
p4005
aa(lp4006
S'UPPERCLASS'
p4007
ag171
aS'T11'
p4008
aa(lp4009
S'UPPERCLASS'
p4010
ag122
aS'213'
p4011
aa(lp4012
S'UPPERCLASS'
p4013
ag171
aS'T10'
p4014
aa(lp4015
S'UPPERCLASS'
p4016
ag3273
aS'232'
p4017
aa(lp4018
S'UPPERCLASS'
p4019
ag3273
aS'235'
p4020
aa(lp4021
S'UPPERCLASS'
p4022
ag171
aS'063'
p4023
aa(lp4024
S'UPPERCLASS'
p4025
ag171
aS'T09'
p4026
aa(lp4027
S'UPPERCLASS'
p4028
ag122
aS'215'
p4029
aa(lp4030
S'UPPERCLASS'
p4031
ag88
aS'301'
p4032
aa(lp4033
S'UPPERCLASS'
p4034
ag171
aS'T06'
p4035
aa(lp4036
S'UPPERCLASS'
p4037
ag88
aS'226'
p4038
aa(lp4039
S'UPPERCLASS'
p4040
ag3584
aS'334'
p4041
aa(lp4042
S'UPPERCLASS'
p4043
ag3436
aS'627'
p4044
aa(lp4045
S'UPPERCLASS'
p4046
ag3436
aS'622'
p4047
aa(lp4048
S'UPPERCLASS'
p4049
ag3584
aS'214'
p4050
aa(lp4051
S'UPPERCLASS'
p4052
ag3584
aS'313'
p4053
aa(lp4054
S'UPPERCLASS'
p4055
ag3584
aS'314'
p4056
aa(lp4057
S'UPPERCLASS'
p4058
ag3584
aS'213'
p4059
aa(lp4060
S'UPPERCLASS'
p4061
ag196
aS'311'
p4062
aa(lp4063
S'UPPERCLASS'
p4064
ag196
aS'301N'
p4065
aa(lp4066
S'UPPERCLASS'
p4067
ag196
aS'302N'
p4068
aa(lp4069
S'UPPERCLASS'
p4070
ag11
aS'212'
p4071
aa(lp4072
S'UPPERCLASS'
p4073
ag78
aS'616'
p4074
aa(lp4075
S'UPPERCLASS'
p4076
ag3273
aS'431'
p4077
aa(lp4078
S'UPPERCLASS'
p4079
ag78
aS'341'
p4080
aa(lp4081
S'UPPERCLASS'
p4082
ag196
aS'405'
p4083
aa(lp4084
S'UPPERCLASS'
p4085
ag3273
aS'436'
p4086
aa(lp4087
S'UPPERCLASS'
p4088
ag3273
aS'435'
p4089
aa(lp4090
S'UPPERCLASS'
p4091
ag3273
aS'439'
p4092
aa(lp4093
S'UPPERCLASS'
p4094
ag3273
aS'231'
p4095
aa(lp4096
S'UPPERCLASS'
p4097
ag78
aS'325'
p4098
aa(lp4099
S'UPPERCLASS'
p4100
ag78
aS'324'
p4101
aa(lp4102
S'UPPERCLASS'
p4103
ag196
aS'217'
p4104
aa(lp4105
S'UPPERCLASS'
p4106
ag196
aS'204'
p4107
aa(lp4108
S'UPPERCLASS'
p4109
ag196
aS'202'
p4110
aa(lp4111
S'UPPERCLASS'
p4112
ag196
aS'315'
p4113
aa(lp4114
S'UPPERCLASS'
p4115
ag3436
aS'521'
p4116
aa(lp4117
S'UPPERCLASS'
p4118
ag3584
aS'301'
p4119
aa(lp4120
S'UPPERCLASS'
p4121
ag3584
aS'302'
p4122
aa(lp4123
S'UPPERCLASS'
p4124
ag3584
aS'303'
p4125
aa(lp4126
S'UPPERCLASS'
p4127
ag3584
aS'308'
p4128
aa(lp4129
S'UPPERCLASS'
p4130
ag78
aS'214'
p4131
aa(lp4132
S'UPPERCLASS'
p4133
ag122
aS'313'
p4134
aa(lp4135
S'UPPERCLASS'
p4136
ag122
aS'315'
p4137
aa(lp4138
S'UPPERCLASS'
p4139
ag171
aS'040'
p4140
aa(lp4141
S'UPPERCLASS'
p4142
ag196
aS'200'
p4143
aa(lp4144
S'UPPERCLASS'
p4145
ag122
aS'252'
p4146
aa(lp4147
S'UPPERCLASS'
p4148
ag122
aS'254'
p4149
aa(lp4150
S'UPPERCLASS'
p4151
ag122
aS'227'
p4152
aa(lp4153
S'UPPERCLASS'
p4154
ag122
aS'225'
p4155
aa(lp4156
S'UPPERCLASS'
p4157
ag122
aS'230'
p4158
aa(lp4159
S'UPPERCLASS'
p4160
ag122
aS'228'
p4161
aa(lp4162
S'UPPERCLASS'
p4163
ag3227
aS'020'
p4164
aa(lp4165
S'UPPERCLASS'
p4166
ag11
aS'312'
p4167
aa(lp4168
S'UPPERCLASS'
p4169
ag11
aS'315'
p4170
aa(lp4171
S'UPPERCLASS'
p4172
ag11
aS'314'
p4173
aa(lp4174
S'UPPERCLASS'
p4175
ag122
aS'150'
p4176
aa(lp4177
S'UPPERCLASS'
p4178
ag122
aS'152'
p4179
aa(lp4180
S'UPPERCLASS'
p4181
ag122
aS'148'
p4182
aa(lp4183
S'UPPERCLASS'
p4184
ag122
aS'258'
p4185
aa(lp4186
S'UPPERCLASS'
p4187
ag122
aS'256'
p4188
aa(lp4189
S'UPPERCLASS'
p4190
ag122
aS'345'
p4191
aa(lp4192
S'UPPERCLASS'
p4193
ag122
aS'327'
p4194
aa(lp4195
S'UPPERCLASS'
p4196
ag122
aS'325'
p4197
aa(lp4198
S'UPPERCLASS'
p4199
ag122
aS'371'
p4200
aa(lp4201
S'UPPERCLASS'
p4202
ag122
aS'171'
p4203
aa(lp4204
S'UPPERCLASS'
p4205
ag3273
aS'634'
p4206
aa(lp4207
S'UPPERCLASS'
p4208
ag78
aS'144'
p4209
aa(lp4210
S'UPPERCLASS'
p4211
ag78
aS'731'
p4212
aa(lp4213
S'UPPERCLASS'
p4214
ag122
aS'440'
p4215
aa(lp4216
S'UPPERCLASS'
p4217
ag122
aS'444'
p4218
aa(lp4219
S'UPPERCLASS'
p4220
ag122
aS'115'
p4221
aa(lp4222
S'UPPERCLASS'
p4223
ag122
aS'113'
p4224
aa(lp4225
S'UPPERCLASS'
p4226
ag122
aS'156'
p4227
aa(lp4228
S'UPPERCLASS'
p4229
ag122
aS'158'
p4230
aa(lp4231
S'UPPERCLASS'
p4232
ag78
aS'422'
p4233
aa(lp4234
S'UPPERCLASS'
p4235
ag78
aS'424'
p4236
aa(lp4237
S'UPPERCLASS'
p4238
ag78
aS'425'
p4239
aa(lp4240
S'UPPERCLASS'
p4241
ag122
aS'154'
p4242
aa(lp4243
S'UPPERCLASS'
p4244
ag196
aS'202N'
p4245
aa(lp4246
S'UPPERCLASS'
p4247
ag196
aS'201N'
p4248
aa(lp4249
S'UPPERCLASS'
p4250
ag78
aS'224'
p4251
aa(lp4252
S'UPPERCLASS'
p4253
ag78
aS'612'
p4254
aa(lp4255
S'UPPERCLASS'
p4256
ag3160
aS'321'
p4257
aa(lp4258
S'UPPERCLASS'
p4259
ag122
aS'323'
p4260
aa(lp4261
S'UPPERCLASS'
p4262
ag78
aS'727'
p4263
aa(lp4264
S'UPPERCLASS'
p4265
ag196
aS'207'
p4266
aa(lp4267
S'UPPERCLASS'
p4268
ag122
aS'242'
p4269
aa(lp4270
S'UPPERCLASS'
p4271
ag78
aS'717'
p4272
aa(lp4273
S'UPPERCLASS'
p4274
ag78
aS'719'
p4275
aa(lp4276
S'UPPERCLASS'
p4277
ag122
aS'224'
p4278
aa(lp4279
S'UPPERCLASS'
p4280
ag122
aS'240'
p4281
aa(lp4282
S'UPPERCLASS'
p4283
ag122
aS'226'
p4284
aa(lp4285
S'UPPERCLASS'
p4286
ag122
aS'216'
p4287
aa(lp4288
S'UPPERCLASS'
p4289
ag196
aS'201S'
p4290
aa(lp4291
S'UPPERCLASS'
p4292
ag196
aS'300'
p4293
aa(lp4294
S'UPPERCLASS'
p4295
ag196
aS'202S'
p4296
aa(lp4297
S'UPPERCLASS'
p4298
ag122
aS'144'
p4299
aa(lp4300
S'UPPERCLASS'
p4301
ag78
aS'741'
p4302
aa(lp4303
S'UPPERCLASS'
p4304
ag171
aS'041'
p4305
aa(lp4306
S'UPPERCLASS'
p4307
ag78
aS'601'
p4308
aa(lp4309
S'UPPERCLASS'
p4310
ag88
aS'233'
p4311
aa(lp4312
S'UPPERCLASS'
p4313
ag3160
aS'314'
p4314
aa(lp4315
S'UPPERCLASS'
p4316
ag122
aS'140'
p4317
aa(lp4318
S'UPPERCLASS'
p4319
ag3160
aS'113'
p4320
aa(lp4321
S'UPPERCLASS'
p4322
ag3150
aS'404'
p4323
aa(lp4324
S'UPPERCLASS'
p4325
ag3160
aS'125'
p4326
aa(lp4327
S'UPPERCLASS'
p4328
ag3160
aS'114'
p4329
aa(lp4330
S'UPPERCLASS'
p4331
ag3160
aS'123'
p4332
aa(lp4333
S'UPPERCLASS'
p4334
ag196
aS'107'
p4335
aa(lp4336
S'UPPERCLASS'
p4337
ag196
aS'201'
p4338
aa(lp4339
S'UPPERCLASS'
p4340
ag78
aS'225'
p4341
aa(lp4342
S'UPPERCLASS'
p4343
ag78
aS'423'
p4344
aa(lp4345
S'UPPERCLASS'
p4346
ag196
aS'101N'
p4347
aa(lp4348
S'UPPERCLASS'
p4349
ag3436
aS'633'
p4350
aa(lp4351
S'UPPERCLASS'
p4352
ag3584
aS'102'
p4353
aa(lp4354
S'UPPERCLASS'
p4355
ag88
aS'220'
p4356
aa(lp4357
S'UPPERCLASS'
p4358
ag88
aS'224'
p4359
aa(lp4360
S'UPPERCLASS'
p4361
ag88
aS'235'
p4362
aa(lp4363
S'UPPERCLASS'
p4364
ag88
aS'236'
p4365
aa(lp4366
S'UPPERCLASS'
p4367
ag88
aS'229'
p4368
aa(lp4369
S'UPPERCLASS'
p4370
ag88
aS'132'
p4371
aa(lp4372
S'UPPERCLASS'
p4373
ag3150
aS'233'
p4374
aa(lp4375
S'UPPERCLASS'
p4376
ag3150
aS'234'
p4377
aa(lp4378
S'UPPERCLASS'
p4379
ag3150
aS'235'
p4380
aa(lp4381
S'UPPERCLASS'
p4382
ag3150
aS'221'
p4383
aa(lp4384
S'UPPERCLASS'
p4385
ag88
aS'131'
p4386
aa(lp4387
S'UPPERCLASS'
p4388
ag196
aS'301S'
p4389
aa(lp4390
S'UPPERCLASS'
p4391
ag196
aS'303'
p4392
aa(lp4393
S'UPPERCLASS'
p4394
ag196
aS'312'
p4395
aa(lp4396
S'UPPERCLASS'
p4397
ag196
aS'302'
p4398
aa(lp4399
S'UPPERCLASS'
p4400
ag196
aS'306'
p4401
aa(lp4402
S'UPPERCLASS'
p4403
ag3150
aS'126'
p4404
aa(lp4405
S'UPPERCLASS'
p4406
ag3150
aS'223'
p4407
aa(lp4408
S'UPPERCLASS'
p4409
ag3436
aS'621'
p4410
aa(lp4411
S'UPPERCLASS'
p4412
ag196
aS'113'
p4413
aa(lp4414
S'UPPERCLASS'
p4415
ag3436
aS'618'
p4416
aa(lp4417
S'UPPERCLASS'
p4418
ag11
aS'411'
p4419
aa(lp4420
S'UPPERCLASS'
p4421
ag3150
aS'116'
p4422
aa(lp4423
S'UPPERCLASS'
p4424
ag78
aS'615'
p4425
aa(lp4426
S'UPPERCLASS'
p4427
ag30
aS'232'
p4428
aa(lp4429
S'UPPERCLASS'
p4430
ag30
aS'334'
p4431
aa(lp4432
S'UPPERCLASS'
p4433
ag11
aS'211'
p4434
aa(lp4435
S'UPPERCLASS'
p4436
ag78
aS'121'
p4437
aa(lp4438
S'UPPERCLASS'
p4439
ag171
aS'062'
p4440
aa(lp4441
S'UPPERCLASS'
p4442
ag3150
aS'402'
p4443
aa(lp4444
S'UPPERCLASS'
p4445
ag3584
aS'101'
p4446
aa(lp4447
S'UPPERCLASS'
p4448
ag11
aS'313'
p4449
aa(lp4450
S'UPPERCLASS'
p4451
ag11
aS'412'
p4452
aa(lp4453
S'UPPERCLASS'
p4454
ag3584
aS'332'
p4455
aa(lp4456
S'UPPERCLASS'
p4457
ag3584
aS'333'
p4458
aa(lp4459
S'UPPERCLASS'
p4460
ag122
aS'273'
p4461
aa(lp4462
S'UPPERCLASS'
p4463
ag3584
aS'124'
p4464
aa(lp4465
S'UPPERCLASS'
p4466
ag3584
aS'324'
p4467
aa(lp4468
S'UPPERCLASS'
p4469
ag3584
aS'123'
p4470
aa(lp4471
S'UPPERCLASS'
p4472
ag3584
aS'323'
p4473
aa(lp4474
S'UPPERCLASS'
p4475
ag122
aS'210'
p4476
aa(lp4477
S'UPPERCLASS'
p4478
ag88
aS'141'
p4479
aa(lp4480
S'UPPERCLASS'
p4481
ag88
aS'134'
p4482
aa(lp4483
S'UPPERCLASS'
p4484
ag196
aS'317'
p4485
aa(lp4486
S'UPPERCLASS'
p4487
ag78
aS'412'
p4488
aa(lp4489
S'UPPERCLASS'
p4490
ag3584
aS'306'
p4491
aa(lp4492
S'UPPERCLASS'
p4493
ag3584
aS'307'
p4494
aa(lp4495
S'UPPERCLASS'
p4496
ag3584
aS'341'
p4497
aa(lp4498
S'UPPERCLASS'
p4499
ag3584
aS'132'
p4500
aa(lp4501
S'UPPERCLASS'
p4502
ag78
aS'733'
p4503
aa(lp4504
S'UPPERCLASS'
p4505
ag78
aS'732'
p4506
aa(lp4507
S'UPPERCLASS'
p4508
ag122
aS'270'
p4509
aa(lp4510
S'UPPERCLASS'
p4511
ag3150
aS'321'
p4512
aa(lp4513
S'UPPERCLASS'
p4514
ag78
aS'135'
p4515
aa(lp4516
S'UPPERCLASS'
p4517
ag3160
aS'218'
p4518
aa(lp4519
S'UPPERCLASS'
p4520
ag3227
aS'010'
p4521
aa(lp4522
S'UPPERCLASS'
p4523
ag11
aS'102'
p4524
aa(lp4525
S'UPPERCLASS'
p4526
ag30
aS'523'
p4527
aa(lp4528
S'UPPERCLASS'
p4529
ag3150
aS'117'
p4530
aa(lp4531
S'UPPERCLASS'
p4532
ag3150
aS'201'
p4533
aa(lp4534
S'UPPERCLASS'
p4535
ag3150
aS'214'
p4536
aa(lp4537
S'UPPERCLASS'
p4538
ag3150
aS'213'
p4539
aa(lp4540
S'UPPERCLASS'
p4541
ag3150
aS'333'
p4542
aa(lp4543
S'UPPERCLASS'
p4544
ag3150
aS'224'
p4545
aa(lp4546
S'UPPERCLASS'
p4547
ag3150
aS'413'
p4548
aa(lp4549
S'UPPERCLASS'
p4550
ag3584
aS'112'
p4551
aa(lp4552
S'UPPERCLASS'
p4553
ag3584
aS'113'
p4554
aa(lp4555
S'UPPERCLASS'
p4556
ag3584
aS'215'
p4557
aa(lp4558
S'UPPERCLASS'
p4559
ag3584
aS'122'
p4560
aa(lp4561
S'UPPERCLASS'
p4562
ag3160
aS'219'
p4563
aa(lp4564
S'UPPERCLASS'
p4565
ag3160
aS'220'
p4566
aa(lp4567
S'UPPERCLASS'
p4568
ag171
aS'308'
p4569
aa(lp4570
S'UPPERCLASS'
p4571
ag11
aS'101'
p4572
aa(lp4573
S'UPPERCLASS'
p4574
ag122
aS'212'
p4575
aa(lp4576
S'UPPERCLASS'
p4577
ag122
aS'214'
p4578
aa(lp4579
S'UPPERCLASS'
p4580
ag122
aS'340'
p4581
aa(lp4582
S'UPPERCLASS'
p4583
ag71
aS'142'
p4584
aa(lp4585
S'UPPERCLASS'
p4586
ag122
aS'348'
p4587
aa(lp4588
S'UPPERCLASS'
p4589
ag196
aS'406'
p4590
aa(lp4591
S'UPPERCLASS'
p4592
ag78
aS'438'
p4593
aa(lp4594
S'UPPERCLASS'
p4595
ag122
aS'439'
p4596
aa(lp4597
S'UPPERCLASS'
p4598
ag122
aS'438'
p4599
aa(lp4600
S'UPPERCLASS'
p4601
ag78
aS'705'
p4602
aa(lp4603
S'UPPERCLASS'
p4604
ag122
aS'437'
p4605
aa(lp4606
S'UPPERCLASS'
p4607
ag122
aS'442'
p4608
aa(lp4609
S'UPPERCLASS'
p4610
ag78
aS'703'
p4611
aa(lp4612
S'UPPERCLASS'
p4613
ag122
aS'441'
p4614
aa(lp4615
S'UPPERCLASS'
p4616
ag78
aS'742'
p4617
aa(lp4618
S'UPPERCLASS'
p4619
ag78
aS'743'
p4620
aa(lp4621
S'UPPERCLASS'
p4622
ag3273
aS'404'
p4623
aa(lp4624
S'UPPERCLASS'
p4625
ag88
aS'101'
p4626
aa(lp4627
S'UPPERCLASS'
p4628
ag196
aS'313'
p4629
aa(lp4630
S'UPPERCLASS'
p4631
ag171
aS'072'
p4632
aa(lp4633
S'UPPERCLASS'
p4634
ag3150
aS'101'
p4635
aa(lp4636
S'UPPERCLASS'
p4637
ag122
aS'302'
p4638
aa(lp4639
S'UPPERCLASS'
p4640
ag3150
aS'119'
p4641
aa(lp4642
S'UPPERCLASS'
p4643
ag3150
aS'118'
p4644
aa(lp4645
S'UPPERCLASS'
p4646
ag78
aS'701'
p4647
aa(lp4648
S'UPPERCLASS'
p4649
ag122
aS'108'
p4650
aa(lp4651
S'UPPERCLASS'
p4652
ag122
aS'110'
p4653
aa(lp4654
S'UPPERCLASS'
p4655
ag122
aS'223'
p4656
aa(lp4657
S'UPPERCLASS'
p4658
ag3160
aS'312'
p4659
aa(lp4660
S'UPPERCLASS'
p4661
ag3227
aS'304'
p4662
aa(lp4663
S'UPPERCLASS'
p4664
ag3160
aS'319'
p4665
aa(lp4666
S'UPPERCLASS'
p4667
ag122
aS'428'
p4668
aa(lp4669
S'UPPERCLASS'
p4670
ag3160
aS'417'
p4671
aa(lp4672
S'UPPERCLASS'
p4673
ag122
aS'322'
p4674
aa(lp4675
S'UPPERCLASS'
p4676
ag78
aS'134'
p4677
aa(lp4678
S'UPPERCLASS'
p4679
ag78
aS'231A'
p4680
aa(lp4681
S'UPPERCLASS'
p4682
ag71
aS'A46'
p4683
aa(lp4684
S'UPPERCLASS'
p4685
ag78
aS'124'
p4686
aa(lp4687
S'UPPERCLASS'
p4688
ag122
aS'316'
p4689
aa(lp4690
S'UPPERCLASS'
p4691
ag88
aS'302'
p4692
aa(lp4693
S'UPPERCLASS'
p4694
ag3150
aS'103'
p4695
aa(lp4696
S'UPPERCLASS'
p4697
ag3150
aS'104'
p4698
aa(lp4699
S'UPPERCLASS'
p4700
ag122
aS'253'
p4701
aa(lp4702
S'UPPERCLASS'
p4703
ag71
aS'A20'
p4704
aa(lp4705
S'UPPERCLASS'
p4706
ag3160
aS'328'
p4707
aa(lp4708
S'UPPERCLASS'
p4709
ag3160
aS'313'
p4710
aa(lp4711
S'UPPERCLASS'
p4712
ag3436
aS'617'
p4713
aa(lp4714
S'UPPERCLASS'
p4715
ag71
aS'115'
p4716
aa(lp4717
S'UPPERCLASS'
p4718
ag71
aS'146'
p4719
aa(lp4720
S'UPPERCLASS'
p4721
ag71
aS'A14'
p4722
aa(lp4723
S'UPPERCLASS'
p4724
ag71
aS'A56'
p4725
aa(lp4726
S'UPPERCLASS'
p4727
ag3273
aS'421'
p4728
aa(lp4729
S'UPPERCLASS'
p4730
ag122
aS'268'
p4731
aa(lp4732
S'UPPERCLASS'
p4733
ag3160
aS'127'
p4734
aa(lp4735
S'UPPERCLASS'
p4736
ag3160
aS'121'
p4737
aa(lp4738
S'UPPERCLASS'
p4739
ag3160
aS'128'
p4740
aa(lp4741
S'UPPERCLASS'
p4742
ag88
aS'324'
p4743
aa(lp4744
S'UPPERCLASS'
p4745
ag88
aS'214'
p4746
aa(lp4747
S'UPPERCLASS'
p4748
ag88
aS'221'
p4749
aa(lp4750
S'UPPERCLASS'
p4751
ag88
aS'222A'
p4752
aa(lp4753
S'UPPERCLASS'
p4754
ag11
aS'104'
p4755
aa(lp4756
S'UPPERCLASS'
p4757
ag196
aS'307'
p4758
aa(lp4759
S'UPPERCLASS'
p4760
ag122
aS'335'
p4761
aa(lp4762
S'UPPERCLASS'
p4763
ag3273
aS'601'
p4764
aa(lp4765
S'UPPERCLASS'
p4766
ag3273
aS'234'
p4767
aa(lp4768
S'UPPERCLASS'
p4769
ag122
aS'166'
p4770
aa(lp4771
S'UPPERCLASS'
p4772
ag122
aS'134'
p4773
aa(lp4774
S'UPPERCLASS'
p4775
ag122
aS'138'
p4776
aa(lp4777
S'UPPERCLASS'
p4778
ag122
aS'136'
p4779
aa(lp4780
S'UPPERCLASS'
p4781
ag71
aS'112'
p4782
aa(lp4783
S'UPPERCLASS'
p4784
ag78
aS'643'
p4785
aa(lp4786
S'UPPERCLASS'
p4787
ag78
aS'345'
p4788
aa(lp4789
S'UPPERCLASS'
p4790
ag122
aS'112'
p4791
aa(lp4792
S'UPPERCLASS'
p4793
ag122
aS'101'
p4794
aa(lp4795
S'UPPERCLASS'
p4796
ag30
aS'533'
p4797
aa(lp4798
S'UPPERCLASS'
p4799
ag88
aS'223'
p4800
aa(lp4801
S'UPPERCLASS'
p4802
ag3150
aS'232'
p4803
aa(lp4804
S'UPPERCLASS'
p4805
ag3150
aS'334'
p4806
aa(lp4807
S'UPPERCLASS'
p4808
ag3227
aS'306'
p4809
aa(lp4810
S'UPPERCLASS'
p4811
ag122
aS'130'
p4812
aa(lp4813
S'UPPERCLASS'
p4814
ag122
aS'128'
p4815
aa(lp4816
S'UPPERCLASS'
p4817
ag122
aS'118'
p4818
aa(lp4819
S'UPPERCLASS'
p4820
ag122
aS'116'
p4821
aa(lp4822
S'UPPERCLASS'
p4823
ag122
aS'104'
p4824
aa(lp4825
S'UPPERCLASS'
p4826
ag122
aS'173'
p4827
aa(lp4828
S'UPPERCLASS'
p4829
ag3160
aS'322'
p4830
aa(lp4831
S'UPPERCLASS'
p4832
ag196
aS'417'
p4833
aa(lp4834
S'UPPERCLASS'
p4835
ag3150
aS'332'
p4836
aa(lp4837
S'UPPERCLASS'
p4838
ag122
aS'443'
p4839
aa(lp4840
S'UPPERCLASS'
p4841
ag122
aS'266'
p4842
aa(lp4843
S'UPPERCLASS'
p4844
ag122
aS'247'
p4845
aa(lp4846
S'UPPERCLASS'
p4847
ag122
aS'264'
p4848
aa(lp4849
S'UPPERCLASS'
p4850
ag122
aS'249'
p4851
aa(lp4852
S'UPPERCLASS'
p4853
ag171
aS'081'
p4854
aa(lp4855
S'UPPERCLASS'
p4856
ag30
aS'534'
p4857
aa(lp4858
S'UPPERCLASS'
p4859
ag122
aS'206'
p4860
aa(lp4861
S'UPPERCLASS'
p4862
ag122
aS'204'
p4863
aa(lp4864
S'UPPERCLASS'
p4865
ag3273
aS'631'
p4866
aa(lp4867
S'UPPERCLASS'
p4868
ag11
aS'423'
p4869
aa(lp4870
S'UPPERCLASS'
p4871
ag11
aS'223'
p4872
aa(lp4873
S'UPPERCLASS'
p4874
ag71
aS'141'
p4875
aa(lp4876
S'UPPERCLASS'
p4877
ag71
aS'143'
p4878
aa(lp4879
S'UPPERCLASS'
p4880
ag3584
aS'201'
p4881
aa(lp4882
S'UPPERCLASS'
p4883
ag122
aS'373'
p4884
aa(lp4885
S'UPPERCLASS'
p4886
ag122
aS'106'
p4887
aa(lp4888
S'UPPERCLASS'
p4889
ag122
aS'420'
p4890
aa(lp4891
S'UPPERCLASS'
p4892
ag71
aS'123'
p4893
aa(lp4894
S'UPPERCLASS'
p4895
ag122
aS'147'
p4896
aa(lp4897
S'UPPERCLASS'
p4898
ag3436
aS'522'
p4899
aa(lp4900
S'UPPERCLASS'
p4901
ag11
aS'325'
p4902
aa(lp4903
S'UPPERCLASS'
p4904
ag122
aS'418'
p4905
aa(lp4906
S'UPPERCLASS'
p4907
ag3436
aS'534'
p4908
aa(lp4909
S'UPPERCLASS'
p4910
ag171
aS'312'
p4911
aa(lp4912
S'UPPERCLASS'
p4913
ag30
aS'141'
p4914
aa(lp4915
S'UPPERCLASS'
p4916
ag3584
aS'329'
p4917
aa(lp4918
S'UPPERCLASS'
p4919
ag3584
aS'322'
p4920
aa(lp4921
S'UPPERCLASS'
p4922
ag3227
aS'032'
p4923
aa(lp4924
S'UPPERCLASS'
p4925
ag3436
aS'612'
p4926
aa(lp4927
S'UPPERCLASS'
p4928
ag122
aS'274'
p4929
aa(lp4930
S'UPPERCLASS'
p4931
ag122
aS'272'
p4932
aa(lp4933
S'UPPERCLASS'
p4934
ag122
aS'401'
p4935
aa(lp4936
S'UPPERCLASS'
p4937
ag122
aS'318'
p4938
aa(lp4939
S'UPPERCLASS'
p4940
ag11
aS'421'
p4941
aa(lp4942
S'UPPERCLASS'
p4943
ag3584
aS'203'
p4944
aa(lp4945
S'UPPERCLASS'
p4946
ag78
aS'432'
p4947
aa(lp4948
S'UPPERCLASS'
p4949
ag122
aS'132'
p4950
aa(lp4951
S'UPPERCLASS'
p4952
ag30
aS'226'
p4953
aa(lp4954
S'UPPERCLASS'
p4955
ag11
aS'331'
p4956
aa(lp4957
S'UPPERCLASS'
p4958
ag122
aS'372'
p4959
aa(lp4960
S'UPPERCLASS'
p4961
ag122
aS'368'
p4962
aa(lp4963
S'UPPERCLASS'
p4964
ag122
aS'366'
p4965
aa(lp4966
S'UPPERCLASS'
p4967
ag122
aS'370'
p4968
aa(lp4969
S'UPPERCLASS'
p4970
ag122
aS'308'
p4971
aa(lp4972
S'UPPERCLASS'
p4973
ag122
aS'310'
p4974
aa(lp4975
S'UPPERCLASS'
p4976
ag122
aS'324'
p4977
aa(lp4978
S'UPPERCLASS'
p4979
ag122
aS'326'
p4980
aa(lp4981
S'UPPERCLASS'
p4982
ag122
aS'349'
p4983
aa(lp4984
S'UPPERCLASS'
p4985
ag122
aS'232'
p4986
aa(lp4987
S'UPPERCLASS'
p4988
ag122
aS'347'
p4989
aa(lp4990
S'UPPERCLASS'
p4991
ag122
aS'353'
p4992
aa(lp4993
S'UPPERCLASS'
p4994
ag122
aS'416'
p4995
aa(lp4996
S'UPPERCLASS'
p4997
ag3150
aS'131'
p4998
aa(lp4999
S'UPPERCLASS'
p5000
ag3436
aS'614'
p5001
aa(lp5002
S'UPPERCLASS'
p5003
ag30
aS'512'
p5004
aa(lp5005
S'UPPERCLASS'
p5006
ag78
aS'626'
p5007
aa(lp5008
S'UPPERCLASS'
p5009
ag11
aS'232'
p5010
aa(lp5011
S'UPPERCLASS'
p5012
ag3150
aS'202'
p5013
aa(lp5014
S'UPPERCLASS'
p5015
ag78
aS'437'
p5016
aa(lp5017
S'UPPERCLASS'
p5018
ag3150
aS'203'
p5019
aa(lp5020
S'UPPERCLASS'
p5021
ag3150
aS'311'
p5022
aa(lp5023
S'UPPERCLASS'
p5024
ag3150
aS'215'
p5025
aa(lp5026
S'UPPERCLASS'
p5027
ag71
aS'121'
p5028
aa(lp5029
S'UPPERCLASS'
p5030
ag71
aS'122'
p5031
aa(lp5032
S'UPPERCLASS'
p5033
ag122
aS'402'
p5034
aa(lp5035
S'UPPERCLASS'
p5036
ag3436
aS'532'
p5037
aa(lp5038
S'UPPERCLASS'
p5039
ag88
aS'323'
p5040
aa(lp5041
S'UPPERCLASS'
p5042
ag171
aS'061'
p5043
aa(lp5044
S'UPPERCLASS'
p5045
ag171
aS'088'
p5046
aa(lp5047
S'UPPERCLASS'
p5048
ag122
aS'364'
p5049
aa(lp5050
S'UPPERCLASS'
p5051
ag3150
aS'301'
p5052
aa(lp5053
S'UPPERCLASS'
p5054
ag3150
aS'222'
p5055
aa(lp5056
S'UPPERCLASS'
p5057
ag78
aS'143'
p5058
aa(lp5059
S'UPPERCLASS'
p5060
ag3273
aS'611'
p5061
aa(lp5062
S'UPPERCLASS'
p5063
ag88
aS'332'
p5064
aa(lp5065
S'UPPERCLASS'
p5066
ag122
aS'412'
p5067
aa(lp5068
S'UPPERCLASS'
p5069
ag122
aS'414'
p5070
aa(lp5071
S'UPPERCLASS'
p5072
ag122
aS'410'
p5073
aa(lp5074
S'UPPERCLASS'
p5075
ag3150
aS'124'
p5076
aa(lp5077
S'UPPERCLASS'
p5078
ag122
aS'301'
p5079
aa(lp5080
S'UPPERCLASS'
p5081
ag78
aS'335'
p5082
aa(lp5083
S'UPPERCLASS'
p5084
ag122
aS'142'
p5085
aa(lp5086
S'UPPERCLASS'
p5087
ag3273
aS'112'
p5088
aa(lp5089
S'UPPERCLASS'
p5090
ag3273
aS'122'
p5091
aa(lp5092
S'UPPERCLASS'
p5093
ag3150
aS'102'
p5094
aa(lp5095
S'UPPERCLASS'
p5096
ag30
aS'432'
p5097
aa(lp5098
S'UPPERCLASS'
p5099
ag30
aS'413'
p5100
aa(lp5101
S'UPPERCLASS'
p5102
ag3273
aS'111'
p5103
aa(lp5104
S'UPPERCLASS'
p5105
ag122
aS'164'
p5106
aa(lp5107
S'UPPERCLASS'
p5108
ag122
aS'417'
p5109
aa(lp5110
S'UPPERCLASS'
p5111
ag122
aS'415'
p5112
aa(lp5113
S'UPPERCLASS'
p5114
ag71
aS'A40'
p5115
aa(lp5116
S'UPPERCLASS'
p5117
ag122
aS'114'
p5118
aa(lp5119
S'UPPERCLASS'
p5120
ag122
aS'374'
p5121
aa(lp5122
S'UPPERCLASS'
p5123
ag122
aS'413'
p5124
aa(lp5125
S'UPPERCLASS'
p5126
ag122
aS'208'
p5127
aa(lp5128
S'UPPERCLASS'
p5129
ag122
aS'218'
p5130
aa(lp5131
S'UPPERCLASS'
p5132
ag3584
aS'327'
p5133
aa(lp5134
S'UPPERCLASS'
p5135
ag3160
aS'418'
p5136
aa(lp5137
S'UPPERCLASS'
p5138
ag3584
aS'312'
p5139
aa(lp5140
S'UPPERCLASS'
p5141
ag88
aS'113'
p5142
aa(lp5143
S'UPPERCLASS'
p5144
ag122
aS'153'
p5145
aa(lp5146
S'UPPERCLASS'
p5147
ag3584
aS'121'
p5148
aa(lp5149
S'UPPERCLASS'
p5150
ag88
aS'314'
p5151
aa(lp5152
S'UPPERCLASS'
p5153
ag3150
aS'211'
p5154
aa(lp5155
S'UPPERCLASS'
p5156
ag3150
aS'331'
p5157
aa(lp5158
S'UPPERCLASS'
p5159
ag88
aS'321'
p5160
aa(lp5161
S'UPPERCLASS'
p5162
ag122
aS'207'
p5163
aa(lp5164
S'UPPERCLASS'
p5165
ag122
aS'422'
p5166
aa(lp5167
S'UPPERCLASS'
p5168
ag171
aS'T03'
p5169
aa(lp5170
S'UPPERCLASS'
p5171
ag3273
aS'622'
p5172
aa(lp5173
S'UPPERCLASS'
p5174
ag3273
aS'623'
p5175
aa(lp5176
S'UPPERCLASS'
p5177
ag122
aS'306'
p5178
aa(lp5179
S'UPPERCLASS'
p5180
ag122
aS'314'
p5181
aa(lp5182
S'UPPERCLASS'
p5183
ag122
aS'406'
p5184
aa(lp5185
S'UPPERCLASS'
p5186
ag78
aS'141'
p5187
aa(lp5188
S'UPPERCLASS'
p5189
ag122
aS'405'
p5190
aa(lp5191
S'UPPERCLASS'
p5192
ag122
aS'411'
p5193
aa(lp5194
S'UPPERCLASS'
p5195
ag122
aS'408'
p5196
aa(lp5197
S'UPPERCLASS'
p5198
ag122
aS'404'
p5199
aa(lp5200
S'UPPERCLASS'
p5201
ag122
aS'409'
p5202
aa(lp5203
S'UPPERCLASS'
p5204
ag122
aS'149'
p5205
aa(lp5206
S'UPPERCLASS'
p5207
ag3273
aS'311'
p5208
aa(lp5209
S'UPPERCLASS'
p5210
ag3273
aS'312'
p5211
aa(lp5212
S'UPPERCLASS'
p5213
ag88
aS'232'
p5214
aa(lp5215
S'UPPERCLASS'
p5216
ag78
aS'630'
p5217
aa(lp5218
S'UPPERCLASS'
p5219
ag78
aS'441A'
p5220
aa(lp5221
S'UPPERCLASS'
p5222
ag78
aS'441'
p5223
aa(lp5224
S'UPPERCLASS'
p5225
ag122
aS'447'
p5226
aa(lp5227
S'UPPERCLASS'
p5228
ag88
aS'133'
p5229
aa(lp5230
S'UPPERCLASS'
p5231
ag3273
aS'121'
p5232
aa(lp5233
S'UPPERCLASS'
p5234
ag71
aS'A38'
p5235
aa(lp5236
S'UPPERCLASS'
p5237
ag78
aS'440'
p5238
aa(lp5239
S'UPPERCLASS'
p5240
ag122
aS'107'
p5241
aa(lp5242
S'UPPERCLASS'
p5243
ag78
aS'346'
p5244
aa(lp5245
S'UPPERCLASS'
p5246
ag122
aS'201'
p5247
aa(lp5248
S'UPPERCLASS'
p5249
ag11
aS'201'
p5250
aa(lp5251
S'UPPERCLASS'
p5252
ag11
aS'422'
p5253
aa(lp5254
S'UPPERCLASS'
p5255
ag78
aS'230'
p5256
aa(lp5257
S'UPPERCLASS'
p5258
ag88
aS'331'
p5259
aa(lp5260
S'UPPERCLASS'
p5261
ag171
aS'030'
p5262
aa(lp5263
S'UPPERCLASS'
p5264
ag3150
aS'222A'
p5265
aa(lp5266
S'UPPERCLASS'
p5267
ag3273
aS'414'
p5268
aa(lp5269
S'UPPERCLASS'
p5270
ag3
aS'036'
p5271
aa(lp5272
S'UPPERCLASS'
p5273
ag11
aS'431'
p5274
aa(lp5275
S'UPPERCLASS'
p5276
ag3
aS'026'
p5277
aa(lp5278
S'UPPERCLASS'
p5279
ag3
aS'032'
p5280
aa(lp5281
S'UPPERCLASS'
p5282
ag3
aS'034'
p5283
aa(lp5284
S'UPPERCLASS'
p5285
ag3
aS'024'
p5286
aa(lp5287
S'UPPERCLASS'
p5288
ag3273
aS'613'
p5289
aa(lp5290
S'UPPERCLASS'
p5291
ag78
aS'602'
p5292
aa(lp5293
S'UPPERCLASS'
p5294
ag3273
aS'522'
p5295
aa(lp5296
S'UPPERCLASS'
p5297
ag3273
aS'211'
p5298
aa(lp5299
S'UPPERCLASS'
p5300
ag30
aS'324'
p5301
aa(lp5302
S'UPPERCLASS'
p5303
ag3227
aS'021'
p5304
aa(lp5305
S'UPPERCLASS'
p5306
ag71
aS'A48'
p5307
aa(lp5308
S'UPPERCLASS'
p5309
ag3273
aS'612'
p5310
aa(lp5311
S'UPPERCLASS'
p5312
ag88
aS'123'
p5313
aa(lp5314
S'UPPERCLASS'
p5315
ag88
aS'124'
p5316
aa(lp5317
S'UPPERCLASS'
p5318
ag3273
aS'403'
p5319
aa(lp5320
S'UPPERCLASS'
p5321
ag3584
aS'222'
p5322
aa(lp5323
S'UPPERCLASS'
p5324
ag3584
aS'133'
p5325
aa(lp5326
S'UPPERCLASS'
p5327
ag88
aS'111'
p5328
aa(lp5329
S'UPPERCLASS'
p5330
ag88
aS'114'
p5331
aa(lp5332
S'UPPERCLASS'
p5333
ag3
aS'031'
p5334
aa(lp5335
S'UPPERCLASS'
p5336
ag78
aS'442'
p5337
aa(lp5338
S'UPPERCLASS'
p5339
ag78
aS'641'
p5340
aa(lp5341
S'UPPERCLASS'
p5342
ag3273
aS'621'
p5343
aa(lp5344
S'UPPERCLASS'
p5345
ag171
aS'073'
p5346
aa(lp5347
S'UPPERCLASS'
p5348
ag78
aS'642'
p5349
aa(lp5350
S'UPPERCLASS'
p5351
ag88
aS'234'
p5352
aa(lp5353
S'UPPERCLASS'
p5354
ag3584
aS'304'
p5355
aa(lp5356
S'UPPERCLASS'
p5357
ag30
aS'501'
p5358
aa(lp5359
S'UPPERCLASS'
p5360
ag30
aS'504'
p5361
aa(lp5362
S'UPPERCLASS'
p5363
ag11
aS'121'
p5364
aa(lp5365
S'UPPERCLASS'
p5366
ag11
aS'213'
p5367
aa(lp5368
S'UPPERCLASS'
p5369
ag3150
aS'123'
p5370
aa(lp5371
S'UPPERCLASS'
p5372
ag3150
aS'133'
p5373
aa(lp5374
S'UPPERCLASS'
p5375
ag171
aS'T01'
p5376
aa(lp5377
S'UPPERCLASS'
p5378
ag3273
aS'413'
p5379
aa(lp5380
S'UPPERCLASS'
p5381
ag3273
aS'221'
p5382
aa(lp5383
S'UPPERCLASS'
p5384
ag171
aS'090'
p5385
aa(lp5386
S'UPPERCLASS'
p5387
ag3436
aS'531'
p5388
aa(lp5389
S'UPPERCLASS'
p5390
ag3160
aS'427'
p5391
aa(lp5392
S'UPPERCLASS'
p5393
ag3273
aS'633'
p5394
aa(lp5395
S'UPPERCLASS'
p5396
ag3160
aS'212'
p5397
aa(lp5398
S'UPPERCLASS'
p5399
ag11
aS'234'
p5400
aa(lp5401
S'UPPERCLASS'
p5402
ag3273
aS'321'
p5403
aa(lp5404
S'UPPERCLASS'
p5405
ag78
aS'232'
p5406
aa(lp5407
S'UPPERCLASS'
p5408
ag3584
aS'221'
p5409
aa(lp5410
S'UPPERCLASS'
p5411
ag30
aS'311'
p5412
aa(lp5413
S'UPPERCLASS'
p5414
ag30
aS'314'
p5415
aa(lp5416
S'UPPERCLASS'
p5417
ag171
aS'060'
p5418
aa(lp5419
S'UPPERCLASS'
p5420
ag3160
aS'228'
p5421
aa(lp5422
S'UPPERCLASS'
p5423
ag71
aS'145'
p5424
aa(lp5425
S'UPPERCLASS'
p5426
ag3273
aS'222'
p5427
aa(lp5428
S'UPPERCLASS'
p5429
ag3273
aS'322'
p5430
aa(lp5431
S'UPPERCLASS'
p5432
ag3584
aS'211'
p5433
aa(lp5434
S'UPPERCLASS'
p5435
ag3150
aS'421'
p5436
aa(lp5437
S'UPPERCLASS'
p5438
ag78
aS'443'
p5439
aa(lp5440
S'UPPERCLASS'
p5441
ag78
aS'333'
p5442
aa(lp5443
S'UPPERCLASS'
p5444
ag78
aS'323'
p5445
aa(lp5446
S'UPPERCLASS'
p5447
ag3160
aS'227'
p5448
aa(lp5449
S'UPPERCLASS'
p5450
ag3273
aS'212'
p5451
aa(lp5452
S'UPPERCLASS'
p5453
ag30
aS'244'
p5454
aa(lp5455
S'UPPERCLASS'
p5456
ag3160
aS'318'
p5457
aa(lp5458
S'UPPERCLASS'
p5459
ag78
aS'728'
p5460
aa(lp5461
S'UPPERCLASS'
p5462
ag78
aS'242'
p5463
aa(lp5464
S'UPPERCLASS'
p5465
ag3160
aS'221'
p5466
aa(lp5467
S'UPPERCLASS'
p5468
ag30
aS'321'
p5469
aa(lp5470
S'UPPERCLASS'
p5471
ag30
aS'401'
p5472
aa(lp5473
S'UPPERCLASS'
p5474
ag3436
aS'616'
p5475
aa(lp5476
S'UPPERCLASS'
p5477
ag3160
aS'327'
p5478
aa(lp5479
S'UPPERCLASS'
p5480
ag78
aS'142'
p5481
aa(lp5482
S'UPPERCLASS'
p5483
ag3273
aS'437'
p5484
aa(lp5485
S'UPPERCLASS'
p5486
ag3150
aS'122'
p5487
aa(lp5488
S'UPPERCLASS'
p5489
ag3584
aS'114'
p5490
aa(lp5491
S'UPPERCLASS'
p5492
ag3584
aS'111'
p5493
aa(lp5494
S'UPPERCLASS'
p5495
ag3273
aS'412'
p5496
aa(lp5497
S'UPPERCLASS'
p5498
ag3150
aS'141'
p5499
aa(lp5500
S'UPPERCLASS'
p5501
ag3584
aS'321'
p5502
aa(lp5503
S'UPPERCLASS'
p5504
ag71
aS'097'
p5505
aa(lp5506
S'UPPERCLASS'
p5507
ag3150
aS'323'
p5508
aa(lp5509
S'UPPERCLASS'
p5510
ag3273
aS'402'
p5511
aa(lp5512
S'UPPERCLASS'
p5513
ag3273
aS'422'
p5514
aa(lp5515
S'UPPERCLASS'
p5516
ag71
aS'105'
p5517
aa(lp5518
S'UPPERCLASS'
p5519
ag88
aS'151'
p5520
aa(lp5521
S'UPPERCLASS'
p5522
ag30
aS'236'
p5523
aa(lp5524
S'UPPERCLASS'
p5525
ag3160
aS'419'
p5526
aa(lp5527
S'UPPERCLASS'
p5528
ag30
aS'123'
p5529
aa(lp5530
S'UPPERCLASS'
p5531
ag11
aS'214'
p5532
aa(lp5533
S'UPPERCLASS'
p5534
ag71
aS'093'
p5535
aa(lp5536
S'UPPERCLASS'
p5537
ag3150
aS'403'
p5538
aa(lp5539
S'UPPERCLASS'
p5540
ag71
aS'101'
p5541
aa(lp5542
S'UPPERCLASS'
p5543
ag71
aS'103'
p5544
aa(lp5545
S'UPPERCLASS'
p5546
ag3160
aS'412'
p5547
aa(lp5548
S'UPPERCLASS'
p5549
ag11
aS'311'
p5550
aa(lp5551
S'UPPERCLASS'
p5552
ag3150
aS'212'
p5553
aa(lp5554
S'UPPERCLASS'
p5555
ag11
aS'321'
p5556
aa(lp5557
S'UPPERCLASS'
p5558
ag122
aS'307'
p5559
aa(lp5560
S'UPPERCLASS'
p5561
ag3584
aS'131'
p5562
aa(lp5563
S'UPPERCLASS'
p5564
ag3584
aS'305'
p5565
aa(lp5566
S'UPPERCLASS'
p5567
ag88
aS'212'
p5568
aa(lp5569
S'UPPERCLASS'
p5570
ag3150
aS'112'
p5571
aa(lp5572
S'UPPERCLASS'
p5573
ag3584
aS'326'
p5574
aa(lp5575
S'UPPERCLASS'
p5576
ag88
aS'333'
p5577
aa(lp5578
S'UPPERCLASS'
p5579
ag3160
aS'112'
p5580
aa(lp5581
S'UPPERCLASS'
p5582
ag11
aS'103'
p5583
aa(lp5584
S'UPPERCLASS'
p5585
ag88
aS'112'
p5586
aa(lp5587
S'UPPERCLASS'
p5588
ag88
aS'122'
p5589
aa(lp5590
S'UPPERCLASS'
p5591
ag3584
aS'316'
p5592
aa(lp5593
S'UPPERCLASS'
p5594
ag3160
aS'122'
p5595
aa(lp5596
S'UPPERCLASS'
p5597
ag3436
aS'631'
p5598
aa(lp5599
S'UPPERCLASS'
p5600
ag71
aS'091'
p5601
aa(lp5602
S'UPPERCLASS'
p5603
ag11
aS'113'
p5604
aa(lp5605
S'UPPERCLASS'
p5606
ag3160
aS'421'
p5607
aa(lp5608
S'UPPERCLASS'
p5609
ag3160
aS'320'
p5610
aa(lp5611
S'UPPERCLASS'
p5612
ag3160
aS'411'
p5613
aa(lp5614
S'UPPERCLASS'
p5615
ag78
aS'314'
p5616
aa(lp5617
S'UPPERCLASS'
p5618
ag78
aS'718'
p5619
aa(lp5620
S'UPPERCLASS'
p5621
ag3436
aS'632'
p5622
aa(lp5623
S'UPPERCLASS'
p5624
ag3436
aS'625'
p5625
aa(lp5626
S'UPPERCLASS'
p5627
ag3150
aS'115'
p5628
aa(lp5629
S'UPPERCLASS'
p5630
ag78
aS'614'
p5631
aa(lp5632
S'UPPERCLASS'
p5633
ag3160
aS'211'
p5634
aa(lp5635
S'UPPERCLASS'
p5636
ag78
aS'704'
p5637
aa(lp5638
S'UPPERCLASS'
p5639
ag88
aS'217'
p5640
aa(lp5641
S'UPPERCLASS'
p5642
ag3160
aS'311'
p5643
aa(lp5644
S'UPPERCLASS'
p5645
ag71
aS'A54'
p5646
aa(lp5647
S'UPPERCLASS'
p5648
ag3160
aS'428'
p5649
aa.