(lp0
(lp1
S'UPPERCLASS'
p2
aS'SPELMAN'
p3
aS'025'
p4
aa(lp5
g2
ag3
aS'022'
p6
aa(lp7
g2
ag3
aS'032'
p8
aa(lp9
g2
ag3
aS'047'
p10
aa(lp11
g2
ag3
aS'048'
p12
aa(lp13
g2
ag3
aS'024'
p14
aa(lp15
g2
ag3
aS'076'
p16
aa(lp17
g2
ag3
aS'073'
p18
aa(lp19
g2
ag3
aS'066'
p20
aa(lp21
g2
ag3
aS'056'
p22
aa(lp23
g2
ag3
aS'064'
p24
aa(lp25
g2
ag3
aS'021'
p26
aa(lp27
g2
ag3
aS'055'
p28
aa(lp29
g2
ag3
aS'075'
p30
aa(lp31
g2
ag3
aS'074'
p32
aa(lp33
g2
ag3
aS'023'
p34
aa(lp35
g2
ag3
aS'054'
p36
aa(lp37
g2
ag3
aS'068'
p38
aa(lp39
g2
ag3
aS'067'
p40
aa(lp41
g2
ag3
aS'041'
p42
aa(lp43
g2
ag3
aS'045'
p44
aa(lp45
g2
ag3
aS'043'
p46
aa(lp47
g2
ag3
aS'083'
p48
aa(lp49
g2
ag3
aS'084'
p50
aa(lp51
g2
ag3
aS'037'
p52
aa(lp53
g2
ag3
aS'038'
p54
aa(lp55
g2
ag3
aS'034'
p56
aa(lp57
g2
ag3
aS'065'
p58
aa(lp59
g2
ag3
aS'085'
p60
aa(lp61
g2
ag3
aS'036'
p62
aa(lp63
g2
ag3
aS'016'
p64
aa(lp65
g2
ag3
aS'053'
p66
aa(lp67
g2
ag3
aS'035'
p68
aa(lp69
g2
ag3
aS'071'
p70
aa(lp71
g2
ag3
aS'011'
p72
aa(lp73
g2
ag3
aS'078'
p74
aa(lp75
g2
ag3
aS'077'
p76
aa(lp77
g2
ag3
aS'082'
p78
aa(lp79
g2
ag3
aS'017'
p80
aa(lp81
g2
ag3
aS'018'
p82
aa(lp83
g2
ag3
aS'086'
p84
aa(lp85
g2
ag3
aS'046'
p86
aa(lp87
g2
ag3
aS'052'
p88
aa(lp89
g2
ag3
aS'051'
p90
aa(lp91
g2
ag3
aS'026'
p92
aa(lp93
g2
ag3
aS'012'
p94
aa(lp95
g2
ag3
aS'063'
p96
aa(lp97
g2
ag3
aS'014'
p98
aa(lp99
g2
ag3
aS'081'
p100
aa(lp101
g2
ag3
aS'061'
p102
aa(lp103
g2
ag3
aS'015'
p104
aa(lp105
g2
ag3
aS'013'
p106
aa(lp107
g2
aS'WILF'
p108
aS'E406'
p109
aa(lp110
g2
aS'SCULLY'
p111
aS'171'
p112
aa(lp113
g2
ag111
aS'273'
p114
aa(lp115
g2
aS'LOCKHART'
p116
aS'224'
p117
aa(lp118
g2
aS'1903'
p119
aS'214'
p120
aa(lp121
g2
aS'PYNE'
p122
aS'114'
p123
aa(lp124
g2
aS'HENRY'
p125
aS'102'
p126
aa(lp127
g2
ag119
aS'112'
p128
aa(lp129
g2
ag116
aS'241'
p130
aa(lp131
g2
ag108
aS'E401'
p132
aa(lp133
g2
ag108
aS'E403'
p134
aa(lp135
g2
ag111
aS'367'
p136
aa(lp137
g2
ag111
aS'272'
p138
aa(lp139
g2
ag111
aS'173'
p140
aa(lp141
g2
ag111
aS'160'
p142
aa(lp143
g2
ag111
aS'162'
p144
aa(lp145
g2
ag111
aS'262'
p146
aa(lp147
g2
ag111
aS'260'
p148
aa(lp149
g2
ag111
aS'265'
p150
aa(lp151
g2
ag111
aS'267'
p152
aa(lp153
g2
aS'DOD'
p154
aS'211'
p155
aa(lp156
g2
aS'LITTLE'
p157
aS'A24'
p158
aa(lp159
g2
ag154
aS'115'
p160
aa(lp161
g2
ag119
aS'131'
p162
aa(lp163
g2
ag157
aS'A34'
p164
aa(lp165
g2
ag116
aS'242'
p166
aa(lp167
g2
ag111
aS'168'
p168
aa(lp169
g2
ag111
aS'274'
p170
aa(lp171
g2
ag111
aS'172'
p172
aa(lp173
g2
ag157
aS'A36'
p174
aa(lp175
g2
ag116
aS'225'
p176
aa(lp177
g2
ag154
aS'114'
p178
aa(lp179
g2
ag116
aS'302'
p180
aa(lp181
g2
ag122
aS'125'
p182
aa(lp183
g2
ag111
aS'271'
p184
aa(lp185
g2
ag154
aS'105'
p186
aa(lp187
g2
ag154
aS'200'
p188
aa(lp189
g2
aS'PATTON'
p190
aS'082'
p191
aa(lp192
g2
ag116
aS'303'
p193
aa(lp194
g2
ag154
aS'102S'
p195
aa(lp196
g2
ag111
aS'164'
p197
aa(lp198
g2
ag119
aS'126'
p199
aa(lp200
g2
ag157
aS'A28'
p201
aa(lp202
g2
ag154
aS'101S'
p203
aa(lp204
g2
ag111
aS'174'
p205
aa(lp206
g2
ag154
aS'102N'
p207
aa(lp208
g2
ag116
aS'212'
p209
aa(lp210
g2
ag116
aS'325'
p211
aa(lp212
g2
ag122
aS'116'
p213
aa(lp214
g2
ag111
aS'264'
p215
aa(lp216
g2
ag154
aS'212'
p217
aa(lp218
g2
ag116
aS'222'
p219
aa(lp220
g2
ag154
aS'104'
p221
aa(lp222
g2
ag111
aS'170'
p223
aa(lp224
g2
ag111
aS'266'
p225
aa(lp226
g2
ag111
aS'166'
p227
aa(lp228
g2
ag190
aS'080'
p229
aa(lp230
g2
ag122
aS'122'
p231
aa(lp232
g2
ag116
aS'201'
p233
aa(lp234
g2
ag154
aS'112'
p235
aa(lp236
g2
ag154
aS'116'
p237
aa(lp238
g2
ag154
aS'102'
p239
aa(lp240
g2
ag116
aS'322'
p241
aa(lp242
g2
ag125
aS'103'
p243
aa(lp244
g2
ag122
aS'133'
p245
aa(lp246
g2
ag157
aS'A16'
p247
aa(lp248
g2
ag190
aS'081'
p249
aa(lp250
g2
ag116
aS'324'
p251
aa(lp252
g2
ag116
aS'323'
p253
aa(lp254
g2
ag116
aS'211'
p255
aa(lp256
g2
ag125
aS'101'
p257
aa(lp258
g2
ag190
aS'085'
p259
aa(lp260
g2
ag108
aS'E402'
p261
aa(lp262
g2
ag122
aS'123'
p263
aa(lp264
g2
ag157
aS'A20'
p265
aa(lp266
g2
ag122
aS'135'
p267
aa(lp268
g2
ag119
aS'132'
p269
aa(lp270
g2
ag116
aS'213'
p271
aa(lp272
g2
ag154
aS'113'
p273
aa(lp274
g2
ag157
aS'A10'
p275
aa(lp276
g2
ag108
aS'E405'
p277
aa(lp278
g2
ag190
aS'090'
p279
aa(lp280
g2
ag116
aS'232'
p281
aa(lp282
g2
ag154
aS'103'
p283
aa(lp284
g2
ag119
aS'123'
p285
aa(lp286
g2
ag157
aS'A14'
p287
aa(lp288
g2
ag116
aS'231'
p289
aa(lp290
g2
ag122
aS'124'
p291
aa(lp292
S'WHITMAN'
p293
aS'FISHER'
p294
aS'A303'
p295
aa(lp296
S'BUTLER'
p297
aS'BLOOMBERG'
p298
aS'474'
p299
aa(lp300
S'MATHEY'
p301
aS'HAMILTON'
p302
aS'121'
p303
aa(lp304
S'BUTLER'
p305
aS'1976'
p306
aS'D304'
p307
aa(lp308
S'MATHEY'
p309
ag302
aS'221'
p310
aa(lp311
S'WHITMAN'
p312
aS'1981'
p313
aS'F201'
p314
aa(lp315
S'BUTLER'
p316
ag298
aS'309'
p317
aa(lp318
S'BUTLER'
p319
ag298
aS'311'
p320
aa(lp321
g293
ag294
aS'A224'
p322
aa(lp323
S'MATHEY'
p324
ag157
aS'047'
p325
aa(lp326
S'BUTLER'
p327
ag108
aS'E103'
p328
aa(lp329
S'WHITMAN'
p330
aS'BAKER'
p331
aS'E113'
p332
aa(lp333
S'BUTLER'
p334
ag298
aS'465'
p335
aa(lp336
S'BUTLER'
p337
ag298
aS'461'
p338
aa(lp339
S'WHITMAN'
p340
aS'WENDELL C'
p341
aS'C214'
p342
aa(lp343
S'BUTLER'
p344
ag298
aS'463'
p345
aa(lp346
S'WHITMAN'
p347
ag294
aS'A323'
p348
aa(lp349
S'BUTLER'
p350
ag298
aS'430'
p351
aa(lp352
S'BUTLER'
p353
ag306
aS'D114'
p354
aa(lp355
S'WHITMAN'
p356
ag341
aS'B407'
p357
aa(lp358
S'BUTLER'
p359
ag298
aS'327'
p360
aa(lp361
S'MATHEY'
p362
ag157
aS'385'
p363
aa(lp364
S'BUTLER'
p365
ag298
aS'124'
p366
aa(lp367
S'WHITMAN'
p368
ag313
aS'F301'
p369
aa(lp370
S'MATHEY'
p371
ag157
aS'057'
p372
aa(lp373
S'BUTLER'
p374
ag298
aS'413'
p375
aa(lp376
S'BUTLER'
p377
ag298
aS'409'
p378
aa(lp379
S'BUTLER'
p380
ag298
aS'451'
p381
aa(lp382
S'WHITMAN'
p383
ag294
aS'A201'
p384
aa(lp385
S'MATHEY'
p386
ag157
aS'395'
p387
aa(lp388
S'BUTLER'
p389
ag298
aS'459'
p390
aa(lp391
S'BUTLER'
p392
ag298
aS'192'
p393
aa(lp394
S'MATHEY'
p395
ag157
aS'077'
p396
aa(lp397
S'WHITMAN'
p398
ag341
aS'B312'
p399
aa(lp400
S'BUTLER'
p401
ag298
aS'447'
p402
aa(lp403
S'BUTLER'
p404
ag298
aS'379'
p405
aa(lp406
S'WHITMAN'
p407
ag331
aS'E215'
p408
aa(lp409
S'WHITMAN'
p410
ag331
aS'E217'
p411
aa(lp412
S'MATHEY'
p413
ag157
aS'303'
p414
aa(lp415
S'WHITMAN'
p416
ag331
aS'S106'
p417
aa(lp418
S'MATHEY'
p419
aS'JOLINE'
p420
aS'235'
p421
aa(lp422
S'WHITMAN'
p423
aS'LAURITZEN'
p424
aS'D314'
p425
aa(lp426
S'WHITMAN'
p427
ag331
aS'S204'
p428
aa(lp429
S'BUTLER'
p430
ag298
aS'407'
p431
aa(lp432
S'WHITMAN'
p433
ag331
aS'E206'
p434
aa(lp435
S'MATHEY'
p436
ag420
aS'225'
p437
aa(lp438
S'WHITMAN'
p439
ag424
aS'D311'
p440
aa(lp441
S'BUTLER'
p442
ag298
aS'349'
p443
aa(lp444
S'BUTLER'
p445
ag298
aS'469'
p446
aa(lp447
S'WHITMAN'
p448
ag294
aS'A101'
p449
aa(lp450
g305
ag306
aS'D316'
p451
aa(lp452
S'WHITMAN'
p453
ag294
aS'A225'
p454
aa(lp455
S'BUTLER'
p456
ag298
aS'449'
p457
aa(lp458
S'BUTLER'
p459
ag298
aS'443'
p460
aa(lp461
S'WHITMAN'
p462
ag313
aS'F229'
p463
aa(lp464
S'MATHEY'
p465
aS'BLAIR'
p466
aS'B83'
p467
aa(lp468
S'WHITMAN'
p469
aS'MURLEY-PIVIROTTO'
p470
aS'T402'
p471
aa(lp472
S'WHITMAN'
p473
aS'HARGADON'
p474
aS'G405'
p475
aa(lp476
S'MATHEY'
p477
ag157
aS'048'
p478
aa(lp479
S'BUTLER'
p480
ag298
aS'479'
p481
aa(lp482
S'WHITMAN'
p483
ag313
aS'F123'
p484
aa(lp485
S'BUTLER'
p486
ag298
aS'445'
p487
aa(lp488
S'MATHEY'
p489
ag157
aS'085'
p490
aa(lp491
S'BUTLER'
p492
ag108
aS'E308'
p493
aa(lp494
S'BUTLER'
p495
ag108
aS'E306'
p496
aa(lp497
g374
ag298
aS'248'
p498
aa(lp499
S'BUTLER'
p500
ag298
aS'324'
p501
aa(lp502
S'MATHEY'
p503
ag157
aS'302'
p504
aa(lp505
S'MATHEY'
p506
aS'EDWARDS'
p507
aS'106'
p508
aa(lp509
S'BUTLER'
p510
ag298
aS'314'
p511
aa(lp512
S'BUTLER'
p513
aS'BOGLE'
p514
aS'C203'
p515
aa(lp516
S'BUTLER'
p517
ag514
aS'C205'
p518
aa(lp519
S'MATHEY'
p520
ag157
aS'083'
p521
aa(lp522
S'BUTLER'
p523
ag298
aS'245'
p524
aa(lp525
S'BUTLER'
p526
ag298
aS'243'
p527
aa(lp528
S'BUTLER'
p529
ag108
aS'E208'
p530
aa(lp531
S'BUTLER'
p532
ag108
aS'E206'
p533
aa(lp534
S'BUTLER'
p535
ag298
aS'473'
p536
aa(lp537
S'MATHEY'
p538
ag420
aS'433'
p539
aa(lp540
S'BUTLER'
p541
ag298
aS'471'
p542
aa(lp543
S'BUTLER'
p544
ag108
aS'E201'
p545
aa(lp546
S'MATHEY'
p547
ag420
aS'422'
p548
aa(lp549
S'MATHEY'
p550
ag420
aS'332'
p551
aa(lp552
S'BUTLER'
p553
ag298
aS'281'
p554
aa(lp555
S'WHITMAN'
p556
ag331
aS'S205'
p557
aa(lp558
S'MATHEY'
p559
ag507
aS'502'
p560
aa(lp561
S'BUTLER'
p562
aS'1967'
p563
aS'B205'
p564
aa(lp565
S'WHITMAN'
p566
ag313
aS'F017'
p567
aa(lp568
S'WHITMAN'
p569
ag313
aS'F025'
p570
aa(lp571
S'WHITMAN'
p572
ag313
aS'F102'
p573
aa(lp574
S'MATHEY'
p575
ag157
aS'311'
p576
aa(lp577
g312
ag313
aS'F019'
p578
aa(lp579
S'WHITMAN'
p580
ag313
aS'F015'
p581
aa(lp582
S'WHITMAN'
p583
ag313
aS'F027'
p584
aa(lp585
S'BUTLER'
p586
ag108
aS'E104'
p587
aa(lp588
S'BUTLER'
p589
ag298
aS'348'
p590
aa(lp591
S'MATHEY'
p592
ag420
aS'212'
p593
aa(lp594
S'WHITMAN'
p595
ag474
aS'G309'
p596
aa(lp597
S'BUTLER'
p598
ag563
aS'B305'
p599
aa(lp600
S'MATHEY'
p601
ag507
aS'104'
p602
aa(lp603
g374
ag298
aS'250'
p604
aa(lp605
S'MATHEY'
p606
ag420
aS'213'
p607
aa(lp608
S'WHITMAN'
p609
ag313
aS'F023'
p610
aa(lp611
g374
ag298
aS'308'
p612
aa(lp613
S'WHITMAN'
p614
ag470
aS'T403'
p615
aa(lp616
S'MATHEY'
p617
ag507
aS'109'
p618
aa(lp619
g374
ag298
aS'112'
p620
aa(lp621
S'WHITMAN'
p622
ag313
aS'F101'
p623
aa(lp624
S'MATHEY'
p625
ag507
aS'113'
p626
aa(lp627
g601
ag507
aS'108'
p628
aa(lp629
S'BUTLER'
p630
aS'1915'
p631
aS'613'
p632
aa(lp633
S'WHITMAN'
p634
ag341
aS'B309'
p635
aa(lp636
S'BUTLER'
p637
ag298
aS'302'
p638
aa(lp639
S'WHITMAN'
p640
ag341
aS'C212'
p641
aa(lp642
S'WHITMAN'
p643
ag341
aS'C210'
p644
aa(lp645
S'BUTLER'
p646
ag563
aS'B309'
p647
aa(lp648
S'MATHEY'
p649
ag507
aS'111'
p650
aa(lp651
g2
ag108
aS'E106'
p652
aa(lp653
S'WHITMAN'
p654
ag341
aS'C208'
p655
aa(lp656
S'BUTLER'
p657
ag298
aS'301'
p658
aa(lp659
S'BUTLER'
p660
ag298
aS'310'
p661
aa(lp662
S'BUTLER'
p663
ag298
aS'322'
p664
aa(lp665
S'BUTLER'
p666
aS'YOSELOFF'
p667
aS'A207'
p668
aa(lp669
S'WHITMAN'
p670
ag474
aS'G401'
p671
aa(lp672
S'WHITMAN'
p673
ag341
aS'B216'
p674
aa(lp675
S'MATHEY'
p676
ag420
aS'311'
p677
aa(lp678
S'MATHEY'
p679
ag302
aS'324'
p680
aa(lp681
S'BUTLER'
p682
ag108
aS'E107'
p683
aa(lp684
g374
ag298
aS'403'
p685
aa(lp686
g2
ag341
aS'B210'
p687
aa(lp688
S'WHITMAN'
p689
ag474
aS'G403'
p690
aa(lp691
S'MATHEY'
p692
ag466
aS'114'
p693
aa(lp694
S'WHITMAN'
p695
ag474
aS'G404'
p696
aa(lp697
S'BUTLER'
p698
ag298
aS'340'
p699
aa(lp700
S'BUTLER'
p701
ag298
aS'341'
p702
aa(lp703
S'BUTLER'
p704
ag298
aS'344'
p705
aa(lp706
S'BUTLER'
p707
ag298
aS'325'
p708
aa(lp709
S'BUTLER'
p710
ag298
aS'326'
p711
aa(lp712
g356
ag341
aS'B417'
p713
aa(lp714
S'MATHEY'
p715
ag420
aS'234'
p716
aa(lp717
S'WHITMAN'
p718
ag331
aS'E317'
p719
aa(lp720
S'MATHEY'
p721
ag507
aS'105'
p722
aa(lp723
S'BUTLER'
p724
ag298
aS'346'
p725
aa(lp726
S'BUTLER'
p727
ag298
aS'381'
p728
aa(lp729
g312
ag313
aS'F218'
p730
aa(lp731
S'MATHEY'
p732
ag507
aS'110'
p733
aa(lp734
S'WHITMAN'
p735
ag424
aS'D114'
p736
aa(lp737
S'WHITMAN'
p738
ag474
aS'G311'
p739
aa(lp740
S'BUTLER'
p741
ag298
aS'307'
p742
aa(lp743
g374
ag298
aS'244'
p744
aa(lp745
g356
ag341
aS'B419'
p746
aa(lp747
S'WHITMAN'
p748
ag313
aS'F026'
p749
aa(lp750
S'WHITMAN'
p751
ag341
aS'C209'
p752
aa(lp753
S'MATHEY'
p754
ag157
aS'071'
p755
aa(lp756
S'MATHEY'
p757
ag420
aS'312'
p758
aa(lp759
S'MATHEY'
p760
ag157
aS'381'
p761
aa(lp762
S'MATHEY'
p763
ag157
aS'393'
p764
aa(lp765
S'BUTLER'
p766
ag667
aS'A105'
p767
aa(lp768
S'WHITMAN'
p769
ag331
aS'E205'
p770
aa(lp771
S'WHITMAN'
p772
ag341
aS'B408'
p773
aa(lp774
g2
ag474
aS'G203A'
p775
aa(lp776
S'WHITMAN'
p777
ag474
aS'G304A'
p778
aa(lp779
S'BUTLER'
p780
ag298
aS'405'
p781
aa(lp782
S'BUTLER'
p783
ag298
aS'457'
p784
aa(lp785
g2
ag298
aS'427'
p786
aa(lp787
S'BUTLER'
p788
ag298
aS'408'
p789
aa(lp790
S'BUTLER'
p791
ag298
aS'404'
p792
aa(lp793
S'BUTLER'
p794
ag298
aS'316'
p795
aa(lp796
S'WHITMAN'
p797
ag341
aS'C211'
p798
aa(lp799
S'WHITMAN'
p800
ag341
aS'C213'
p801
aa(lp802
S'WHITMAN'
p803
ag341
aS'B204'
p804
aa(lp805
S'MATHEY'
p806
ag157
aS'391'
p807
aa(lp808
S'WHITMAN'
p809
ag341
aS'B316'
p810
aa(lp811
g374
ag298
aS'339'
p812
aa(lp813
g374
ag298
aS'338'
p814
aa(lp815
S'BUTLER'
p816
ag298
aS'177'
p817
aa(lp818
S'BUTLER'
p819
ag298
aS'193'
p820
aa(lp821
S'MATHEY'
p822
ag420
aS'331'
p823
aa(lp824
S'WHITMAN'
p825
ag331
aS'S102'
p826
aa(lp827
S'FORBES'
p828
aS'FORBES ADDITION'
p829
aS'106'
p830
aa(lp831
S'WILSON'
p832
aS'1938'
p833
aS'212'
p834
aa(lp835
S'FORBES'
p836
ag829
aS'305'
p837
aa(lp838
S'FORBES'
p839
ag829
aS'112'
p840
aa(lp841
S'WILSON'
p842
aS'1927'
p843
aS'132'
p844
aa(lp845
S'FORBES'
p846
ag829
aS'255'
p847
aa(lp848
S'WILSON'
p849
aS'WALKER'
p850
aS'327'
p851
aa(lp852
S'WILSON'
p853
ag850
aS'214'
p854
aa(lp855
S'FORBES'
p856
ag829
aS'328'
p857
aa(lp858
g856
ag829
aS'329'
p859
aa(lp860
S'FORBES'
p861
ag829
aS'254'
p862
aa(lp863
S'WILSON'
p864
ag843
aS'122'
p865
aa(lp866
g856
ag829
aS'A158'
p867
aa(lp868
S'WILSON'
p869
ag850
aS'319'
p870
aa(lp871
S'FORBES'
p872
ag829
aS'301'
p873
aa(lp874
g856
ag829
aS'302'
p875
aa(lp876
S'FORBES'
p877
ag829
aS'154'
p878
aa(lp879
S'FORBES'
p880
ag829
aS'155'
p881
aa(lp882
S'WILSON'
p883
ag843
aS'121'
p884
aa(lp885
S'WILSON'
p886
ag850
aS'213'
p887
aa(lp888
S'FORBES'
p889
ag829
aS'A155'
p890
aa(lp891
S'FORBES'
p892
ag829
aS'251'
p893
aa(lp894
S'FORBES'
p895
ag829
aS'304'
p896
aa(lp897
S'FORBES'
p898
ag829
aS'303'
p899
aa(lp900
S'FORBES'
p901
ag829
aS'151'
p902
aa(lp903
S'WILSON'
p904
aS'1939'
p905
aS'331'
p906
aa(lp907
S'FORBES'
p908
ag829
aS'224N'
p909
aa(lp910
S'FORBES'
p911
ag829
aS'A258'
p912
aa(lp913
S'FORBES'
p914
ag829
aS'A268'
p915
aa(lp916
S'WILSON'
p917
aS'FEINBERG'
p918
aS'302'
p919
aa(lp920
S'WILSON'
p921
aS'DODGE OSBORN'
p922
aS'212'
p923
aa(lp924
S'WILSON'
p925
ag918
aS'301'
p926
aa(lp927
S'WILSON'
p928
ag850
aS'324'
p929
aa(lp930
S'WILSON'
p931
ag922
aS'204'
p932
aa(lp933
S'FORBES'
p934
ag829
aS'A270'
p935
aa(lp936
S'WILSON'
p937
ag833
aS'235'
p938
aa(lp939
g856
ag829
aS'A157'
p940
aa(lp941
S'WILSON'
p942
aS'CLAPP'
p943
aS'232'
p944
aa(lp945
S'FORBES'
p946
ag829
aS'A147'
p947
aa(lp948
S'FORBES'
p949
ag829
aS'262'
p950
aa(lp951
g856
ag829
aS'261'
p952
aa(lp953
S'WILSON'
p954
aS'GAUSS'
p955
aS'117'
p956
aa(lp957
S'WILSON'
p958
ag843
aS'111'
p959
aa(lp960
S'WILSON'
p961
ag850
aS'332'
p962
aa(lp963
g954
ag955
aS'130'
p964
aa(lp965
S'FORBES'
p966
ag829
aS'220'
p967
aa(lp968
S'FORBES'
p969
ag829
aS'219'
p970
aa(lp971
S'FORBES'
p972
ag829
aS'A133'
p973
aa(lp974
S'FORBES'
p975
ag829
aS'331'
p976
aa(lp977
S'WILSON'
p978
ag850
aS'132'
p979
aa(lp980
S'WILSON'
p981
ag922
aS'202'
p982
aa(lp983
S'WILSON'
p984
ag850
aS'331'
p985
aa(lp986
S'FORBES'
p987
ag829
aS'267'
p988
aa(lp989
S'FORBES'
p990
ag829
aS'264'
p991
aa(lp992
S'WILSON'
p993
ag850
aS'301'
p994
aa(lp995
S'FORBES'
p996
ag829
aS'268'
p997
aa(lp998
S'WILSON'
p999
aS'1937'
p1000
aS'201'
p1001
aa(lp1002
S'WILSON'
p1003
ag1000
aS'204'
p1004
aa(lp1005
S'FORBES'
p1006
ag829
aS'266'
p1007
aa(lp1008
S'WILSON'
p1009
ag922
aS'123'
p1010
aa(lp1011
S'WILSON'
p1012
ag1000
aS'103'
p1013
aa(lp1014
S'WILSON'
p1015
ag943
aS'201'
p1016
aa(lp1017
S'FORBES'
p1018
ag829
aS'A148'
p1019
aa(lp1020
S'FORBES'
p1021
ag829
aS'A154'
p1022
aa(lp1023
S'FORBES'
p1024
ag829
aS'A152'
p1025
aa(lp1026
g1009
ag922
aS'226'
p1027
aa(lp1028
S'WILSON'
p1029
ag922
aS'227'
p1030
aa(lp1031
S'FORBES'
p1032
ag829
aS'324'
p1033
aa(lp1034
S'FORBES'
p1035
ag829
aS'A144'
p1036
aa(lp1037
S'FORBES'
p1038
ag829
aS'A142'
p1039
aa(lp1040
S'WILSON'
p1041
ag943
aS'202'
p1042
aa(lp1043
S'FORBES'
p1044
ag829
aS'A248'
p1045
aa(lp1046
S'FORBES'
p1047
ag829
aS'A146'
p1048
aa(lp1049
S'FORBES'
p1050
ag829
aS'321'
p1051
aa(lp1052
S'WILSON'
p1053
ag905
aS'126'
p1054
aa(lp1055
S'WILSON'
p1056
ag843
aS'131'
p1057
aa(lp1058
S'FORBES'
p1059
ag829
aS'A247'
p1060
aa(lp1061
S'FORBES'
p1062
ag829
aS'A257'
p1063
aa(lp1064
S'FORBES'
p1065
ag829
aS'A259'
p1066
aa(lp1067
S'FORBES'
p1068
ag829
aS'152'
p1069
aa(lp1070
g904
ag905
aS'116'
p1071
aa(lp1072
S'WILSON'
p1073
ag1000
aS'131'
p1074
aa(lp1075
g954
ag955
aS'115'
p1076
aa(lp1077
S'WILSON'
p1078
ag943
aS'212'
p1079
aa(lp1080
S'FORBES'
p1081
ag829
aS'A246'
p1082
aa(lp1083
S'WILSON'
p1084
ag1000
aS'122'
p1085
aa(lp1086
S'FORBES'
p1087
ag829
aS'108'
p1088
aa(lp1089
g856
ag829
aS'210'
p1090
aa(lp1091
S'FORBES'
p1092
ag829
aS'107'
p1093
aa(lp1094
S'WILSON'
p1095
ag922
aS'217'
p1096
aa(lp1097
S'WILSON'
p1098
ag843
aS'112'
p1099
aa(lp1100
S'WILSON'
p1101
ag955
aS'116'
p1102
aa(lp1103
S'WILSON'
p1104
ag833
aS'214'
p1105
aa(lp1106
S'WILSON'
p1107
ag955
aS'112'
p1108
aa(lp1109
S'FORBES'
p1110
ag829
aS'153'
p1111
aa(lp1112
S'WILSON'
p1113
ag955
aS'114'
p1114
aa(lp1115
S'WILSON'
p1116
ag1000
aS'121'
p1117
aa(lp1118
S'FORBES'
p1119
ag829
aS'252'
p1120
aa(lp1121
S'FORBES'
p1122
ag829
aS'A134'
p1123
aa(lp1124
S'FORBES'
p1125
ag829
aS'A135'
p1126
aa(lp1127
S'WILSON'
p1128
ag922
aS'122'
p1129
aa(lp1130
S'FORBES'
p1131
ag829
aS'253'
p1132
aa(lp1133
S'FORBES'
p1134
ag829
aS'A252'
p1135
aa(lp1136
S'FORBES'
p1137
ag829
aS'A250'
p1138
aa(lp1139
S'WILSON'
p1140
ag955
aS'101'
p1141
aa(lp1142
S'FORBES'
p1143
ag829
aS'A136'
p1144
aa(lp1145
S'FORBES'
p1146
ag829
aS'235'
p1147
aa(lp1148
S'FORBES'
p1149
ag829
aS'A242'
p1150
aa(lp1151
S'WILSON'
p1152
ag1000
aS'216'
p1153
aa(lp1154
S'FORBES'
p1155
ag829
aS'217'
p1156
aa(lp1157
S'FORBES'
p1158
ag829
aS'A256'
p1159
aa(lp1160
S'FORBES'
p1161
ag829
aS'263'
p1162
aa(lp1163
S'WILSON'
p1164
ag922
aS'121'
p1165
aa(lp1166
g917
ag918
aS'401'
p1167
aa(lp1168
g1056
ag843
aS'133'
p1169
aa(lp1170
S'FORBES'
p1171
ag829
aS'A254'
p1172
aa(lp1173
S'WILSON'
p1174
ag922
aS'201'
p1175
aa(lp1176
S'FORBES'
p1177
ag829
aS'A266'
p1178
aa(lp1179
S'FORBES'
p1180
ag829
aS'A260'
p1181
aa(lp1182
S'FORBES'
p1183
ag829
aS'A261'
p1184
aa(lp1185
S'FORBES'
p1186
ag829
aS'A263'
p1187
aa(lp1188
S'FORBES'
p1189
ag829
aS'234'
p1190
aa(lp1191
S'FORBES'
p1192
ag829
aS'A249'
p1193
aa(lp1194
S'WILSON'
p1195
ag1000
aS'205'
p1196
aa(lp1197
S'WILSON'
p1198
ag918
aS'402'
p1199
aa(lp1200
S'WILSON'
p1201
ag833
aS'112'
p1202
aa(lp1203
S'WILSON'
p1204
ag1000
aS'215'
p1205
aa(lp1206
g856
ag829
aS'216'
p1207
aa(lp1208
S'FORBES'
p1209
ag829
aS'A245'
p1210
aa(lp1211
S'FORBES'
p1212
ag829
aS'237'
p1213
aa(lp1214
S'WILSON'
p1215
ag833
aS'213'
p1216
aa(lp1217
S'WILSON'
p1218
ag833
aS'114'
p1219
aa(lp1220
S'WILSON'
p1221
ag922
aS'216'
p1222
aa(lp1223
S'WILSON'
p1224
ag1000
aS'105'
p1225
aa(lp1226
g954
ag955
aS'131'
p1227
aa(lp1228
g954
ag955
aS'134'
p1229
aa(lp1230
S'FORBES'
p1231
ag829
aS'A125'
p1232
aa(lp1233
S'FORBES'
p1234
ag829
aS'A145'
p1235
aa(lp1236
S'WILSON'
p1237
ag833
aS'211'
p1238
aa(lp1239
S'WILSON'
p1240
ag955
aS'113'
p1241
aa(lp1242
g1009
ag922
aS'223'
p1243
aa(lp1244
S'FORBES'
p1245
ag829
aS'239'
p1246
aa(lp1247
S'FORBES'
p1248
ag829
aS'206'
p1249
aa(lp1250
S'FORBES'
p1251
ag829
aS'221'
p1252
aa(lp1253
S'WILSON'
p1254
ag905
aS'336'
p1255
aa(lp1256
S'FORBES'
p1257
ag829
aS'111'
p1258
aa(lp1259
S'WILSON'
p1260
ag833
aS'132'
p1261
aa(lp1262
g1009
ag922
aS'124'
p1263
aa(lp1264
g1009
ag922
aS'125'
p1265
aa(lp1266
S'FORBES'
p1267
ag829
aS'A337'
p1268
aa(lp1269
g1015
ag943
aS'231'
p1270
aa(lp1271
S'WILSON'
p1272
ag843
aS'135'
p1273
aa(lp1274
S'FORBES'
p1275
ag829
aS'110'
p1276
aa(lp1277
S'WHITMAN'
p1278
ag341
aS'C215'
p1279
aa(lp1280
g904
ag905
aS'228'
p1281
aa(lp1282
S'FORBES'
p1283
ag829
aS'A231'
p1284
aa(lp1285
g954
ag955
aS'132'
p1286
aa(lp1287
g954
ag955
aS'133'
p1288
aa(lp1289
S'FORBES'
p1290
ag829
aS'207'
p1291
aa(lp1292
S'FORBES'
p1293
ag829
aS'A427'
p1294
aa(lp1295
S'WILSON'
p1296
ag922
aS'203'
p1297
aa(lp1298
S'FORBES'
p1299
ag829
aS'A265'
p1300
aa(lp1301
S'FORBES'
p1302
ag829
aS'A331'
p1303
aa(lp1304
S'WILSON'
p1305
ag850
aS'328'
p1306
aa(lp1307
g1305
ag850
aS'333'
p1308
aa(lp1309
S'FORBES'
p1310
ag829
aS'208'
p1311
aa(lp1312
S'FORBES'
p1313
ag829
aS'A377'
p1314
aa(lp1315
S'FORBES'
p1316
ag829
aS'A431'
p1317
aa(lp1318
S'FORBES'
p1319
ag829
aS'A327'
p1320
aa(lp1321
S'WILSON'
p1322
ag850
aS'322'
p1323
aa(lp1324
S'WILSON'
p1325
ag850
aS'302'
p1326
aa(lp1327
S'FORBES'
p1328
ag829
aS'A232'
p1329
aa(lp1330
S'WILSON'
p1331
ag850
aS'305'
p1332
aa(lp1333
S'FORBES'
p1334
ag829
aS'A238'
p1335
aa(lp1336
S'WILSON'
p1337
ag850
aS'312'
p1338
aa(lp1339
S'FORBES'
p1340
ag829
aS'A234'
p1341
aa(lp1342
S'FORBES'
p1343
ag829
aS'A236'
p1344
aa(lp1345
S'WILSON'
p1346
ag850
aS'303'
p1347
aa(lp1348
S'FORBES'
p1349
ag829
aS'A338'
p1350
aa(lp1351
S'FORBES'
p1352
ag829
aS'A323'
p1353
aa(lp1354
S'FORBES'
p1355
ag829
aS'A131'
p1356
aa(lp1357
S'FORBES'
p1358
ag829
aS'A332'
p1359
aa(lp1360
S'FORBES'
p1361
ag829
aS'A132'
p1362
aa(lp1363
S'FORBES'
p1364
ag829
aS'A328'
p1365
aa(lp1366
g856
ag829
aS'A371'
p1367
aa(lp1368
g856
ag829
aS'A438'
p1369
aa(lp1370
S'FORBES'
p1371
ag829
aS'A428'
p1372
aa(lp1373
g856
ag829
aS'A436'
p1374
aa(lp1375
g856
ag829
aS'A434'
p1376
aa(lp1377
S'FORBES'
p1378
ag829
aS'A432'
p1379
aa(lp1380
S'FORBES'
p1381
ag829
aS'A336'
p1382
aa(lp1383
S'FORBES'
p1384
ag829
aS'A334'
p1385
aa(lp1386
g856
ag829
aS'A424'
p1387
aa(lp1388
S'FORBES'
p1389
ag829
aS'A228'
p1390
aa(lp1391
S'FORBES'
p1392
ag829
aS'A137'
p1393
aa(lp1394
S'FORBES'
p1395
ag829
aS'A138'
p1396
aa(lp1397
g856
ag829
aS'A226'
p1398
aa(lp1399
S'FORBES'
p1400
ag829
aS'A426'
p1401
aa(lp1402
S'WILSON'
p1403
ag833
aS'121'
p1404
aa(lp1405
S'WHITMAN'
p1406
ag331
aS'E315'
p1407
aa(lp1408
S'BUTLER'
p1409
ag298
aS'429'
p1410
aa(lp1411
S'BUTLER'
p1412
ag298
aS'323'
p1413
aa(lp1414
g312
ag313
aS'F216'
p1415
aa(lp1416
S'BUTLER'
p1417
ag298
aS'467'
p1418
aa(lp1419
S'WHITMAN'
p1420
ag341
aS'C217'
p1421
aa(lp1422
S'WHITMAN'
p1423
ag424
aS'D108'
p1424
aa(lp1425
S'BUTLER'
p1426
ag298
aS'481'
p1427
aa(lp1428
S'WHITMAN'
p1429
ag474
aS'G407A'
p1430
aa(lp1431
S'WHITMAN'
p1432
ag341
aS'B409'
p1433
aa(lp1434
g356
ag341
aS'B424'
p1435
aa(lp1436
S'WHITMAN'
p1437
ag331
aS'E309'
p1438
aa(lp1439
S'BUTLER'
p1440
ag306
aS'D112'
p1441
aa(lp1442
S'BUTLER'
p1443
ag298
aS'423'
p1444
aa(lp1445
g2
ag341
aS'B310'
p1446
aa(lp1447
S'BUTLER'
p1448
ag298
aS'121'
p1449
aa(lp1450
S'BUTLER'
p1451
ag298
aS'304'
p1452
aa(lp1453
S'WHITMAN'
p1454
ag313
aS'F302'
p1455
aa(lp1456
g1423
ag424
aS'D308'
p1457
aa(lp1458
S'WHITMAN'
p1459
ag424
aS'D302'
p1460
aa(lp1461
S'BUTLER'
p1462
ag298
aS'181'
p1463
aa(lp1464
S'WHITMAN'
p1465
ag331
aS'S202'
p1466
aa(lp1467
S'WHITMAN'
p1468
ag341
aS'C216'
p1469
aa(lp1470
S'BUTLER'
p1471
ag563
aS'B214'
p1472
aa(lp1473
S'WHITMAN'
p1474
ag341
aS'C206'
p1475
aa(lp1476
S'WHITMAN'
p1477
ag341
aS'C207'
p1478
aa(lp1479
S'BUTLER'
p1480
ag108
aS'E108'
p1481
aa(lp1482
S'BUTLER'
p1483
ag108
aS'E102'
p1484
aa(lp1485
S'BUTLER'
p1486
ag667
aS'A205'
p1487
aa(lp1488
g562
ag563
aS'B208'
p1489
aa(lp1490
S'WHITMAN'
p1491
ag331
aS'E221'
p1492
aa(lp1493
S'WHITMAN'
p1494
ag331
aS'E109'
p1495
aa(lp1496
S'BUTLER'
p1497
ag298
aS'318'
p1498
aa(lp1499
S'BUTLER'
p1500
ag298
aS'320'
p1501
aa(lp1502
S'WHITMAN'
p1503
ag474
aS'G406'
p1504
aa(lp1505
g330
ag331
aS'E321'
p1506
aa(lp1507
g312
ag313
aS'F328'
p1508
aa(lp1509
S'WHITMAN'
p1510
ag331
aS'E314'
p1511
aa(lp1512
S'WHITMAN'
p1513
ag331
aS'E323'
p1514
aa(lp1515
S'WHITMAN'
p1516
ag331
aS'E306'
p1517
aa(lp1518
S'BUTLER'
p1519
ag631
aS'422'
p1520
aa(lp1521
g356
ag341
aS'B416'
p1522
aa(lp1523
S'BUTLER'
p1524
ag298
aS'329'
p1525
aa(lp1526
S'BUTLER'
p1527
ag298
aS'140'
p1528
aa(lp1529
S'BUTLER'
p1530
ag631
aS'615'
p1531
aa(lp1532
g356
ag341
aS'C306'
p1533
aa(lp1534
S'BUTLER'
p1535
ag298
aS'191'
p1536
aa(lp1537
S'WHITMAN'
p1538
ag424
aS'D107'
p1539
aa(lp1540
S'BUTLER'
p1541
ag631
aS'421'
p1542
aa(lp1543
S'BUTLER'
p1544
ag298
aS'458'
p1545
aa(lp1546
S'WHITMAN'
p1547
ag474
aS'G101D'
p1548
aa(lp1549
S'WHITMAN'
p1550
ag341
aS'B318'
p1551
aa(lp1552
S'BUTLER'
p1553
ag298
aS'132'
p1554
aa(lp1555
g356
ag341
aS'C302'
p1556
aa(lp1557
S'WHITMAN'
p1558
ag341
aS'B410'
p1559
aa(lp1560
g356
ag341
aS'B412'
p1561
aa(lp1562
g356
ag341
aS'B420'
p1563
aa(lp1564
g356
ag341
aS'B422'
p1565
aa(lp1566
S'BUTLER'
p1567
ag667
aS'A202'
p1568
aa(lp1569
S'BUTLER'
p1570
ag298
aS'182'
p1571
aa(lp1572
S'WHITMAN'
p1573
ag331
aS'S405'
p1574
aa(lp1575
g1423
ag424
aS'D418'
p1576
aa(lp1577
g1423
ag424
aS'D420'
p1578
aa(lp1579
S'WHITMAN'
p1580
ag331
aS'E223'
p1581
aa(lp1582
S'WHITMAN'
p1583
ag341
aS'B428'
p1584
aa(lp1585
S'BUTLER'
p1586
ag631
aS'614'
p1587
aa(lp1588
g330
ag331
aS'S206'
p1589
aa(lp1590
S'WHITMAN'
p1591
ag474
aS'G402'
p1592
aa(lp1593
S'BUTLER'
p1594
ag631
aS'624'
p1595
aa(lp1596
g374
ag298
aS'239'
p1597
aa(lp1598
S'BUTLER'
p1599
ag563
aS'B204'
p1600
aa(lp1601
S'WHITMAN'
p1602
ag424
aS'D201'
p1603
aa(lp1604
S'WHITMAN'
p1605
ag331
aS'S402'
p1606
aa(lp1607
S'WHITMAN'
p1608
ag341
aS'B317'
p1609
aa(lp1610
S'BUTLER'
p1611
ag306
aS'D212'
p1612
aa(lp1613
S'WHITMAN'
p1614
ag424
aS'D109'
p1615
aa(lp1616
S'WHITMAN'
p1617
ag424
aS'D105'
p1618
aa(lp1619
S'BUTLER'
p1620
ag631
aS'611'
p1621
aa(lp1622
S'BUTLER'
p1623
ag631
aS'511'
p1624
aa(lp1625
S'BUTLER'
p1626
ag631
aS'514'
p1627
aa(lp1628
S'WHITMAN'
p1629
ag424
aS'D307'
p1630
aa(lp1631
S'BUTLER'
p1632
ag631
aS'623'
p1633
aa(lp1634
S'BUTLER'
p1635
ag298
aS'454'
p1636
aa(lp1637
S'BUTLER'
p1638
ag667
aS'A203'
p1639
aa(lp1640
S'BUTLER'
p1641
ag631
aS'521'
p1642
aa(lp1643
S'BUTLER'
p1644
ag631
aS'513'
p1645
aa(lp1646
S'WHITMAN'
p1647
ag313
aS'F107'
p1648
aa(lp1649
S'WHITMAN'
p1650
ag331
aS'E108'
p1651
aa(lp1652
g293
ag294
aS'A308'
p1653
aa(lp1654
S'BUTLER'
p1655
ag631
aS'423'
p1656
aa(lp1657
S'BUTLER'
p1658
ag631
aS'425'
p1659
aa(lp1660
S'BUTLER'
p1661
ag631
aS'424'
p1662
aa(lp1663
S'BUTLER'
p1664
ag631
aS'414'
p1665
aa(lp1666
S'WHITMAN'
p1667
ag294
aS'A316'
p1668
aa(lp1669
S'WHITMAN'
p1670
ag294
aS'A312'
p1671
aa(lp1672
g293
ag294
aS'A305'
p1673
aa(lp1674
S'WHITMAN'
p1675
ag331
aS'S302'
p1676
aa(lp1677
S'BUTLER'
p1678
ag514
aS'C202'
p1679
aa(lp1680
S'BUTLER'
p1681
ag108
aS'E202'
p1682
aa(lp1683
S'BUTLER'
p1684
ag108
aS'E205'
p1685
aa(lp1686
S'WHITMAN'
p1687
ag424
aS'D305'
p1688
aa(lp1689
g293
ag294
aS'A302'
p1690
aa(lp1691
S'WHITMAN'
p1692
ag294
aS'A321'
p1693
aa(lp1694
S'WHITMAN'
p1695
ag313
aS'F103'
p1696
aa(lp1697
S'WHITMAN'
p1698
ag341
aS'B311'
p1699
aa(lp1700
S'BUTLER'
p1701
ag631
aS'524'
p1702
aa(lp1703
g2
ag631
aS'413'
p1704
aa(lp1705
S'BUTLER'
p1706
ag108
aS'E305'
p1707
aa(lp1708
S'WHITMAN'
p1709
ag424
aS'D203'
p1710
aa(lp1711
S'WHITMAN'
p1712
ag331
aS'S406'
p1713
aa(lp1714
S'WHITMAN'
p1715
ag331
aS'S404'
p1716
aa(lp1717
S'WHITMAN'
p1718
ag331
aS'E313'
p1719
aa(lp1720
S'WHITMAN'
p1721
ag331
aS'E311'
p1722
aa(lp1723
S'BUTLER'
p1724
ag108
aS'E302'
p1725
aa(lp1726
S'BUTLER'
p1727
ag631
aS'621'
p1728
aa(lp1729
g562
ag563
aS'B302'
p1730
aa(lp1731
S'BUTLER'
p1732
ag563
aS'B304'
p1733
aa(lp1734
S'WHITMAN'
p1735
ag313
aS'F105'
p1736
aa(lp1737
S'WHITMAN'
p1738
ag331
aS'E308'
p1739
aa(lp1740
S'BUTLER'
p1741
ag563
aS'B202'
p1742
aa(lp1743
S'WHITMAN'
p1744
ag331
aS'E319'
p1745
aa(lp1746
S'WHITMAN'
p1747
ag313
aS'F116'
p1748
aa(lp1749
S'WHITMAN'
p1750
ag341
aS'B314'
p1751
aa(lp1752
S'BUTLER'
p1753
ag631
aS'523'
p1754
aa(lp1755
S'BUTLER'
p1756
ag563
aS'B213'
p1757
aa(lp1758
g374
ag298
aS'347'
p1759
aa(lp1760
S'WHITMAN'
p1761
ag313
aS'F007'
p1762
aa(lp1763
S'WHITMAN'
p1764
ag424
aS'D303'
p1765
aa(lp1766
S'WHITMAN'
p1767
ag474
aS'G101A'
p1768
aa(lp1769
S'WHITMAN'
p1770
ag294
aS'A317'
p1771
aa(lp1772
S'BUTLER'
p1773
ag631
aS'512'
p1774
aa(lp1775
S'WHITMAN'
p1776
ag341
aS'B205'
p1777
aa(lp1778
S'WHITMAN'
p1779
ag474
aS'G407B'
p1780
aa(lp1781
S'WHITMAN'
p1782
ag470
aS'T302'
p1783
aa(lp1784
S'BUTLER'
p1785
ag631
aS'522'
p1786
aa(lp1787
S'WHITMAN'
p1788
ag313
aS'F024'
p1789
aa(lp1790
S'BUTLER'
p1791
ag631
aS'622'
p1792
aa(lp1793
S'WHITMAN'
p1794
ag313
aS'F114'
p1795
aa(lp1796
S'WHITMAN'
p1797
ag313
aS'F113'
p1798
aa(lp1799
g630
ag631
aS'612'
p1800
aa(lp1801
S'BUTLER'
p1802
ag667
aS'A113'
p1803
aa(lp1804
S'WHITMAN'
p1805
ag313
aS'F117'
p1806
aa(lp1807
S'WHITMAN'
p1808
ag313
aS'F226'
p1809
aa(lp1810
S'BUTLER'
p1811
ag563
aS'B212'
p1812
aa(lp1813
S'WHITMAN'
p1814
ag424
aS'D112'
p1815
aa(lp1816
S'WHITMAN'
p1817
ag313
aS'F018'
p1818
aa(lp1819
S'BUTLER'
p1820
ag306
aS'D312'
p1821
aa(lp1822
S'WHITMAN'
p1823
ag341
aS'B315'
p1824
aa(lp1825
g305
ag306
aS'D215'
p1826
aa(lp1827
g356
ag341
aS'B411'
p1828
aa(lp1829
g356
ag341
aS'B415'
p1830
aa(lp1831
S'WHITMAN'
p1832
ag341
aS'B320'
p1833
aa(lp1834
g666
ag667
aS'A115'
p1835
aa(lp1836
g356
ag341
aS'C204'
p1837
aa(lp1838
g666
ag667
aS'A215'
p1839
aa(lp1840
S'WHITMAN'
p1841
ag331
aS'E310'
p1842
aa(lp1843
g374
ag298
aS'335'
p1844
aa(lp1845
g305
ag306
aS'D110'
p1846
aa(lp1847
S'BUTLER'
p1848
ag563
aS'B211'
p1849
aa(lp1850
g374
ag298
aS'240'
p1851
aa(lp1852
g374
ag298
aS'330'
p1853
aa(lp1854
S'BUTLER'
p1855
ag514
aS'C102'
p1856
aa(lp1857
g374
ag298
aS'333'
p1858
aa(lp1859
S'BUTLER'
p1860
ag514
aS'C204'
p1861
aa(lp1862
S'MATHEY'
p1863
ag466
aS'061'
p1864
aa(lp1865
S'MATHEY'
p1866
ag466
aS'B71'
p1867
aa(lp1868
S'MATHEY'
p1869
ag466
aS'B52'
p1870
aa(lp1871
S'ROCKEFELLER'
p1872
aS'HOLDER'
p1873
aS'012'
p1874
aa(lp1875
S'MATHEY'
p1876
ag466
aS'B72'
p1877
aa(lp1878
S'ROCKEFELLER'
p1879
ag1873
aS'068'
p1880
aa(lp1881
S'MATHEY'
p1882
ag466
aS'B51'
p1883
aa(lp1884
S'MATHEY'
p1885
ag157
aS'015'
p1886
aa(lp1887
S'ROCKEFELLER'
p1888
ag1873
aS'079'
p1889
aa(lp1890
S'ROCKEFELLER'
p1891
ag1873
aS'076'
p1892
aa(lp1893
g601
ag507
aS'101'
p1894
aa(lp1895
S'ROCKEFELLER'
p1896
aS'WITHERSPOON'
p1897
aS'421'
p1898
aa(lp1899
S'MATHEY'
p1900
ag507
aS'103'
p1901
aa(lp1902
S'MATHEY'
p1903
ag466
aS'A02'
p1904
aa(lp1905
S'MATHEY'
p1906
ag507
aS'117'
p1907
aa(lp1908
S'ROCKEFELLER'
p1909
aS'BUYERS'
p1910
aS'B13'
p1911
aa(lp1912
S'MATHEY'
p1913
ag507
aS'512'
p1914
aa(lp1915
S'ROCKEFELLER'
p1916
ag1897
aS'417'
p1917
aa(lp1918
S'MATHEY'
p1919
ag466
aS'B82'
p1920
aa(lp1921
S'MATHEY'
p1922
ag466
aS'B73'
p1923
aa(lp1924
S'ROCKEFELLER'
p1925
ag1897
aS'517'
p1926
aa(lp1927
S'MATHEY'
p1928
ag157
aS'323'
p1929
aa(lp1930
S'MATHEY'
p1931
ag507
aS'513'
p1932
aa(lp1933
g1866
ag466
aS'B81'
p1934
aa(lp1935
S'MATHEY'
p1936
ag466
aS'096'
p1937
aa(lp1938
S'MATHEY'
p1939
ag157
aS'305'
p1940
aa(lp1941
S'ROCKEFELLER'
p1942
ag1897
aS'217'
p1943
aa(lp1944
S'MATHEY'
p1945
ag157
aS'387'
p1946
aa(lp1947
S'MATHEY'
p1948
ag507
aS'507'
p1949
aa(lp1950
S'MATHEY'
p1951
ag507
aS'508'
p1952
aa(lp1953
S'ROCKEFELLER'
p1954
ag1873
aS'142'
p1955
aa(lp1956
S'MATHEY'
p1957
ag507
aS'510'
p1958
aa(lp1959
S'ROCKEFELLER'
p1960
ag1897
aS'317'
p1961
aa(lp1962
S'ROCKEFELLER'
p1963
ag1897
aS'422'
p1964
aa(lp1965
S'MATHEY'
p1966
ag466
aS'093'
p1967
aa(lp1968
g1925
ag1897
aS'416'
p1969
aa(lp1970
S'ROCKEFELLER'
p1971
ag1897
aS'414'
p1972
aa(lp1973
S'MATHEY'
p1974
ag466
aS'B91'
p1975
aa(lp1976
S'MATHEY'
p1977
ag466
aS'097'
p1978
aa(lp1979
S'MATHEY'
p1980
ag302
aS'325'
p1981
aa(lp1982
S'MATHEY'
p1983
ag302
aS'322'
p1984
aa(lp1985
S'MATHEY'
p1986
ag466
aS'B92'
p1987
aa(lp1988
S'MATHEY'
p1989
ag507
aS'511'
p1990
aa(lp1991
S'ROCKEFELLER'
p1992
ag1873
aS'075'
p1993
aa(lp1994
S'ROCKEFELLER'
p1995
ag1897
aS'510'
p1996
aa(lp1997
g1925
ag1897
aS'512'
p1998
aa(lp1999
S'ROCKEFELLER'
p2000
ag1873
aS'067'
p2001
aa(lp2002
g1992
ag1873
aS'056'
p2003
aa(lp2004
S'MATHEY'
p2005
ag507
aS'505'
p2006
aa(lp2007
S'MATHEY'
p2008
ag507
aS'112'
p2009
aa(lp2010
S'MATHEY'
p2011
ag466
aS'098'
p2012
aa(lp2013
S'MATHEY'
p2014
ag420
aS'231'
p2015
aa(lp2016
S'MATHEY'
p2017
ag157
aS'325'
p2018
aa(lp2019
S'MATHEY'
p2020
ag157
aS'327'
p2021
aa(lp2022
S'MATHEY'
p2023
ag420
aS'434'
p2024
aa(lp2025
S'ROCKEFELLER'
p2026
ag1897
aS'321'
p2027
aa(lp2028
S'MATHEY'
p2029
aS'CAMPBELL'
p2030
aS'006A'
p2031
aa(lp2032
S'ROCKEFELLER'
p2033
ag1873
aS'061'
p2034
aa(lp2035
S'MATHEY'
p2036
ag507
aS'514'
p2037
aa(lp2038
S'MATHEY'
p2039
ag507
aS'509'
p2040
aa(lp2041
g601
ag507
aS'317'
p2042
aa(lp2043
S'ROCKEFELLER'
p2044
ag1897
aS'516'
p2045
aa(lp2046
S'MATHEY'
p2047
ag157
aS'329'
p2048
aa(lp2049
S'MATHEY'
p2050
ag157
aS'063'
p2051
aa(lp2052
S'MATHEY'
p2053
ag2030
aS'005B'
p2054
aa(lp2055
S'ROCKEFELLER'
p2056
ag1897
aS'117'
p2057
aa(lp2058
S'ROCKEFELLER'
p2059
ag1897
aS'222'
p2060
aa(lp2061
S'ROCKEFELLER'
p2062
ag1873
aS'074'
p2063
aa(lp2064
S'MATHEY'
p2065
ag420
aS'232'
p2066
aa(lp2067
S'MATHEY'
p2068
ag2030
aS'052'
p2069
aa(lp2070
S'MATHEY'
p2071
ag466
aS'045'
p2072
aa(lp2073
S'ROCKEFELLER'
p2074
ag1873
aS'011'
p2075
aa(lp2076
S'MATHEY'
p2077
ag420
aS'233'
p2078
aa(lp2079
S'ROCKEFELLER'
p2080
ag1910
aS'024'
p2081
aa(lp2082
S'MATHEY'
p2083
ag507
aS'515'
p2084
aa(lp2085
S'MATHEY'
p2086
ag157
aS'301'
p2087
aa(lp2088
g1992
ag1873
aS'115'
p2089
aa(lp2090
S'MATHEY'
p2091
ag157
aS'309'
p2092
aa(lp2093
S'ROCKEFELLER'
p2094
ag1897
aS'312'
p2095
aa(lp2096
S'ROCKEFELLER'
p2097
ag1897
aS'006'
p2098
aa(lp2099
g436
ag420
aS'323'
p2100
aa(lp2101
S'MATHEY'
p2102
ag157
aS'074'
p2103
aa(lp2104
S'ROCKEFELLER'
p2105
ag1910
aS'033'
p2106
aa(lp2107
S'MATHEY'
p2108
ag507
aS'102'
p2109
aa(lp2110
S'MATHEY'
p2111
ag157
aS'313'
p2112
aa(lp2113
S'MATHEY'
p2114
ag466
aS'095'
p2115
aa(lp2116
S'MATHEY'
p2117
ag2030
aS'052B'
p2118
aa(lp2119
S'MATHEY'
p2120
ag157
aS'321'
p2121
aa(lp2122
S'MATHEY'
p2123
ag2030
aS'063'
p2124
aa(lp2125
S'ROCKEFELLER'
p2126
ag1897
aS'403'
p2127
aa(lp2128
S'MATHEY'
p2129
ag466
aS'051'
p2130
aa(lp2131
S'ROCKEFELLER'
p2132
ag1897
aS'408'
p2133
aa(lp2134
S'ROCKEFELLER'
p2135
ag2030
aS'004B'
p2136
aa(lp2137
S'ROCKEFELLER'
p2138
ag1897
aS'410'
p2139
aa(lp2140
S'MATHEY'
p2141
ag2030
aS'052A'
p2142
aa(lp2143
S'ROCKEFELLER'
p2144
ag1897
aS'303'
p2145
aa(lp2146
S'ROCKEFELLER'
p2147
ag1873
aS'107'
p2148
aa(lp2149
S'MATHEY'
p2150
ag2030
aS'061'
p2151
aa(lp2152
S'MATHEY'
p2153
ag466
aS'305'
p2154
aa(lp2155
S'MATHEY'
p2156
ag466
aS'302'
p2157
aa(lp2158
S'ROCKEFELLER'
p2159
ag1910
aS'B21'
p2160
aa(lp2161
S'MATHEY'
p2162
ag466
aS'301'
p2163
aa(lp2164
S'MATHEY'
p2165
ag157
aS'073'
p2166
aa(lp2167
S'ROCKEFELLER'
p2168
ag1897
aS'405'
p2169
aa(lp2170
S'ROCKEFELLER'
p2171
ag1897
aS'316'
p2172
aa(lp2173
S'ROCKEFELLER'
p2174
ag1897
aS'121'
p2175
aa(lp2176
S'ROCKEFELLER'
p2177
ag1873
aS'078'
p2178
aa(lp2179
S'MATHEY'
p2180
ag157
aS'051'
p2181
aa(lp2182
S'MATHEY'
p2183
ag157
aS'053'
p2184
aa(lp2185
S'ROCKEFELLER'
p2186
ag1873
aS'047'
p2187
aa(lp2188
S'ROCKEFELLER'
p2189
ag1897
aS'415'
p2190
aa(lp2191
S'ROCKEFELLER'
p2192
ag1873
aS'097'
p2193
aa(lp2194
S'ROCKEFELLER'
p2195
ag1897
aS'203'
p2196
aa(lp2197
g1866
ag466
aS'064'
p2198
aa(lp2199
S'ROCKEFELLER'
p2200
ag1897
aS'201'
p2201
aa(lp2202
S'ROCKEFELLER'
p2203
ag1897
aS'401'
p2204
aa(lp2205
S'MATHEY'
p2206
ag466
aS'081'
p2207
aa(lp2208
S'MATHEY'
p2209
ag466
aS'102'
p2210
aa(lp2211
S'ROCKEFELLER'
p2212
ag1873
aS'126'
p2213
aa(lp2214
S'ROCKEFELLER'
p2215
ag1873
aS'086'
p2216
aa(lp2217
S'MATHEY'
p2218
ag466
aS'091'
p2219
aa(lp2220
S'MATHEY'
p2221
ag466
aS'083'
p2222
aa(lp2223
S'ROCKEFELLER'
p2224
ag1873
aS'096'
p2225
aa(lp2226
S'ROCKEFELLER'
p2227
ag1897
aS'211'
p2228
aa(lp2229
S'MATHEY'
p2230
ag466
aS'084'
p2231
aa(lp2232
g1925
ag1897
aS'514'
p2233
aa(lp2234
S'ROCKEFELLER'
p2235
ag2030
aS'003A'
p2236
aa(lp2237
g1909
ag1910
aS'023'
p2238
aa(lp2239
g436
ag420
aS'313'
p2240
aa(lp2241
S'MATHEY'
p2242
ag302
aS'124'
p2243
aa(lp2244
S'ROCKEFELLER'
p2245
ag2030
aS'013'
p2246
aa(lp2247
g1925
ag1897
aS'114'
p2248
aa(lp2249
g1992
ag1873
aS'136'
p2250
aa(lp2251
g1992
ag1873
aS'124'
p2252
aa(lp2253
S'MATHEY'
p2254
ag157
aS'012'
p2255
aa(lp2256
S'MATHEY'
p2257
ag2030
aS'062'
p2258
aa(lp2259
S'ROCKEFELLER'
p2260
ag1873
aS'046'
p2261
aa(lp2262
g436
ag420
aS'321'
p2263
aa(lp2264
S'MATHEY'
p2265
ag157
aS'033'
p2266
aa(lp2267
S'MATHEY'
p2268
ag157
aS'031'
p2269
aa(lp2270
S'ROCKEFELLER'
p2271
ag1897
aS'210'
p2272
aa(lp2273
S'ROCKEFELLER'
p2274
ag1897
aS'214'
p2275
aa(lp2276
S'ROCKEFELLER'
p2277
ag1897
aS'208'
p2278
aa(lp2279
S'ROCKEFELLER'
p2280
ag2030
aS'003C'
p2281
aa(lp2282
S'ROCKEFELLER'
p2283
ag1897
aS'221'
p2284
aa(lp2285
S'MATHEY'
p2286
ag466
aS'092'
p2287
aa(lp2288
S'MATHEY'
p2289
ag157
aS'013'
p2290
aa(lp2291
S'ROCKEFELLER'
p2292
ag1873
aS'063'
p2293
aa(lp2294
S'MATHEY'
p2295
ag466
aS'B61'
p2296
aa(lp2297
S'ROCKEFELLER'
p2298
ag1873
aS'025'
p2299
aa(lp2300
S'ROCKEFELLER'
p2301
ag1897
aS'306'
p2302
aa(lp2303
S'ROCKEFELLER'
p2304
ag1873
aS'024'
p2305
aa(lp2306
S'ROCKEFELLER'
p2307
ag1897
aS'014'
p2308
aa(lp2309
S'ROCKEFELLER'
p2310
ag1873
aS'027'
p2311
aa(lp2312
S'ROCKEFELLER'
p2313
ag1897
aS'206'
p2314
aa(lp2315
S'ROCKEFELLER'
p2316
ag1897
aS'205'
p2317
aa(lp2318
S'ROCKEFELLER'
p2319
ag1873
aS'022'
p2320
aa(lp2321
S'ROCKEFELLER'
p2322
ag1910
aS'017'
p2323
aa(lp2324
S'ROCKEFELLER'
p2325
ag1873
aS'066'
p2326
aa(lp2327
S'ROCKEFELLER'
p2328
ag1873
aS'081'
p2329
aa(lp2330
S'ROCKEFELLER'
p2331
ag1873
aS'095'
p2332
aa(lp2333
S'ROCKEFELLER'
p2334
ag2030
aS'022'
p2335
aa(lp2336
S'ROCKEFELLER'
p2337
ag1910
aS'032'
p2338
aa(lp2339
S'ROCKEFELLER'
p2340
ag2030
aS'003B'
p2341
aa(lp2342
S'ROCKEFELLER'
p2343
ag1873
aS'073'
p2344
aa(lp2345
g1925
ag1897
aS'305'
p2346
aa(lp2347
S'ROCKEFELLER'
p2348
ag1873
aS'041'
p2349
aa(lp2350
g1992
ag1873
aS'043'
p2351
aa(lp2352
S'ROCKEFELLER'
p2353
ag2030
aS'026'
p2354
aa(lp2355
S'ROCKEFELLER'
p2356
ag1873
aS'143'
p2357
aa(lp2358
S'ROCKEFELLER'
p2359
ag1910
aS'016'
p2360
aa(lp2361
S'ROCKEFELLER'
p2362
ag1873
aS'026'
p2363
aa(lp2364
S'ROCKEFELLER'
p2365
ag1873
aS'042'
p2366
aa(lp2367
S'ROCKEFELLER'
p2368
ag1873
aS'062'
p2369
aa(lp2370
S'ROCKEFELLER'
p2371
ag1873
aS'092'
p2372
aa(lp2373
S'ROCKEFELLER'
p2374
ag1897
aS'215'
p2375
aa(lp2376
g1992
ag1873
aS'111'
p2377
aa(lp2378
g1925
ag1897
aS'515'
p2379
aa(lp2380
S'ROCKEFELLER'
p2381
ag1897
aS'409'
p2382
aa(lp2383
S'ROCKEFELLER'
p2384
ag1873
aS'037'
p2385
aa(lp2386
S'ROCKEFELLER'
p2387
ag1897
aS'209'
p2388
aa(lp2389
g2068
ag2030
aS'028'
p2390
aa(lp2391
g2068
ag2030
aS'015'
p2392
aa(lp2393
g2
ag190
aS'076'
p2394
aa(lp2395
g2
aS'WRIGHT'
p2396
aS'306'
p2397
aa(lp2398
g2
ag2396
aS'303'
p2399
aa(lp2400
g2
aS'BROWN'
p2401
aS'210'
p2402
aa(lp2403
g2
ag154
aS'403'
p2404
aa(lp2405
g2
ag2401
aS'410'
p2406
aa(lp2407
g2
ag2401
aS'429'
p2408
aa(lp2409
g2
aS'1901'
p2410
aS'411'
p2411
aa(lp2412
g2
ag122
aS'623'
p2413
aa(lp2414
g2
ag2410
aS'404'
p2415
aa(lp2416
g2
aS'FOULKE'
p2417
aS'324'
p2418
aa(lp2419
g2
ag2417
aS'321'
p2420
aa(lp2421
g2
ag154
aS'200S'
p2422
aa(lp2423
g2
ag190
aS'313'
p2424
aa(lp2425
g2
ag154
aS'311'
p2426
aa(lp2427
g2
ag154
aS'316'
p2428
aa(lp2429
g2
aS'CUYLER'
p2430
aS'413'
p2431
aa(lp2432
g2
ag119
aS'523A'
p2433
aa(lp2434
g2
ag2430
aS'403'
p2435
aa(lp2436
g2
ag2430
aS'511'
p2437
aa(lp2438
g2
ag157
aS'095'
p2439
aa(lp2440
g2
ag111
aS'420'
p2441
aa(lp2442
g2
ag111
aS'133'
p2443
aa(lp2444
g2
ag154
aS'300N'
p2445
aa(lp2446
g2
ag119
aS'133'
p2447
aa(lp2448
g2
ag190
aS'T05'
p2449
aa(lp2450
g2
ag154
aS'204'
p2451
aa(lp2452
g2
ag154
aS'205'
p2453
aa(lp2454
g2
ag122
aS'332'
p2455
aa(lp2456
g2
ag190
aS'310'
p2457
aa(lp2458
g2
ag190
aS'T12'
p2459
aa(lp2460
g2
ag190
aS'408'
p2461
aa(lp2462
g2
ag119
aS'421'
p2463
aa(lp2464
g2
ag2430
aS'633'
p2465
aa(lp2466
g2
ag2430
aS'521'
p2467
aa(lp2468
g2
ag2410
aS'112'
p2469
aa(lp2470
g2
ag2401
aS'119'
p2471
aa(lp2472
g2
ag119
aS'422'
p2473
aa(lp2474
g2
ag119
aS'243'
p2475
aa(lp2476
g2
ag154
aS'401'
p2477
aa(lp2478
g2
ag154
aS'411'
p2479
aa(lp2480
g2
ag2417
aS'316'
p2481
aa(lp2482
g2
ag2417
aS'317'
p2483
aa(lp2484
g2
ag190
aS'064'
p2485
aa(lp2486
g2
ag190
aS'040'
p2487
aa(lp2488
g2
ag154
aS'413'
p2489
aa(lp2490
g2
ag154
aS'402S'
p2491
aa(lp2492
g2
ag119
aS'522'
p2493
aa(lp2494
g2
ag119
aS'212'
p2495
aa(lp2496
g2
ag119
aS'531'
p2497
aa(lp2498
g2
ag119
aS'216'
p2499
aa(lp2500
g2
ag122
aS'511'
p2501
aa(lp2502
g2
ag119
aS'532'
p2503
aa(lp2504
g2
ag116
aS'111'
p2505
aa(lp2506
g2
ag111
aS'102'
p2507
aa(lp2508
g2
ag119
aS'222'
p2509
aa(lp2510
g2
ag111
aS'230'
p2511
aa(lp2512
g2
ag190
aS'075'
p2513
aa(lp2514
g2
ag119
aS'401'
p2515
aa(lp2516
g2
ag116
aS'103'
p2517
aa(lp2518
g2
aS'LAUGHLIN'
p2519
aS'626'
p2520
aa(lp2521
g2
ag2430
aS'438'
p2522
aa(lp2523
g2
ag2430
aS'437'
p2524
aa(lp2525
g2
ag157
aS'399'
p2526
aa(lp2527
g2
ag154
aS'215'
p2528
aa(lp2529
g2
ag111
aS'331'
p2530
aa(lp2531
g2
ag154
aS'200N'
p2532
aa(lp2533
g2
ag154
aS'400S'
p2534
aa(lp2535
g2
ag190
aS'T08'
p2536
aa(lp2537
g2
ag154
aS'400N'
p2538
aa(lp2539
g2
ag122
aS'621'
p2540
aa(lp2541
g2
ag122
aS'221'
p2542
aa(lp2543
g2
ag111
aS'233'
p2544
aa(lp2545
g2
ag125
aS'217'
p2546
aa(lp2547
g2
ag119
aS'528'
p2548
aa(lp2549
g2
ag111
aS'122'
p2550
aa(lp2551
g2
ag119
aS'527'
p2552
aa(lp2553
g2
ag111
aS'330'
p2554
aa(lp2555
g2
ag154
aS'310'
p2556
aa(lp2557
g2
ag122
aS'211'
p2558
aa(lp2559
g2
ag154
aS'312'
p2560
aa(lp2561
g2
ag154
aS'317'
p2562
aa(lp2563
g2
ag157
aS'131'
p2564
aa(lp2565
g2
ag2401
aS'111'
p2566
aa(lp2567
g2
ag2410
aS'405'
p2568
aa(lp2569
g2
ag190
aS'307'
p2570
aa(lp2571
g2
ag111
aS'321'
p2572
aa(lp2573
g2
ag111
aS'448'
p2574
aa(lp2575
g2
ag111
aS'323'
p2576
aa(lp2577
g2
ag2401
aS'312'
p2578
aa(lp2579
g2
ag111
aS'117'
p2580
aa(lp2581
g2
ag190
aS'083'
p2582
aa(lp2583
g2
ag157
aS'146'
p2584
aa(lp2585
g2
ag111
aS'144'
p2586
aa(lp2587
g2
ag111
aS'131'
p2588
aa(lp2589
g2
ag119
aS'228'
p2590
aa(lp2591
g2
ag116
aS'101'
p2592
aa(lp2593
g2
ag119
aS'414'
p2594
aa(lp2595
g2
ag190
aS'041'
p2596
aa(lp2597
g2
ag125
aS'225'
p2598
aa(lp2599
g2
ag157
aS'115'
p2600
aa(lp2601
g2
ag122
aS'613'
p2602
aa(lp2603
g2
ag119
aS'517'
p2604
aa(lp2605
g2
ag125
aS'215'
p2606
aa(lp2607
g2
ag154
aS'202'
p2608
aa(lp2609
g2
ag2396
aS'302'
p2610
aa(lp2611
g2
ag2396
aS'404'
p2612
aa(lp2613
g2
ag2396
aS'301'
p2614
aa(lp2615
g2
ag111
aS'158'
p2616
aa(lp2617
g2
ag119
aS'237'
p2618
aa(lp2619
g2
ag2410
aS'325'
p2620
aa(lp2621
g2
ag2417
aS'305'
p2622
aa(lp2623
g2
ag154
aS'304'
p2624
aa(lp2625
g2
ag154
aS'305'
p2626
aa(lp2627
g2
ag2519
aS'523'
p2628
aa(lp2629
g2
ag154
aS'301'
p2630
aa(lp2631
g2
ag2410
aS'115'
p2632
aa(lp2633
g2
ag111
aS'334'
p2634
aa(lp2635
g2
ag119
aS'215'
p2636
aa(lp2637
g2
ag2401
aS'321'
p2638
aa(lp2639
g2
ag125
aS'115'
p2640
aa(lp2641
g2
ag111
aS'221'
p2642
aa(lp2643
g2
ag111
aS'223'
p2644
aa(lp2645
g2
ag116
aS'312'
p2646
aa(lp2647
g2
ag111
aS'436'
p2648
aa(lp2649
g2
ag190
aS'087'
p2650
aa(lp2651
g2
ag154
aS'214'
p2652
aa(lp2653
g2
ag154
aS'201S'
p2654
aa(lp2655
g2
ag2410
aS'313'
p2656
aa(lp2657
g2
ag119
aS'231'
p2658
aa(lp2659
g2
ag2410
aS'312'
p2660
aa(lp2661
g2
ag122
aS'322'
p2662
aa(lp2663
g2
ag122
aS'321'
p2664
aa(lp2665
g2
ag122
aS'213'
p2666
aa(lp2667
g2
ag122
aS'212'
p2668
aa(lp2669
g2
ag122
aS'313'
p2670
aa(lp2671
g2
ag119
aS'516'
p2672
aa(lp2673
g2
ag190
aS'089'
p2674
aa(lp2675
g2
ag2430
aS'401'
p2676
aa(lp2677
g2
ag154
aS'417'
p2678
aa(lp2679
g2
ag111
aS'217'
p2680
aa(lp2681
g2
ag111
aS'121'
p2682
aa(lp2683
g2
ag111
aS'333'
p2684
aa(lp2685
g2
ag111
aS'327'
p2686
aa(lp2687
g2
ag111
aS'125'
p2688
aa(lp2689
g2
ag111
aS'325'
p2690
aa(lp2691
g2
ag111
aS'231'
p2692
aa(lp2693
g2
ag111
aS'127'
p2694
aa(lp2695
g2
ag125
aS'116'
p2696
aa(lp2697
g2
ag122
aS'344'
p2698
aa(lp2699
g2
ag2417
aS'214'
p2700
aa(lp2701
g2
ag2519
aS'624'
p2702
aa(lp2703
g2
ag111
aS'261'
p2704
aa(lp2705
g2
ag119
aS'241'
p2706
aa(lp2707
g2
ag122
aS'421'
p2708
aa(lp2709
g2
ag122
aS'343'
p2710
aa(lp2711
g2
ag122
aS'632'
p2712
aa(lp2713
g2
ag122
aS'426'
p2714
aa(lp2715
g2
ag154
aS'207'
p2716
aa(lp2717
g2
ag125
aS'125'
p2718
aa(lp2719
g2
ag111
aS'328'
p2720
aa(lp2721
g2
ag190
aS'T01'
p2722
aa(lp2723
g2
ag2396
aS'401'
p2724
aa(lp2725
g2
ag122
aS'611'
p2726
aa(lp2727
g2
ag122
aS'704'
p2728
aa(lp2729
g2
ag122
aS'616'
p2730
aa(lp2731
g2
ag119
aS'314'
p2732
aa(lp2733
g2
ag2410
aS'421'
p2734
aa(lp2735
g2
ag2401
aS'213'
p2736
aa(lp2737
g2
ag154
aS'415'
p2738
aa(lp2739
g2
ag2401
aS'414'
p2740
aa(lp2741
g2
ag119
aS'432'
p2742
aa(lp2743
g2
ag2401
aS'219'
p2744
aa(lp2745
g2
ag154
aS'402N'
p2746
aa(lp2747
g2
ag122
aS'634'
p2748
aa(lp2749
g2
ag2430
aS'234'
p2750
aa(lp2751
g2
ag2401
aS'220'
p2752
aa(lp2753
g2
ag119
aS'227'
p2754
aa(lp2755
g2
ag154
aS'202S'
p2756
aa(lp2757
g2
ag119
aS'221'
p2758
aa(lp2759
g2
ag119
aS'225'
p2760
aa(lp2761
g2
ag119
aS'433'
p2762
aa(lp2763
g2
ag2396
aS'402'
p2764
aa(lp2765
g2
ag122
aS'312'
p2766
aa(lp2767
g2
ag122
aS'311'
p2768
aa(lp2769
g2
ag122
aS'315'
p2770
aa(lp2771
g2
ag122
aS'316'
p2772
aa(lp2773
g2
ag122
aS'411'
p2774
aa(lp2775
g2
ag2417
aS'325'
p2776
aa(lp2777
g2
ag2417
aS'315'
p2778
aa(lp2779
g2
ag2430
aS'432'
p2780
aa(lp2781
g2
ag119
aS'125'
p2782
aa(lp2783
g2
ag119
aS'332'
p2784
aa(lp2785
g2
ag119
aS'121'
p2786
aa(lp2787
g2
ag119
aS'124'
p2788
aa(lp2789
g2
ag119
aS'211'
p2790
aa(lp2791
g2
ag111
aS'355'
p2792
aa(lp2793
g2
ag2396
aS'403'
p2794
aa(lp2795
g2
ag2410
aS'323'
p2796
aa(lp2797
g2
ag111
aS'313'
p2798
aa(lp2799
g2
ag111
aS'315'
p2800
aa(lp2801
g2
ag111
aS'138'
p2802
aa(lp2803
g2
ag2417
aS'202'
p2804
aa(lp2805
g2
ag2417
aS'203'
p2806
aa(lp2807
g2
ag2417
aS'201'
p2808
aa(lp2809
g2
ag111
aS'140'
p2810
aa(lp2811
g2
ag2396
aS'406'
p2812
aa(lp2813
g2
ag119
aS'134'
p2814
aa(lp2815
g2
ag119
aS'312'
p2816
aa(lp2817
g2
ag119
aS'402'
p2818
aa(lp2819
g2
ag154
aS'217'
p2820
aa(lp2821
g2
ag119
aS'513'
p2822
aa(lp2823
g2
ag119
aS'514'
p2824
aa(lp2825
g2
ag119
aS'511'
p2826
aa(lp2827
g2
ag111
aS'340'
p2828
aa(lp2829
g2
ag111
aS'128'
p2830
aa(lp2831
g2
ag111
aS'130'
p2832
aa(lp2833
g2
ag111
aS'132'
p2834
aa(lp2835
g2
ag111
aS'134'
p2836
aa(lp2837
g2
ag2519
aS'513'
p2838
aa(lp2839
g2
ag119
aS'224'
p2840
aa(lp2841
g2
ag2417
aS'318'
p2842
aa(lp2843
g2
ag116
aS'401'
p2844
aa(lp2845
g2
ag125
aS'121'
p2846
aa(lp2847
g2
ag190
aS'030'
p2848
aa(lp2849
g2
ag119
aS'143'
p2850
aa(lp2851
g2
ag2417
aS'101'
p2852
aa(lp2853
g2
ag111
aS'215'
p2854
aa(lp2855
g2
ag111
aS'213'
p2856
aa(lp2857
g2
ag125
aS'321'
p2858
aa(lp2859
g2
ag125
aS'312'
p2860
aa(lp2861
g2
ag125
aS'311'
p2862
aa(lp2863
g2
ag125
aS'314'
p2864
aa(lp2865
g2
ag154
aS'301S'
p2866
aa(lp2867
g2
ag157
aS'111'
p2868
aa(lp2869
g2
ag154
aS'306'
p2870
aa(lp2871
g2
ag154
aS'406'
p2872
aa(lp2873
g2
ag154
aS'416'
p2874
aa(lp2875
g2
ag119
aS'323'
p2876
aa(lp2877
g2
ag119
aS'322'
p2878
aa(lp2879
g2
ag119
aS'521'
p2880
aa(lp2881
g2
ag154
aS'401N'
p2882
aa(lp2883
g2
ag119
aS'526'
p2884
aa(lp2885
g2
ag154
aS'307'
p2886
aa(lp2887
g2
ag2519
aS'618'
p2888
aa(lp2889
g2
ag2519
aS'622'
p2890
aa(lp2891
g2
ag2519
aS'627'
p2892
aa(lp2893
g2
ag2519
aS'623'
p2894
aa(lp2895
g2
ag122
aS'427'
p2896
aa(lp2897
g2
ag122
aS'625'
p2898
aa(lp2899
g2
ag122
aS'425'
p2900
aa(lp2901
g2
ag190
aS'T02'
p2902
aa(lp2903
g2
ag125
aS'141'
p2904
aa(lp2905
g2
ag125
aS'151'
p2906
aa(lp2907
g2
ag125
aS'132'
p2908
aa(lp2909
g2
ag111
aS'123'
p2910
aa(lp2911
g2
ag190
aS'T11'
p2912
aa(lp2913
g2
ag122
aS'224'
p2914
aa(lp2915
g2
ag122
aS'222'
p2916
aa(lp2917
g2
ag2410
aS'113'
p2918
aa(lp2919
g2
ag157
aS'142'
p2920
aa(lp2921
g2
ag2410
aS'132'
p2922
aa(lp2923
g2
ag119
aS'431'
p2924
aa(lp2925
g2
ag154
aS'407'
p2926
aa(lp2927
g2
ag154
aS'302N'
p2928
aa(lp2929
g2
ag2401
aS'113'
p2930
aa(lp2931
g2
ag154
aS'101N'
p2932
aa(lp2933
g2
ag119
aS'136'
p2934
aa(lp2935
g2
ag157
aS'A46'
p2936
aa(lp2937
g2
ag125
aS'226'
p2938
aa(lp2939
g2
ag125
aS'220'
p2940
aa(lp2941
g2
ag125
aS'224'
p2942
aa(lp2943
g2
ag125
aS'229'
p2944
aa(lp2945
g2
ag2410
aS'126'
p2946
aa(lp2947
g2
ag119
aS'223'
p2948
aa(lp2949
g2
ag111
aS'227'
p2950
aa(lp2951
g2
ag111
aS'225'
p2952
aa(lp2953
g2
ag119
aS'242'
p2954
aa(lp2955
g2
ag122
aS'433'
p2956
aa(lp2957
g2
ag122
aS'431'
p2958
aa(lp2959
g2
ag119
aS'235'
p2960
aa(lp2961
g2
ag119
aS'142'
p2962
aa(lp2963
g2
ag119
aS'234'
p2964
aa(lp2965
g2
ag119
aS'233'
p2966
aa(lp2967
g2
ag111
aS'270'
p2968
aa(lp2969
g2
ag119
aS'515'
p2970
aa(lp2971
g2
ag119
aS'523'
p2972
aa(lp2973
g2
ag2410
aS'402'
p2974
aa(lp2975
g2
ag2410
aS'201'
p2976
aa(lp2977
g2
ag2396
aS'305'
p2978
aa(lp2979
g2
ag2430
aS'232'
p2980
aa(lp2981
g2
ag2396
aS'304'
p2982
aa(lp2983
g2
ag2430
aS'431'
p2984
aa(lp2985
g2
ag2430
aS'634'
p2986
aa(lp2987
g2
ag119
aS'411'
p2988
aa(lp2989
g2
ag2430
aS'233'
p2990
aa(lp2991
g2
ag190
aS'073'
p2992
aa(lp2993
g2
ag111
aS'302'
p2994
aa(lp2995
g2
ag111
aS'202'
p2996
aa(lp2997
g2
ag111
aS'438'
p2998
aa(lp2999
g2
ag111
aS'253'
p3000
aa(lp3001
g2
ag119
aS'503'
p3002
aa(lp3003
g2
ag111
aS'258'
p3004
aa(lp3005
g2
ag111
aS'446'
p3006
aa(lp3007
g2
ag2410
aS'331'
p3008
aa(lp3009
g2
ag190
aS'T10'
p3010
aa(lp3011
g2
ag2410
aS'114'
p3012
aa(lp3013
g2
ag125
aS'301'
p3014
aa(lp3015
g2
ag2401
aS'123'
p3016
aa(lp3017
g2
ag2401
aS'125'
p3018
aa(lp3019
g2
ag154
aS'202N'
p3020
aa(lp3021
g2
ag111
aS'240'
p3022
aa(lp3023
g2
ag119
aS'232'
p3024
aa(lp3025
g2
ag2430
aS'404'
p3026
aa(lp3027
g2
ag2519
aS'512'
p3028
aa(lp3029
g2
ag2401
aS'326'
p3030
aa(lp3031
g2
ag122
aS'624'
p3032
aa(lp3033
g2
ag122
aS'622'
p3034
aa(lp3035
g2
ag2417
aS'123'
p3036
aa(lp3037
g2
ag2401
aS'325'
p3038
aa(lp3039
g2
ag2430
aS'421'
p3040
aa(lp3041
g2
ag122
aS'603'
p3042
aa(lp3043
g2
ag111
aS'150'
p3044
aa(lp3045
g2
ag157
aS'141'
p3046
aa(lp3047
g2
ag111
aS'354'
p3048
aa(lp3049
g2
ag2417
aS'341'
p3050
aa(lp3051
g2
ag2519
aS'615'
p3052
aa(lp3053
g2
ag119
aS'525'
p3054
aa(lp3055
g2
ag2401
aS'226'
p3056
aa(lp3057
g2
ag111
aS'236'
p3058
aa(lp3059
g2
ag111
aS'232'
p3060
aa(lp3061
g2
ag111
aS'234'
p3062
aa(lp3063
g2
ag111
aS'238'
p3064
aa(lp3065
g2
ag2417
aS'102'
p3066
aa(lp3067
g2
ag2396
aS'011'
p3068
aa(lp3069
g2
ag190
aS'072'
p3070
aa(lp3071
g2
ag2430
aS'235'
p3072
aa(lp3073
g2
ag111
aS'350'
p3074
aa(lp3075
g2
ag111
aS'348'
p3076
aa(lp3077
g2
ag125
aS'206'
p3078
aa(lp3079
g2
ag125
aS'205'
p3080
aa(lp3081
g2
ag2417
aS'331'
p3082
aa(lp3083
g2
ag2519
aS'522'
p3084
aa(lp3085
g2
ag122
aS'601'
p3086
aa(lp3087
g2
ag122
aS'612'
p3088
aa(lp3089
g2
ag122
aS'602'
p3090
aa(lp3091
g2
ag2430
aS'601'
p3092
aa(lp3093
g2
ag2430
aS'632'
p3094
aa(lp3095
g2
ag154
aS'201N'
p3096
aa(lp3097
g2
ag2401
aS'426'
p3098
aa(lp3099
g2
ag2401
aS'425'
p3100
aa(lp3101
g2
ag2401
aS'222'
p3102
aa(lp3103
g2
ag119
aS'135'
p3104
aa(lp3105
g2
ag111
aS'153'
p3106
aa(lp3107
g2
ag2401
aS'322'
p3108
aa(lp3109
g2
ag111
aS'364'
p3110
aa(lp3111
g2
ag111
aS'362'
p3112
aa(lp3113
g2
ag111
aS'326'
p3114
aa(lp3115
g2
ag2401
aS'413'
p3116
aa(lp3117
g2
ag157
aS'122'
p3118
aa(lp3119
g2
ag157
aS'A56'
p3120
aa(lp3121
g2
ag111
aS'148'
p3122
aa(lp3123
g2
ag2401
aS'318'
p3124
aa(lp3125
g2
ag154
aS'301N'
p3126
aa(lp3127
g2
ag116
aS'402'
p3128
aa(lp3129
g2
ag157
aS'123'
p3130
aa(lp3131
g2
ag2417
aS'333'
p3132
aa(lp3133
g2
ag111
aS'104'
p3134
aa(lp3135
g2
ag2410
aS'233'
p3136
aa(lp3137
g2
ag2430
aS'435'
p3138
aa(lp3139
g2
ag2401
aS'117'
p3140
aa(lp3141
g2
ag2401
aS'114'
p3142
aa(lp3143
g2
ag111
aS'360'
p3144
aa(lp3145
g2
ag111
aS'124'
p3146
aa(lp3147
g2
ag111
aS'126'
p3148
aa(lp3149
g2
ag111
aS'440'
p3150
aa(lp3151
g2
ag2519
aS'621'
p3152
aa(lp3153
g2
ag125
aS'207'
p3154
aa(lp3155
g2
ag2430
aS'231'
p3156
aa(lp3157
g2
ag2396
aS'032'
p3158
aa(lp3159
g2
ag111
aS'347'
p3160
aa(lp3161
g2
ag2410
aS'141'
p3162
aa(lp3163
g2
ag111
aS'208'
p3164
aa(lp3165
g2
ag2519
aS'617'
p3166
aa(lp3167
g2
ag154
aS'401S'
p3168
aa(lp3169
g2
ag125
aS'134'
p3170
aa(lp3171
g2
ag154
aS'302S'
p3172
aa(lp3173
g2
ag111
aS'268'
p3174
aa(lp3175
g2
ag122
aS'323'
p3176
aa(lp3177
g2
ag2410
aS'102'
p3178
aa(lp3179
g2
ag2519
aS'614'
p3180
aa(lp3181
g2
ag111
aS'247'
p3182
aa(lp3183
g2
ag157
aS'121'
p3184
aa(lp3185
g2
ag119
aS'413'
p3186
aa(lp3187
g2
ag2401
aS'420'
p3188
aa(lp3189
g2
ag122
aS'641'
p3190
aa(lp3191
g2
ag2401
aS'422'
p3192
aa(lp3193
g2
ag116
aS'313'
p3194
aa(lp3195
g2
ag116
aS'314'
p3196
aa(lp3197
g2
ag190
aS'308'
p3198
aa(lp3199
g2
ag2401
aS'319'
p3200
aa(lp3201
g2
ag116
aS'413'
p3202
aa(lp3203
g2
ag116
aS'315'
p3204
aa(lp3205
g2
ag122
aS'422'
p3206
aa(lp3207
g2
ag111
aS'114'
p3208
aa(lp3209
g2
ag2417
aS'323'
p3210
aa(lp3211
g2
ag2417
aS'124'
p3212
aa(lp3213
g2
ag116
aS'411'
p3214
aa(lp3215
g2
ag125
aS'233'
p3216
aa(lp3217
g2
ag111
aS'156'
p3218
aa(lp3219
g2
ag2519
aS'531'
p3220
aa(lp3221
g2
ag111
aS'254'
p3222
aa(lp3223
g2
ag2401
aS'121'
p3224
aa(lp3225
g2
ag157
aS'143'
p3226
aa(lp3227
g2
ag125
aS'236'
p3228
aa(lp3229
g2
ag111
aS'222'
p3230
aa(lp3231
g2
ag2401
aS'126'
p3232
aa(lp3233
g2
ag2401
aS'328'
p3234
aa(lp3235
g2
ag125
aS'211'
p3236
aa(lp3237
g2
ag111
aS'142'
p3238
aa(lp3239
g2
ag122
aS'144'
p3240
aa(lp3241
g2
ag111
aS'310'
p3242
aa(lp3243
g2
ag111
aS'316'
p3244
aa(lp3245
g2
ag111
aS'322'
p3246
aa(lp3247
g2
ag111
aS'308'
p3248
aa(lp3249
g2
ag111
aS'318'
p3250
aa(lp3251
g2
ag2430
aS'631'
p3252
aa(lp3253
g2
ag111
aS'370'
p3254
aa(lp3255
g2
ag111
aS'224'
p3256
aa(lp3257
g2
ag111
aS'226'
p3258
aa(lp3259
g2
ag122
aS'741'
p3260
aa(lp3261
g2
ag2417
aS'303'
p3262
aa(lp3263
g2
ag2417
aS'302'
p3264
aa(lp3265
g2
ag111
aS'101'
p3266
aa(lp3267
g2
ag125
aS'231'
p3268
aa(lp3269
g2
ag125
aS'235'
p3270
aa(lp3271
g2
ag2417
aS'301'
p3272
aa(lp3273
g2
ag125
aS'123'
p3274
aa(lp3275
g2
ag116
aS'433'
p3276
aa(lp3277
g2
ag111
aS'106'
p3278
aa(lp3279
g2
ag2417
aS'133'
p3280
aa(lp3281
g2
ag111
aS'108'
p3282
aa(lp3283
g2
ag111
aS'110'
p3284
aa(lp3285
g2
ag2430
aS'112'
p3286
aa(lp3287
g2
ag157
aS'A40'
p3288
aa(lp3289
g2
ag125
aS'133'
p3290
aa(lp3291
g2
ag2430
aS'236'
p3292
aa(lp3293
g2
ag190
aS'311'
p3294
aa(lp3295
g2
ag111
aS'314'
p3296
aa(lp3297
g2
ag2430
aS'311'
p3298
aa(lp3299
g2
ag2430
aS'611'
p3300
aa(lp3301
g2
ag2430
aS'436'
p3302
aa(lp3303
g2
ag111
aS'361'
p3304
aa(lp3305
g2
ag111
aS'242'
p3306
aa(lp3307
g2
ag125
aS'213'
p3308
aa(lp3309
g2
ag125
aS'214'
p3310
aa(lp3311
g2
ag125
aS'218'
p3312
aa(lp3313
g2
ag157
aS'A38'
p3314
aa(lp3315
g2
ag111
aS'307'
p3316
aa(lp3317
g2
ag119
aS'226'
p3318
aa(lp3319
g2
ag190
aS'060'
p3320
aa(lp3321
g2
ag116
aS'214'
p3322
aa(lp3323
g2
ag116
aS'421'
p3324
aa(lp3325
g2
ag111
aS'432'
p3326
aa(lp3327
g2
ag2430
aS'322'
p3328
aa(lp3329
g2
ag2430
aS'321'
p3330
aa(lp3331
g2
ag111
aS'417'
p3332
aa(lp3333
g2
ag111
aS'416'
p3334
aa(lp3335
g2
ag111
aS'418'
p3336
aa(lp3337
g2
ag111
aS'422'
p3338
aa(lp3339
g2
ag2430
aS'414'
p3340
aa(lp3341
g2
ag2410
aS'101'
p3342
aa(lp3343
g2
ag122
aS'134'
p3344
aa(lp3345
g2
ag116
aS'114'
p3346
aa(lp3347
g2
ag111
aS'324'
p3348
aa(lp3349
g2
ag111
aS'301'
p3350
aa(lp3351
g2
ag2430
aS'621'
p3352
aa(lp3353
g2
ag2417
aS'222'
p3354
aa(lp3355
g2
ag119
aS'501'
p3356
aa(lp3357
g2
ag111
aS'332'
p3358
aa(lp3359
g2
ag122
aS'728'
p3360
aa(lp3361
g2
ag2410
aS'413'
p3362
aa(lp3363
g2
ag190
aS'062'
p3364
aa(lp3365
g2
ag2410
aS'117'
p3366
aa(lp3367
g2
ag125
aS'202'
p3368
aa(lp3369
g2
ag111
aS'403'
p3370
aa(lp3371
g2
ag122
aS'719'
p3372
aa(lp3373
g2
ag125
aS'201'
p3374
aa(lp3375
g2
ag190
aS'061'
p3376
aa(lp3377
g2
ag2417
aS'215'
p3378
aa(lp3379
g2
ag2410
aS'322'
p3380
aa(lp3381
g2
ag2417
aS'112'
p3382
aa(lp3383
g2
ag111
aS'374'
p3384
aa(lp3385
g2
ag2410
aS'311'
p3386
aa(lp3387
g2
ag2410
aS'213'
p3388
aa(lp3389
g2
ag122
aS'141'
p3390
aa(lp3391
g2
ag111
aS'413'
p3392
aa(lp3393
g2
ag111
aS'415'
p3394
aa(lp3395
g2
ag2396
aS'031'
p3396
aa(lp3397
g2
ag111
aS'406'
p3398
aa(lp3399
g2
ag111
aS'410'
p3400
aa(lp3401
g2
ag111
aS'404'
p3402
aa(lp3403
g2
ag154
aS'213'
p3404
aa(lp3405
g2
ag111
aS'372'
p3406
aa(lp3407
g2
ag2410
aS'203'
p3408
aa(lp3409
g2
ag2410
aS'202'
p3410
aa(lp3411
g2
ag2417
aS'306'
p3412
aa(lp3413
g2
ag2430
aS'612'
p3414
aa(lp3415
g2
ag2401
aS'212'
p3416
aa(lp3417
g2
ag2396
aS'010'
p3418
aa(lp3419
g2
ag2417
aS'308'
p3420
aa(lp3421
g2
ag119
aS'512'
p3422
aa(lp3423
g2
ag122
aS'715'
p3424
aa(lp3425
g2
ag2417
aS'312'
p3426
aa(lp3427
g2
ag2410
aS'224'
p3428
aa(lp3429
g2
ag2417
aS'122'
p3430
aa(lp3431
g2
ag122
aS'711'
p3432
aa(lp3433
g2
ag122
aS'713'
p3434
aa(lp3435
g2
ag111
aS'444'
p3436
aa(lp3437
g2
ag157
aS'134'
p3438
aa(lp3439
g2
ag111
aS'149'
p3440
aa(lp3441
g2
ag2430
aS'122'
p3442
aa(lp3443
g2
ag111
aS'366'
p3444
aa(lp3445
g2
ag190
aS'T06'
p3446
aa(lp3447
g2
ag111
aS'368'
p3448
aa(lp3449
g2
ag154
aS'313'
p3450
aa(lp3451
g2
ag111
aS'353'
p3452
aa(lp3453
g2
ag111
aS'107'
p3454
aa(lp3455
g2
ag111
aS'430'
p3456
aa(lp3457
g2
ag111
aS'437'
p3458
aa(lp3459
g2
ag122
aS'712'
p3460
aa(lp3461
g2
ag122
aS'705'
p3462
aa(lp3463
g2
ag122
aS'701'
p3464
aa(lp3465
g2
ag111
aS'435'
p3466
aa(lp3467
g2
ag111
aS'439'
p3468
aa(lp3469
g2
ag122
aS'333'
p3470
aa(lp3471
g2
ag111
aS'349'
p3472
aa(lp3473
g2
ag111
aS'407'
p3474
aa(lp3475
g2
ag111
aS'207'
p3476
aa(lp3477
S'MATHEY'
p3478
ag111
aS'447'
p3479
aa(lp3480
g2
ag111
aS'228'
p3481
aa(lp3482
g2
ag111
aS'147'
p3483
aa(lp3484
g2
ag111
aS'405'
p3485
aa(lp3486
g2
ag122
aS'716'
p3487
aa(lp3488
g2
ag122
aS'717'
p3489
aa(lp3490
g2
ag2401
aS'127'
p3491
aa(lp3492
g2
ag2396
aS'021'
p3493
aa(lp3494
g2
ag116
aS'223'
p3495
aa(lp3496
g2
ag2410
aS'225'
p3497
aa(lp3498
g2
ag2410
aS'226'
p3499
aa(lp3500
g2
ag2410
aS'215'
p3501
aa(lp3502
g2
ag122
aS'702'
p3503
aa(lp3504
g2
ag119
aS'236'
p3505
aa(lp3506
g2
ag122
aS'703'
p3507
aa(lp3508
g2
ag2401
aS'427'
p3509
aa(lp3510
g2
ag190
aS'063'
p3511
aa(lp3512
g2
ag2519
aS'616'
p3513
aa(lp3514
g2
ag2430
aS'211'
p3515
aa(lp3516
g2
ag154
aS'303'
p3517
aa(lp3518
g2
ag2410
aS'119'
p3519
aa(lp3520
g2
ag116
aS'121'
p3521
aa(lp3522
g2
ag157
aS'097'
p3523
aa(lp3524
g2
ag122
aS'233'
p3525
aa(lp3526
g2
ag116
aS'423'
p3527
aa(lp3528
g2
ag2401
aS'228'
p3529
aa(lp3530
g2
ag122
aS'232'
p3531
aa(lp3532
g2
ag122
aS'432'
p3533
aa(lp3534
g2
ag119
aS'321'
p3535
aa(lp3536
g2
ag119
aS'324'
p3537
aa(lp3538
g2
ag122
aS'725'
p3539
aa(lp3540
g2
ag190
aS'312'
p3541
aa(lp3542
g2
ag122
aS'724'
p3543
aa(lp3544
g2
ag122
aS'626'
p3545
aa(lp3546
g2
ag125
aS'232'
p3547
aa(lp3548
g2
ag125
aS'222A'
p3549
aa(lp3550
g2
ag125
aS'223'
p3551
aa(lp3552
g2
ag190
aS'T03'
p3553
aa(lp3554
g2
ag2410
aS'223A'
p3555
aa(lp3556
g2
ag125
aS'230'
p3557
aa(lp3558
g2
ag125
aS'131'
p3559
aa(lp3560
g2
ag2430
aS'312'
p3561
aa(lp3562
g2
ag2410
aS'334'
p3563
aa(lp3564
g2
ag190
aS'088'
p3565
aa(lp3566
g2
ag2417
aS'329'
p3567
aa(lp3568
g2
ag2417
aS'114'
p3569
aa(lp3570
g2
ag2401
aS'419'
p3571
aa(lp3572
g2
ag122
aS'439'
p3573
aa(lp3574
g2
ag2519
aS'534'
p3575
aa(lp3576
g2
ag2410
aS'232'
p3577
aa(lp3578
g2
ag116
aS'112'
p3579
aa(lp3580
g2
ag122
aS'743'
p3581
aa(lp3582
g2
ag2410
aS'321'
p3583
aa(lp3584
g2
ag2396
aS'407'
p3585
aa(lp3586
g2
ag2396
aS'020'
p3587
aa(lp3588
g2
ag2430
aS'121'
p3589
aa(lp3590
g2
ag2430
aS'522'
p3591
aa(lp3592
g2
ag2410
aS'124'
p3593
aa(lp3594
g2
ag2410
aS'121'
p3595
aa(lp3596
g2
ag116
aS'311'
p3597
aa(lp3598
g2
ag122
aS'143'
p3599
aa(lp3600
g2
ag125
aS'234'
p3601
aa(lp3602
g2
ag125
aS'323'
p3603
aa(lp3604
g2
ag2410
aS'301'
p3605
aa(lp3606
g2
ag2417
aS'327'
p3607
aa(lp3608
g2
ag122
aS'441A'
p3609
aa(lp3610
g2
ag2401
aS'227'
p3611
aa(lp3612
g2
ag125
aS'227'
p3613
aa(lp3614
g2
ag125
aS'332'
p3615
aa(lp3616
g2
ag2410
aS'131'
p3617
aa(lp3618
g2
ag2417
aS'221'
p3619
aa(lp3620
g2
ag125
aS'331'
p3621
aa(lp3622
g2
ag125
aS'228'
p3623
aa(lp3624
g2
ag2519
aS'612'
p3625
aa(lp3626
g2
ag122
aS'440'
p3627
aa(lp3628
g2
ag2430
aS'622'
p3629
aa(lp3630
g2
ag122
aS'314'
p3631
aa(lp3632
g2
ag2430
aS'221'
p3633
aa(lp3634
g2
ag116
aS'102'
p3635
aa(lp3636
g2
ag2417
aS'322'
p3637
aa(lp3638
g2
ag2430
aS'623'
p3639
aa(lp3640
g2
ag2430
aS'222'
p3641
aa(lp3642
g2
ag122
aS'442'
p3643
aa(lp3644
g2
ag2430
aS'613'
p3645
aa(lp3646
g2
ag157
aS'101'
p3647
aa(lp3648
g2
ag2410
aS'222'
p3649
aa(lp3650
g2
ag122
aS'230'
p3651
aa(lp3652
g2
ag2410
aS'122'
p3653
aa(lp3654
g2
ag2430
aS'422'
p3655
aa(lp3656
g2
ag2430
aS'212'
p3657
aa(lp3658
g2
ag119
aS'535'
p3659
aa(lp3660
g2
ag2430
aS'412'
p3661
aa(lp3662
g2
ag125
aS'113'
p3663
aa(lp3664
g2
ag116
aS'431'
p3665
aa(lp3666
g2
ag2401
aS'418'
p3667
aa(lp3668
g2
ag2417
aS'121'
p3669
aa(lp3670
g2
ag2430
aS'111'
p3671
aa(lp3672
g2
ag122
aS'131'
p3673
aa(lp3674
g2
ag2430
aS'402'
p3675
aa(lp3676
g2
ag119
aS'502'
p3677
aa(lp3678
g2
ag2410
aS'118'
p3679
aa(lp3680
g2
ag122
aS'121'
p3681
aa(lp3682
g2
ag157
aS'103'
p3683
aa(lp3684
g2
ag157
aS'145'
p3685
aa(lp3686
g2
ag2410
aS'133'
p3687
aa(lp3688
g2
ag2401
aS'122'
p3689
aa(lp3690
g2
ag2410
aS'104'
p3691
aa(lp3692
g2
ag2410
aS'125'
p3693
aa(lp3694
g2
ag125
aS'114'
p3695
aa(lp3696
g2
ag122
aS'443'
p3697
aa(lp3698
g2
ag2401
aS'128'
p3699
aa(lp3700
g2
ag119
aS'213'
p3701
aa(lp3702
g2
ag2417
aS'311'
p3703
aa(lp3704
g2
ag122
aS'614'
p3705
aa(lp3706
g2
ag122
aS'734'
p3707
aa(lp3708
g2
ag122
aS'718'
p3709
aa(lp3710
g2
ag2417
aS'304'
p3711
aa(lp3712
g2
ag2519
aS'631'
p3713
aa(lp3714
g2
ag125
aS'112'
p3715
aa(lp3716
g2
ag125
aS'111'
p3717
aa(lp3718
g2
ag157
aS'091'
p3719
aa(lp3720
g2
ag2401
aS'221'
p3721
aa(lp3722
g2
ag157
aS'A54'
p3723
aa(lp3724
g2
ag157
aS'A48'
p3725
aa(lp3726
g2
ag2417
aS'111'
p3727
aa(lp3728
g2
ag125
aS'124'
p3729
aa(lp3730
g2
ag2401
aS'320'
p3731
aa(lp3732
g2
ag2401
aS'327'
p3733
aa(lp3734
g2
ag122
aS'435'
p3735
aa(lp3736
g2
ag2417
aS'131'
p3737
aa(lp3738
g2
ag125
aS'333'
p3739
aa(lp3740
g2
ag116
aS'432'
p3741
aa(lp3742
g2
ag125
aS'122'
p3743
aa(lp3744
g2
ag157
aS'105'
p3745
aa(lp3746
g2
ag2410
aS'212'
p3747
aa(lp3748
g2
ag116
aS'321'
p3749
aa(lp3750
g2
ag2401
aS'112'
p3751
aa(lp3752
g2
ag2401
aS'211'
p3753
aa(lp3754
g2
ag2401
aS'412'
p3755
aa(lp3756
g2
ag2401
aS'428'
p3757
aa(lp3758
g2
ag2401
aS'421'
p3759
aa(lp3760
g2
ag122
aS'428'
p3761
aa(lp3762
g2
ag122
aS'242'
p3763
aa(lp3764
g2
ag2417
aS'326'
p3765
aa(lp3766
g2
ag116
aS'113'
p3767
aa(lp3768
g2
ag125
aS'302'
p3769
aa(lp3770
g2
ag2401
aS'311'
p3771
aa(lp3772
g2
ag2519
aS'625'
p3773
aa(lp3774
g2
ag157
aS'093'
p3775
aa(lp3776
g2
ag2519
aS'632'
p3777
aa(lp3778
g2
ag2519
aS'521'
p3779
aa(lp3780
g2
ag2519
aS'511'
p3781
aa.