(lp0
(lp1
S'UPPERCLASS'
p2
aS'SPELMAN'
p3
aS'024'
p4
aa(lp5
g2
ag3
aS'023'
p6
aa(lp7
g2
ag3
aS'084'
p8
aa(lp9
g2
ag3
aS'054'
p10
aa(lp11
g2
ag3
aS'076'
p12
aa(lp13
g2
ag3
aS'052'
p14
aa(lp15
g2
ag3
aS'021'
p16
aa(lp17
g2
ag3
aS'022'
p18
aa(lp19
g2
ag3
aS'056'
p20
aa(lp21
g2
ag3
aS'055'
p22
aa(lp23
g2
ag3
aS'011'
p24
aa(lp25
g2
ag3
aS'045'
p26
aa(lp27
g2
ag3
aS'046'
p28
aa(lp29
g2
ag3
aS'012'
p30
aa(lp31
g2
aS'SCULLY'
p32
aS'265'
p33
aa(lp34
g2
ag3
aS'017'
p35
aa(lp36
g2
aS'DOD'
p37
aS'115'
p38
aa(lp39
g2
ag32
aS'267'
p40
aa(lp41
g2
ag3
aS'068'
p42
aa(lp43
g2
aS'WILF'
p44
aS'E408'
p45
aa(lp46
g2
ag3
aS'015'
p47
aa(lp48
g2
ag44
aS'E406'
p49
aa(lp50
g2
aS'PYNE'
p51
aS'113'
p52
aa(lp53
g2
ag3
aS'082'
p54
aa(lp55
g2
aS'1903'
p56
aS'214'
p57
aa(lp58
g2
ag3
aS'026'
p59
aa(lp60
g2
ag37
aS'112'
p61
aa(lp62
g2
ag32
aS'170'
p63
aa(lp64
g2
ag3
aS'034'
p65
aa(lp66
g2
ag3
aS'035'
p67
aa(lp68
g2
ag3
aS'043'
p69
aa(lp70
g2
aS'LITTLE'
p71
aS'A34'
p72
aa(lp73
g2
ag44
aS'E401'
p74
aa(lp75
g2
ag51
aS'112'
p76
aa(lp77
g2
ag3
aS'063'
p78
aa(lp79
g2
ag3
aS'078'
p80
aa(lp81
g2
ag3
aS'065'
p82
aa(lp83
g2
ag3
aS'066'
p84
aa(lp85
g2
aS'PATTON'
p86
aS'086'
p87
aa(lp88
g2
ag32
aS'273'
p89
aa(lp90
g2
ag3
aS'073'
p91
aa(lp92
g2
ag3
aS'064'
p93
aa(lp94
g2
ag71
aS'A24'
p95
aa(lp96
g2
ag71
aS'A36'
p97
aa(lp98
g2
ag3
aS'041'
p99
aa(lp100
g2
ag37
aS'114'
p101
aa(lp102
g2
ag3
aS'053'
p103
aa(lp104
g2
ag3
aS'048'
p105
aa(lp106
g2
ag37
aS'111'
p107
aa(lp108
g2
ag3
aS'036'
p109
aa(lp110
g2
ag3
aS'077'
p111
aa(lp112
g2
ag32
aS'174'
p113
aa(lp114
g2
ag3
aS'037'
p115
aa(lp116
g2
ag3
aS'038'
p117
aa(lp118
g2
ag32
aS'260'
p119
aa(lp120
g2
ag3
aS'075'
p121
aa(lp122
g2
ag32
aS'262'
p123
aa(lp124
g2
ag86
aS'071'
p125
aa(lp126
g2
ag37
aS'101'
p127
aa(lp128
g2
ag3
aS'032'
p129
aa(lp130
g2
aS'LOCKHART'
p131
aS'225'
p132
aa(lp133
g2
ag131
aS'224'
p134
aa(lp135
g2
ag3
aS'014'
p136
aa(lp137
g2
ag3
aS'074'
p138
aa(lp139
g2
ag37
aS'104'
p140
aa(lp141
g2
ag3
aS'061'
p142
aa(lp143
g2
ag3
aS'025'
p144
aa(lp145
g2
ag32
aS'168'
p146
aa(lp147
g2
ag3
aS'086'
p148
aa(lp149
g2
ag3
aS'085'
p150
aa(lp151
g2
aS'HENRY'
p152
aS'103'
p153
aa(lp154
g2
ag3
aS'016'
p155
aa(lp156
g2
ag3
aS'013'
p157
aa(lp158
g2
ag131
aS'303'
p159
aa(lp160
g2
ag3
aS'081'
p161
aa(lp162
g2
ag3
aS'047'
p163
aa(lp164
g2
ag3
aS'051'
p165
aa(lp166
g2
ag3
aS'083'
p167
aa(lp168
g2
ag32
aS'172'
p169
aa(lp170
g2
ag3
aS'067'
p171
aa(lp172
g2
ag152
aS'102'
p173
aa(lp174
g2
ag152
aS'101'
p175
aa(lp176
g2
ag37
aS'105'
p177
aa(lp178
g2
ag3
aS'018'
p179
aa(lp180
g2
ag131
aS'302'
p181
aa(lp182
g2
ag51
aS'121'
p183
aa(lp184
g2
ag3
aS'071'
p185
aa(lp186
g2
ag51
aS'115'
p187
aa(lp188
g2
ag51
aS'116'
p189
aa(lp190
g2
ag44
aS'E403'
p191
aa(lp192
g2
ag131
aS'235'
p193
aa(lp194
g2
ag131
aS'231'
p195
aa(lp196
g2
ag32
aS'271'
p197
aa(lp198
g2
ag37
aS'116'
p199
aa(lp200
g2
ag37
aS'106'
p201
aa(lp202
g2
ag37
aS'102'
p203
aa(lp204
g2
ag37
aS'107'
p205
aa(lp206
g2
ag44
aS'E405'
p207
aa(lp208
g2
ag32
aS'367'
p209
aa(lp210
g2
ag131
aS'304'
p211
aa(lp212
g2
ag86
aS'085'
p213
aa(lp214
g2
ag131
aS'222'
p215
aa(lp216
g2
ag131
aS'221'
p217
aa(lp218
g2
ag131
aS'323'
p219
aa(lp220
g2
ag131
aS'322'
p221
aa(lp222
g2
ag131
aS'301'
p223
aa(lp224
g2
ag86
aS'082'
p225
aa(lp226
g2
ag51
aS'132'
p227
aa(lp228
g2
ag51
aS'114'
p229
aa(lp230
g2
ag131
aS'233'
p231
aa(lp232
g2
ag71
aS'A14'
p233
aa(lp234
g2
ag71
aS'A16'
p235
aa(lp236
g2
ag37
aS'117'
p237
aa(lp238
g2
ag131
aS'324'
p239
aa(lp240
g2
ag37
aS'113'
p241
aa(lp242
g2
ag51
aS'124'
p243
aa(lp244
S'WHITMAN'
p245
aS'HARGADON'
p246
aS'G304B'
p247
aa(lp248
S'BUTLER'
p249
aS'BLOOMBERG'
p250
aS'112'
p251
aa(lp252
S'MATHEY'
p253
ag71
aS'047'
p254
aa(lp255
S'MATHEY'
p256
ag71
aS'062'
p257
aa(lp258
S'WHITMAN'
p259
aS'WENDELL C'
p260
aS'B407'
p261
aa(lp262
S'WHITMAN'
p263
ag260
aS'C208'
p264
aa(lp265
S'MATHEY'
p266
ag71
aS'055'
p267
aa(lp268
S'MATHEY'
p269
ag71
aS'057'
p270
aa(lp271
S'BUTLER'
p272
aS'1976'
p273
aS'D204'
p274
aa(lp275
S'WHITMAN'
p276
aS'BAKER'
p277
aS'E113'
p278
aa(lp279
S'MATHEY'
p280
ag71
aS'087'
p281
aa(lp282
S'WHITMAN'
p283
ag246
aS'G203B'
p284
aa(lp285
S'BUTLER'
p286
ag44
aS'E103'
p287
aa(lp288
S'MATHEY'
p289
ag71
aS'085'
p290
aa(lp291
S'WHITMAN'
p292
ag277
aS'E206'
p293
aa(lp294
S'WHITMAN'
p295
ag246
aS'G309'
p296
aa(lp297
S'WHITMAN'
p298
ag277
aS'S204'
p299
aa(lp300
S'MATHEY'
p301
aS'EDWARDS'
p302
aS'108'
p303
aa(lp304
S'BUTLER'
p305
ag250
aS'425'
p306
aa(lp307
S'MATHEY'
p308
ag71
aS'395'
p309
aa(lp310
S'WHITMAN'
p311
ag277
aS'S305'
p312
aa(lp313
S'WHITMAN'
p314
ag277
aS'E105'
p315
aa(lp316
S'BUTLER'
p317
aS'BOGLE'
p318
aS'C205'
p319
aa(lp320
S'BUTLER'
p321
ag318
aS'C203'
p322
aa(lp323
S'MATHEY'
p324
ag71
aS'385'
p325
aa(lp326
S'MATHEY'
p327
ag302
aS'113'
p328
aa(lp329
S'MATHEY'
p330
ag302
aS'405'
p331
aa(lp332
S'WHITMAN'
p333
ag277
aS'S104'
p334
aa(lp335
S'BUTLER'
p336
ag273
aS'D114'
p337
aa(lp338
S'MATHEY'
p339
ag71
aS'318'
p340
aa(lp341
S'WHITMAN'
p342
ag246
aS'G311'
p343
aa(lp344
S'BUTLER'
p345
ag250
aS'270'
p346
aa(lp347
S'BUTLER'
p348
ag250
aS'474'
p349
aa(lp350
S'BUTLER'
p351
ag318
aS'C105'
p352
aa(lp353
S'BUTLER'
p354
ag318
aS'C103'
p355
aa(lp356
S'WHITMAN'
p357
ag246
aS'G401'
p358
aa(lp359
S'WHITMAN'
p360
ag246
aS'G403'
p361
aa(lp362
S'WHITMAN'
p363
ag246
aS'G404'
p364
aa(lp365
S'BUTLER'
p366
ag250
aS'277'
p367
aa(lp368
S'MATHEY'
p369
aS'BLAIR'
p370
aS'B71'
p371
aa(lp372
S'MATHEY'
p373
ag71
aS'303'
p374
aa(lp375
S'BUTLER'
p376
ag250
aS'124'
p377
aa(lp378
S'BUTLER'
p379
ag250
aS'279'
p380
aa(lp381
S'WHITMAN'
p382
ag277
aS'E317'
p383
aa(lp384
S'BUTLER'
p385
ag250
aS'430'
p386
aa(lp387
S'MATHEY'
p388
ag71
aS'389'
p389
aa(lp390
S'MATHEY'
p391
aS'JOLINE'
p392
aS'225'
p393
aa(lp394
S'WHITMAN'
p395
ag260
aS'C210'
p396
aa(lp397
S'WHITMAN'
p398
ag260
aS'C202'
p399
aa(lp400
S'WHITMAN'
p401
ag260
aS'C206'
p402
aa(lp403
S'BUTLER'
p404
aS'1967'
p405
aS'B205'
p406
aa(lp407
S'BUTLER'
p408
ag405
aS'B209'
p409
aa(lp410
S'WHITMAN'
p411
ag260
aS'C212'
p412
aa(lp413
S'WHITMAN'
p414
ag260
aS'C214'
p415
aa(lp416
S'BUTLER'
p417
ag250
aS'307'
p418
aa(lp419
S'MATHEY'
p420
ag71
aS'083'
p421
aa(lp422
S'BUTLER'
p423
ag250
aS'305'
p424
aa(lp425
S'WHITMAN'
p426
aS'FISHER'
p427
aS'A224'
p428
aa(lp429
S'BUTLER'
p430
ag250
aS'192'
p431
aa(lp432
S'WHITMAN'
p433
ag260
aS'B408'
p434
aa(lp435
S'WHITMAN'
p436
ag260
aS'C216'
p437
aa(lp438
S'WHITMAN'
p439
ag277
aS'S205'
p440
aa(lp441
S'BUTLER'
p442
ag405
aS'B309'
p443
aa(lp444
S'WHITMAN'
p445
ag427
aS'A316'
p446
aa(lp447
S'BUTLER'
p448
ag405
aS'B305'
p449
aa(lp450
S'BUTLER'
p451
ag250
aS'451'
p452
aa(lp453
S'MATHEY'
p454
aS'HAMILTON'
p455
aS'113'
p456
aa(lp457
S'WHITMAN'
p458
aS'LAURITZEN'
p459
aS'D108'
p460
aa(lp461
S'BUTLER'
p462
ag250
aS'463'
p463
aa(lp464
S'BUTLER'
p465
ag250
aS'405'
p466
aa(lp467
S'BUTLER'
p468
ag250
aS'334'
p469
aa(lp470
S'WHITMAN'
p471
ag427
aS'A323'
p472
aa(lp473
S'BUTLER'
p474
ag250
aS'379'
p475
aa(lp476
S'WHITMAN'
p477
ag277
aS'S203'
p478
aa(lp479
S'WHITMAN'
p480
ag427
aS'A214'
p481
aa(lp482
S'BUTLER'
p483
ag250
aS'409'
p484
aa(lp485
S'BUTLER'
p486
ag250
aS'401'
p487
aa(lp488
g2
ag427
aS'A318'
p489
aa(lp490
S'BUTLER'
p491
ag250
aS'434'
p492
aa(lp493
S'BUTLER'
p494
ag44
aS'E104'
p495
aa(lp496
S'BUTLER'
p497
aS'YOSELOFF'
p498
aS'A207'
p499
aa(lp500
S'BUTLER'
p501
ag250
aS'479'
p502
aa(lp503
S'MATHEY'
p504
ag455
aS'121'
p505
aa(lp506
S'BUTLER'
p507
ag302
aS'415'
p508
aa(lp509
S'MATHEY'
p510
ag302
aS'114'
p511
aa(lp512
S'BUTLER'
p513
ag250
aS'269'
p514
aa(lp515
S'WHITMAN'
p516
ag277
aS'S303'
p517
aa(lp518
S'WHITMAN'
p519
aS'1981'
p520
aS'F201'
p521
aa(lp522
S'BUTLER'
p523
ag250
aS'449'
p524
aa(lp525
S'BUTLER'
p526
ag44
aS'E308'
p527
aa(lp528
S'BUTLER'
p529
ag250
aS'193'
p530
aa(lp531
S'WHITMAN'
p532
ag459
aS'D304'
p533
aa(lp534
S'BUTLER'
p535
ag250
aS'311'
p536
aa(lp537
S'BUTLER'
p538
ag44
aS'E208'
p539
aa(lp540
S'BUTLER'
p541
ag44
aS'E206'
p542
aa(lp543
S'BUTLER'
p544
ag44
aS'E105'
p545
aa(lp546
S'BUTLER'
p547
ag44
aS'E107'
p548
aa(lp549
g2
ag520
aS'F303'
p550
aa(lp551
S'WHITMAN'
p552
ag520
aS'F301'
p553
aa(lp554
S'WHITMAN'
p555
ag277
aS'E213'
p556
aa(lp557
S'BUTLER'
p558
ag44
aS'E301'
p559
aa(lp560
S'BUTLER'
p561
ag44
aS'E303'
p562
aa(lp563
S'BUTLER'
p564
ag250
aS'369'
p565
aa(lp566
S'BUTLER'
p567
ag250
aS'429'
p568
aa(lp569
S'WHITMAN'
p570
ag427
aS'A223'
p571
aa(lp572
S'BUTLER'
p573
ag250
aS'447'
p574
aa(lp575
S'WHITMAN'
p576
ag260
aS'B212'
p577
aa(lp578
S'WHITMAN'
p579
ag520
aS'F104'
p580
aa(lp581
S'BUTLER'
p582
ag250
aS'349'
p583
aa(lp584
S'BUTLER'
p585
ag250
aS'309'
p586
aa(lp587
S'WHITMAN'
p588
ag277
aS'E217'
p589
aa(lp590
S'BUTLER'
p591
ag250
aS'314'
p592
aa(lp593
S'BUTLER'
p594
ag250
aS'271'
p595
aa(lp596
S'MATHEY'
p597
ag392
aS'235'
p598
aa(lp599
g2
ag51
aS'125'
p600
aa(lp601
S'BUTLER'
p602
ag250
aS'348'
p603
aa(lp604
S'MATHEY'
p605
ag302
aS'105'
p606
aa(lp607
g2
ag520
aS'F225'
p608
aa(lp609
S'MATHEY'
p610
ag392
aS'212'
p611
aa(lp612
S'WHITMAN'
p613
aS'MURLEY-PIVIROTTO'
p614
aS'T403'
p615
aa(lp616
S'WHITMAN'
p617
ag459
aS'D314'
p618
aa(lp619
S'BUTLER'
p620
ag250
aS'310'
p621
aa(lp622
S'WHITMAN'
p623
ag427
aS'A201'
p624
aa(lp625
S'BUTLER'
p626
ag250
aS'456'
p627
aa(lp628
S'BUTLER'
p629
ag250
aS'411'
p630
aa(lp631
S'BUTLER'
p632
ag250
aS'357'
p633
aa(lp634
S'MATHEY'
p635
ag71
aS'077'
p636
aa(lp637
S'MATHEY'
p638
ag392
aS'412'
p639
aa(lp640
S'WHITMAN'
p641
ag246
aS'G301'
p642
aa(lp643
S'WHITMAN'
p644
ag459
aS'D306'
p645
aa(lp646
S'BUTLER'
p647
ag250
aS'121'
p648
aa(lp649
S'BUTLER'
p650
ag250
aS'301'
p651
aa(lp652
S'WHITMAN'
p653
ag520
aS'F102'
p654
aa(lp655
S'BUTLER'
p656
ag250
aS'177'
p657
aa(lp658
S'BUTLER'
p659
ag250
aS'274'
p660
aa(lp661
S'WHITMAN'
p662
ag520
aS'F101'
p663
aa(lp664
S'MATHEY'
p665
ag392
aS'422'
p666
aa(lp667
S'WHITMAN'
p668
ag246
aS'G405'
p669
aa(lp670
S'BUTLER'
p671
ag250
aS'407'
p672
aa(lp673
S'WHITMAN'
p674
ag427
aS'A101'
p675
aa(lp676
S'WHITMAN'
p677
ag520
aS'F027'
p678
aa(lp679
S'MATHEY'
p680
ag71
aS'302'
p681
aa(lp682
S'MATHEY'
p683
ag71
aS'048'
p684
aa(lp685
S'WHITMAN'
p686
ag260
aS'C215'
p687
aa(lp688
g2
ag44
aS'E106'
p689
aa(lp690
S'MATHEY'
p691
ag302
aS'115'
p692
aa(lp693
S'WHITMAN'
p694
ag246
aS'G205'
p695
aa(lp696
S'MATHEY'
p697
ag392
aS'332'
p698
aa(lp699
S'WHITMAN'
p700
ag246
aS'G407A'
p701
aa(lp702
S'MATHEY'
p703
ag302
aS'111'
p704
aa(lp705
S'BUTLER'
p706
ag250
aS'346'
p707
aa(lp708
g2
ag51
aS'133'
p709
aa(lp710
S'BUTLER'
p711
ag250
aS'226'
p712
aa(lp713
S'WHITMAN'
p714
ag520
aS'F025'
p715
aa(lp716
S'MATHEY'
p717
ag302
aS'107'
p718
aa(lp719
S'BUTLER'
p720
ag250
aS'457'
p721
aa(lp722
S'MATHEY'
p723
ag392
aS'333'
p724
aa(lp725
S'BUTLER'
p726
ag250
aS'461'
p727
aa(lp728
S'MATHEY'
p729
ag392
aS'433'
p730
aa(lp731
S'BUTLER'
p732
aS'1915'
p733
aS'411'
p734
aa(lp735
S'MATHEY'
p736
ag370
aS'045'
p737
aa(lp738
S'WHITMAN'
p739
ag427
aS'A225'
p740
aa(lp741
g2
ag246
aS'G203A'
p742
aa(lp743
S'BUTLER'
p744
ag250
aS'281'
p745
aa(lp746
S'BUTLER'
p747
ag44
aS'E203'
p748
aa(lp749
S'BUTLER'
p750
ag44
aS'E201'
p751
aa(lp752
S'WHITMAN'
p753
ag277
aS'E305'
p754
aa(lp755
S'BUTLER'
p756
ag250
aS'278'
p757
aa(lp758
S'MATHEY'
p759
ag71
aS'393'
p760
aa(lp761
S'MATHEY'
p762
ag370
aS'114'
p763
aa(lp764
S'WHITMAN'
p765
ag246
aS'G207'
p766
aa(lp767
S'MATHEY'
p768
ag392
aS'213'
p769
aa(lp770
S'BUTLER'
p771
ag250
aS'302'
p772
aa(lp773
S'MATHEY'
p774
ag370
aS'B52'
p775
aa(lp776
S'MATHEY'
p777
ag370
aS'A02'
p778
aa(lp779
S'BUTLER'
p780
ag273
aS'D216'
p781
aa(lp782
S'MATHEY'
p783
ag302
aS'117'
p784
aa(lp785
S'BUTLER'
p786
ag250
aS'469'
p787
aa(lp788
S'WHITMAN'
p789
ag520
aS'F302'
p790
aa(lp791
g2
ag260
aS'B310'
p792
aa(lp793
S'WHITMAN'
p794
ag260
aS'B312'
p795
aa(lp796
g2
ag260
aS'B210'
p797
aa(lp798
S'WHITMAN'
p799
ag260
aS'B316'
p800
aa(lp801
S'MATHEY'
p802
ag455
aS'221'
p803
aa(lp804
S'BUTLER'
p805
ag250
aS'342'
p806
aa(lp807
S'MATHEY'
p808
ag392
aS'234'
p809
aa(lp810
S'BUTLER'
p811
ag250
aS'276'
p812
aa(lp813
S'BUTLER'
p814
ag250
aS'381'
p815
aa(lp816
S'BUTLER'
p817
ag250
aS'304'
p818
aa(lp819
S'WHITMAN'
p820
ag614
aS'T402'
p821
aa(lp822
S'BUTLER'
p823
ag250
aS'465'
p824
aa(lp825
S'WHITMAN'
p826
ag277
aS'E307'
p827
aa(lp828
S'WHITMAN'
p829
ag277
aS'E205'
p830
aa(lp831
S'WHITMAN'
p832
ag277
aS'E207'
p833
aa(lp834
S'BUTLER'
p835
ag498
aS'A205'
p836
aa(lp837
S'BUTLER'
p838
ag44
aS'E306'
p839
aa(lp840
S'MATHEY'
p841
aS'CAMPBELL'
p842
aS'052'
p843
aa(lp844
S'WHITMAN'
p845
ag277
aS'E223'
p846
aa(lp847
S'BUTLER'
p848
ag250
aS'459'
p849
aa(lp850
S'WHITMAN'
p851
ag277
aS'E221'
p852
aa(lp853
S'WHITMAN'
p854
ag520
aS'F123'
p855
aa(lp856
S'BUTLER'
p857
ag273
aS'D210'
p858
aa(lp859
S'WHITMAN'
p860
ag260
aS'B409'
p861
aa(lp862
S'WHITMAN'
p863
ag246
aS'G304A'
p864
aa(lp865
S'WHITMAN'
p866
ag246
aS'G306'
p867
aa(lp868
S'BUTLER'
p869
ag44
aS'E108'
p870
aa(lp871
S'MATHEY'
p872
ag370
aS'B53'
p873
aa(lp874
g2
ag302
aS'504'
p875
aa(lp876
S'MATHEY'
p877
ag370
aS'B83'
p878
aa(lp879
S'MATHEY'
p880
ag302
aS'106'
p881
aa(lp882
S'WHITMAN'
p883
ag260
aS'C207'
p884
aa(lp885
S'BUTLER'
p886
ag250
aS'402'
p887
aa(lp888
S'MATHEY'
p889
ag71
aS'323'
p890
aa(lp891
S'WHITMAN'
p892
ag459
aS'D110'
p893
aa(lp894
S'WHITMAN'
p895
ag520
aS'F017'
p896
aa(lp897
S'MATHEY'
p898
ag302
aS'109'
p899
aa(lp900
S'BUTLER'
p901
ag250
aS'406'
p902
aa(lp903
S'WHITMAN'
p904
ag520
aS'F023'
p905
aa(lp906
S'WHITMAN'
p907
ag260
aS'B309'
p908
aa(lp909
S'BUTLER'
p910
ag250
aS'303'
p911
aa(lp912
S'MATHEY'
p913
ag392
aS'312'
p914
aa(lp915
S'WHITMAN'
p916
ag260
aS'B318'
p917
aa(lp918
S'BUTLER'
p919
ag250
aS'340'
p920
aa(lp921
S'BUTLER'
p922
ag250
aS'326'
p923
aa(lp924
S'BUTLER'
p925
ag44
aS'E102'
p926
aa(lp927
S'MATHEY'
p928
ag392
aS'214'
p929
aa(lp930
S'WHITMAN'
p931
ag277
aS'E118'
p932
aa(lp933
S'WHITMAN'
p934
ag260
aS'B204'
p935
aa(lp936
S'BUTLER'
p937
ag250
aS'408'
p938
aa(lp939
S'MATHEY'
p940
ag302
aS'110'
p941
aa(lp942
S'WHITMAN'
p943
ag260
aS'C211'
p944
aa(lp945
S'WHITMAN'
p946
ag260
aS'C209'
p947
aa(lp948
S'WHITMAN'
p949
ag277
aS'E427'
p950
aa(lp951
S'WHITMAN'
p952
ag277
aS'E425'
p953
aa(lp954
S'BUTLER'
p955
ag250
aS'241'
p956
aa(lp957
S'MATHEY'
p958
ag455
aS'324'
p959
aa(lp960
S'MATHEY'
p961
ag71
aS'391'
p962
aa(lp963
g2
ag277
aS'E120'
p964
aa(lp965
S'BUTLER'
p966
ag250
aS'350'
p967
aa(lp968
S'BUTLER'
p969
ag250
aS'343'
p970
aa(lp971
S'BUTLER'
p972
ag250
aS'344'
p973
aa(lp974
S'MATHEY'
p975
ag370
aS'B73'
p976
aa(lp977
S'WHITMAN'
p978
ag520
aS'F121'
p979
aa(lp980
S'MATHEY'
p981
ag302
aS'103'
p982
aa(lp983
S'BUTLER'
p984
ag250
aS'436'
p985
aa(lp986
S'BUTLER'
p987
ag250
aS'443'
p988
aa(lp989
S'BUTLER'
p990
ag250
aS'316'
p991
aa(lp992
S'WHITMAN'
p993
ag459
aS'D302'
p994
aa(lp995
S'WHITMAN'
p996
ag459
aS'D106'
p997
aa(lp998
S'WHITMAN'
p999
ag459
aS'D303'
p1000
aa(lp1001
S'BUTLER'
p1002
ag250
aS'404'
p1003
aa(lp1004
S'MATHEY'
p1005
ag71
aS'015'
p1006
aa(lp1007
S'BUTLER'
p1008
ag250
aS'336'
p1009
aa(lp1010
S'BUTLER'
p1011
ag250
aS'243'
p1012
aa(lp1013
S'BUTLER'
p1014
ag250
aS'341'
p1015
aa(lp1016
S'BUTLER'
p1017
ag250
aS'245'
p1018
aa(lp1019
S'BUTLER'
p1020
ag250
aS'445'
p1021
aa(lp1022
S'MATHEY'
p1023
ag392
aS'331'
p1024
aa(lp1025
S'MATHEY'
p1026
ag392
aS'232'
p1027
aa(lp1028
g2
ag250
aS'427'
p1029
aa(lp1030
g2
ag51
aS'122'
p1031
aa(lp1032
S'MATHEY'
p1033
ag71
aS'063'
p1034
aa(lp1035
S'MATHEY'
p1036
ag302
aS'515'
p1037
aa(lp1038
S'MATHEY'
p1039
ag370
aS'305'
p1040
aa(lp1041
S'MATHEY'
p1042
ag392
aS'311'
p1043
aa(lp1044
S'MATHEY'
p1045
ag455
aS'325'
p1046
aa(lp1047
S'MATHEY'
p1048
ag455
aS'322'
p1049
aa(lp1050
S'MATHEY'
p1051
ag392
aS'231'
p1052
aa(lp1053
S'MATHEY'
p1054
ag455
aS'321'
p1055
aa(lp1056
S'MATHEY'
p1057
ag71
aS'381'
p1058
aa(lp1059
S'MATHEY'
p1060
ag455
aS'124'
p1061
aa(lp1062
S'MATHEY'
p1063
ag370
aS'B82'
p1064
aa(lp1065
S'MATHEY'
p1066
ag370
aS'B91'
p1067
aa(lp1068
S'MATHEY'
p1069
ag370
aS'098'
p1070
aa(lp1071
S'MATHEY'
p1072
ag302
aS'502'
p1073
aa(lp1074
S'MATHEY'
p1075
ag370
aS'096'
p1076
aa(lp1077
S'MATHEY'
p1078
ag370
aS'082'
p1079
aa(lp1080
S'MATHEY'
p1081
ag370
aS'095'
p1082
aa(lp1083
S'MATHEY'
p1084
ag370
aS'097'
p1085
aa(lp1086
S'MATHEY'
p1087
ag370
aS'102'
p1088
aa(lp1089
S'MATHEY'
p1090
ag842
aS'065'
p1091
aa(lp1092
S'MATHEY'
p1093
ag71
aS'073'
p1094
aa(lp1095
S'MATHEY'
p1096
ag842
aS'061'
p1097
aa(lp1098
S'MATHEY'
p1099
ag370
aS'093'
p1100
aa(lp1101
S'MATHEY'
p1102
ag370
aS'301'
p1103
aa(lp1104
S'MATHEY'
p1105
ag370
aS'302'
p1106
aa(lp1107
S'MATHEY'
p1108
ag302
aS'513'
p1109
aa(lp1110
S'MATHEY'
p1111
ag842
aS'062'
p1112
aa(lp1113
S'MATHEY'
p1114
ag392
aS'434'
p1115
aa(lp1116
S'MATHEY'
p1117
ag392
aS'334'
p1118
aa(lp1119
S'MATHEY'
p1120
ag302
aS'404'
p1121
aa(lp1122
S'MATHEY'
p1123
ag842
aS'006A'
p1124
aa(lp1125
S'MATHEY'
p1126
ag842
aS'052B'
p1127
aa(lp1128
S'MATHEY'
p1129
ag842
aS'005B'
p1130
aa(lp1131
S'MATHEY'
p1132
ag71
aS'012'
p1133
aa(lp1134
S'MATHEY'
p1135
ag302
aS'116'
p1136
aa(lp1137
S'MATHEY'
p1138
ag302
aS'512'
p1139
aa(lp1140
g2
ag51
aS'135'
p1141
aa(lp1142
S'BUTLER'
p1143
ag250
aS'181'
p1144
aa(lp1145
S'BUTLER'
p1146
ag250
aS'327'
p1147
aa(lp1148
S'BUTLER'
p1149
ag250
aS'371'
p1150
aa(lp1151
S'BUTLER'
p1152
ag250
aS'439'
p1153
aa(lp1154
S'BUTLER'
p1155
ag250
aS'441'
p1156
aa(lp1157
S'BUTLER'
p1158
ag250
aS'191'
p1159
aa(lp1160
S'BUTLER'
p1161
ag250
aS'481'
p1162
aa(lp1163
S'BUTLER'
p1164
ag498
aS'A105'
p1165
aa(lp1166
S'BUTLER'
p1167
ag250
aS'345'
p1168
aa(lp1169
S'BUTLER'
p1170
ag273
aS'D312'
p1171
aa(lp1172
S'BUTLER'
p1173
ag250
aS'132'
p1174
aa(lp1175
S'BUTLER'
p1176
ag250
aS'140'
p1177
aa(lp1178
S'BUTLER'
p1179
ag250
aS'329'
p1180
aa(lp1181
S'BUTLER'
p1182
ag250
aS'182'
p1183
aa(lp1184
S'BUTLER'
p1185
ag250
aS'378'
p1186
aa(lp1187
S'BUTLER'
p1188
ag498
aS'A213'
p1189
aa(lp1190
S'BUTLER'
p1191
ag250
aS'376'
p1192
aa(lp1193
S'BUTLER'
p1194
ag498
aS'A113'
p1195
aa(lp1196
S'BUTLER'
p1197
ag498
aS'A203'
p1198
aa(lp1199
S'BUTLER'
p1200
ag273
aS'D112'
p1201
aa(lp1202
S'BUTLER'
p1203
ag250
aS'467'
p1204
aa(lp1205
S'BUTLER'
p1206
ag498
aS'A202'
p1207
aa(lp1208
S'BUTLER'
p1209
ag250
aS'471'
p1210
aa(lp1211
S'BUTLER'
p1212
ag250
aS'318'
p1213
aa(lp1214
S'BUTLER'
p1215
ag250
aS'323'
p1216
aa(lp1217
S'BUTLER'
p1218
ag250
aS'374'
p1219
aa(lp1220
S'BUTLER'
p1221
ag250
aS'324'
p1222
aa(lp1223
S'BUTLER'
p1224
ag250
aS'320'
p1225
aa(lp1226
S'BUTLER'
p1227
ag250
aS'224'
p1228
aa(lp1229
S'BUTLER'
p1230
ag273
aS'D212'
p1231
aa(lp1232
S'BUTLER'
p1233
ag250
aS'325'
p1234
aa(lp1235
S'BUTLER'
p1236
ag250
aS'322'
p1237
aa(lp1238
S'BUTLER'
p1239
ag250
aS'458'
p1240
aa(lp1241
S'BUTLER'
p1242
ag250
aS'410'
p1243
aa(lp1244
S'BUTLER'
p1245
ag250
aS'423'
p1246
aa(lp1247
S'BUTLER'
p1248
ag250
aS'454'
p1249
aa(lp1250
S'BUTLER'
p1251
ag250
aS'476'
p1252
aa(lp1253
S'BUTLER'
p1254
ag250
aS'478'
p1255
aa(lp1256
S'BUTLER'
p1257
ag498
aS'A208'
p1258
aa(lp1259
S'BUTLER'
p1260
ag405
aS'B313'
p1261
aa(lp1262
S'BUTLER'
p1263
ag405
aS'B214'
p1264
aa(lp1265
S'BUTLER'
p1266
ag405
aS'B204'
p1267
aa(lp1268
S'BUTLER'
p1269
ag273
aS'D106'
p1270
aa(lp1271
S'BUTLER'
p1272
ag733
aS'624'
p1273
aa(lp1274
S'BUTLER'
p1275
ag733
aS'625'
p1276
aa(lp1277
S'BUTLER'
p1278
ag250
aS'356'
p1279
aa(lp1280
S'BUTLER'
p1281
ag250
aS'373'
p1282
aa(lp1283
S'BUTLER'
p1284
ag733
aS'614'
p1285
aa(lp1286
S'BUTLER'
p1287
ag250
aS'473'
p1288
aa(lp1289
S'BUTLER'
p1290
ag733
aS'615'
p1291
aa(lp1292
S'BUTLER'
p1293
ag733
aS'621'
p1294
aa(lp1295
S'BUTLER'
p1296
ag733
aS'622'
p1297
aa(lp1298
S'BUTLER'
p1299
ag733
aS'412'
p1300
aa(lp1301
S'BUTLER'
p1302
ag405
aS'B304'
p1303
aa(lp1304
S'BUTLER'
p1305
ag44
aS'E205'
p1306
aa(lp1307
S'BUTLER'
p1308
ag44
aS'E202'
p1309
aa(lp1310
S'BUTLER'
p1311
ag250
aS'131'
p1312
aa(lp1313
S'BUTLER'
p1314
ag733
aS'514'
p1315
aa(lp1316
S'BUTLER'
p1317
ag733
aS'423'
p1318
aa(lp1319
S'BUTLER'
p1320
ag733
aS'422'
p1321
aa(lp1322
S'BUTLER'
p1323
ag44
aS'E305'
p1324
aa(lp1325
S'BUTLER'
p1326
ag44
aS'E302'
p1327
aa(lp1328
S'BUTLER'
p1329
ag318
aS'C202'
p1330
aa(lp1331
S'BUTLER'
p1332
ag733
aS'421'
p1333
aa(lp1334
S'BUTLER'
p1335
ag733
aS'511'
p1336
aa(lp1337
S'BUTLER'
p1338
ag405
aS'B211'
p1339
aa(lp1340
S'BUTLER'
p1341
ag405
aS'B212'
p1342
aa(lp1343
S'BUTLER'
p1344
ag405
aS'B202'
p1345
aa(lp1346
S'BUTLER'
p1347
ag405
aS'B213'
p1348
aa(lp1349
S'BUTLER'
p1350
ag318
aS'C102'
p1351
aa(lp1352
S'BUTLER'
p1353
ag733
aS'415'
p1354
aa(lp1355
S'BUTLER'
p1356
ag733
aS'414'
p1357
aa(lp1358
S'BUTLER'
p1359
ag318
aS'C104'
p1360
aa(lp1361
S'FORBES'
p1362
aS'FORBES ADDITION'
p1363
aS'327'
p1364
aa(lp1365
S'FORBES'
p1366
ag1363
aS'155'
p1367
aa(lp1368
S'FORBES'
p1369
ag1363
aS'112'
p1370
aa(lp1371
S'FORBES'
p1372
ag1363
aS'326'
p1373
aa(lp1374
S'FORBES'
p1375
ag1363
aS'106'
p1376
aa(lp1377
S'FORBES'
p1378
ag1363
aS'251'
p1379
aa(lp1380
S'FORBES'
p1381
ag1363
aS'A126'
p1382
aa(lp1383
S'FORBES'
p1384
ag1363
aS'255'
p1385
aa(lp1386
S'FORBES'
p1387
ag1363
aS'305'
p1388
aa(lp1389
S'FORBES'
p1390
ag1363
aS'A252'
p1391
aa(lp1392
S'FORBES'
p1393
ag1363
aS'A254'
p1394
aa(lp1395
S'FORBES'
p1396
ag1363
aS'A258'
p1397
aa(lp1398
S'FORBES'
p1399
ag1363
aS'A256'
p1400
aa(lp1401
S'FORBES'
p1402
ag1363
aS'A240'
p1403
aa(lp1404
S'FORBES'
p1405
ag1363
aS'A231'
p1406
aa(lp1407
S'FORBES'
p1408
ag1363
aS'252'
p1409
aa(lp1410
S'FORBES'
p1411
ag1363
aS'224'
p1412
aa(lp1413
S'FORBES'
p1414
ag1363
aS'266'
p1415
aa(lp1416
S'FORBES'
p1417
ag1363
aS'267'
p1418
aa(lp1419
S'FORBES'
p1420
ag1363
aS'323'
p1421
aa(lp1422
S'FORBES'
p1423
ag1363
aS'319'
p1424
aa(lp1425
S'FORBES'
p1426
ag1363
aS'322'
p1427
aa(lp1428
S'FORBES'
p1429
ag1363
aS'254'
p1430
aa(lp1431
S'FORBES'
p1432
ag1363
aS'235'
p1433
aa(lp1434
S'FORBES'
p1435
ag1363
aS'320'
p1436
aa(lp1437
S'FORBES'
p1438
ag1363
aS'156'
p1439
aa(lp1440
S'FORBES'
p1441
ag1363
aS'306'
p1442
aa(lp1443
S'FORBES'
p1444
ag1363
aS'307'
p1445
aa(lp1446
S'FORBES'
p1447
ag1363
aS'154'
p1448
aa(lp1449
S'FORBES'
p1450
ag1363
aS'308'
p1451
aa(lp1452
S'FORBES'
p1453
ag1363
aS'309'
p1454
aa(lp1455
S'FORBES'
p1456
ag1363
aS'A377'
p1457
aa(lp1458
S'FORBES'
p1459
ag1363
aS'268'
p1460
aa(lp1461
S'FORBES'
p1462
ag1363
aS'264'
p1463
aa(lp1464
S'FORBES'
p1465
ag1363
aS'262'
p1466
aa(lp1467
S'FORBES'
p1468
ag1363
aS'324'
p1469
aa(lp1470
S'FORBES'
p1471
ag1363
aS'318'
p1472
aa(lp1473
S'FORBES'
p1474
ag1363
aS'310'
p1475
aa(lp1476
S'FORBES'
p1477
ag1363
aS'301'
p1478
aa(lp1479
S'FORBES'
p1480
ag1363
aS'224N'
p1481
aa(lp1482
S'FORBES'
p1483
ag1363
aS'304'
p1484
aa(lp1485
S'FORBES'
p1486
ag1363
aS'A227'
p1487
aa(lp1488
S'FORBES'
p1489
ag1363
aS'A248'
p1490
aa(lp1491
S'FORBES'
p1492
ag1363
aS'A331'
p1493
aa(lp1494
S'FORBES'
p1495
ag1363
aS'A247'
p1496
aa(lp1497
S'FORBES'
p1498
ag1363
aS'A246'
p1499
aa(lp1500
S'FORBES'
p1501
ag1363
aS'A268'
p1502
aa(lp1503
S'FORBES'
p1504
ag1363
aS'A265'
p1505
aa(lp1506
S'FORBES'
p1507
ag1363
aS'A270'
p1508
aa(lp1509
S'FORBES'
p1510
ag1363
aS'253'
p1511
aa(lp1512
S'FORBES'
p1513
ag1363
aS'A266'
p1514
aa(lp1515
S'FORBES'
p1516
ag1363
aS'A244'
p1517
aa(lp1518
S'FORBES'
p1519
ag1363
aS'A242'
p1520
aa(lp1521
S'FORBES'
p1522
ag1363
aS'152'
p1523
aa(lp1524
S'FORBES'
p1525
ag1363
aS'A155'
p1526
aa(lp1527
S'FORBES'
p1528
ag1363
aS'A156'
p1529
aa(lp1530
S'FORBES'
p1531
ag1363
aS'219'
p1532
aa(lp1533
S'FORBES'
p1534
ag1363
aS'220'
p1535
aa(lp1536
S'FORBES'
p1537
ag1363
aS'160'
p1538
aa(lp1539
S'FORBES'
p1540
ag1363
aS'A255'
p1541
aa(lp1542
S'FORBES'
p1543
ag1363
aS'221'
p1544
aa(lp1545
S'FORBES'
p1546
ag1363
aS'321'
p1547
aa(lp1548
S'FORBES'
p1549
ag1363
aS'209'
p1550
aa(lp1551
S'FORBES'
p1552
ag1363
aS'A154'
p1553
aa(lp1554
S'FORBES'
p1555
ag1363
aS'217'
p1556
aa(lp1557
S'BUTLER'
p1558
ag273
aS'D306'
p1559
aa(lp1560
S'FORBES'
p1561
ag1363
aS'234'
p1562
aa(lp1563
S'FORBES'
p1564
ag1363
aS'239'
p1565
aa(lp1566
S'FORBES'
p1567
ag1363
aS'263'
p1568
aa(lp1569
S'FORBES'
p1570
ag1363
aS'331'
p1571
aa(lp1572
S'FORBES'
p1573
ag1363
aS'237'
p1574
aa(lp1575
S'FORBES'
p1576
ag1363
aS'A148'
p1577
aa(lp1578
S'FORBES'
p1579
ag1363
aS'159'
p1580
aa(lp1581
S'FORBES'
p1582
ag1363
aS'151'
p1583
aa(lp1584
S'FORBES'
p1585
ag1363
aS'153'
p1586
aa(lp1587
S'FORBES'
p1588
ag1363
aS'215'
p1589
aa(lp1590
S'FORBES'
p1591
ag1363
aS'213'
p1592
aa(lp1593
S'FORBES'
p1594
ag1363
aS'211'
p1595
aa(lp1596
S'FORBES'
p1597
ag1363
aS'A147'
p1598
aa(lp1599
S'FORBES'
p1600
ag1363
aS'A150'
p1601
aa(lp1602
S'FORBES'
p1603
ag1363
aS'A250'
p1604
aa(lp1605
S'FORBES'
p1606
ag1363
aS'A136'
p1607
aa(lp1608
S'FORBES'
p1609
ag1363
aS'A134'
p1610
aa(lp1611
S'FORBES'
p1612
ag1363
aS'113'
p1613
aa(lp1614
S'FORBES'
p1615
ag1363
aS'A146'
p1616
aa(lp1617
S'FORBES'
p1618
ag1363
aS'A261'
p1619
aa(lp1620
S'FORBES'
p1621
ag1363
aS'A263'
p1622
aa(lp1623
S'FORBES'
p1624
ag1363
aS'A257'
p1625
aa(lp1626
S'FORBES'
p1627
ag1363
aS'A245'
p1628
aa(lp1629
S'FORBES'
p1630
ag1363
aS'A259'
p1631
aa(lp1632
S'FORBES'
p1633
ag1363
aS'A260'
p1634
aa(lp1635
S'FORBES'
p1636
ag1363
aS'A152'
p1637
aa(lp1638
S'FORBES'
p1639
ag1363
aS'A142'
p1640
aa(lp1641
S'FORBES'
p1642
ag1363
aS'A145'
p1643
aa(lp1644
S'FORBES'
p1645
ag1363
aS'A144'
p1646
aa(lp1647
S'FORBES'
p1648
ag1363
aS'A149'
p1649
aa(lp1650
S'FORBES'
p1651
ag1363
aS'A249'
p1652
aa(lp1653
S'FORBES'
p1654
ag1363
aS'A437'
p1655
aa(lp1656
S'FORBES'
p1657
ag1363
aS'A431'
p1658
aa(lp1659
S'FORBES'
p1660
ag1363
aS'A133'
p1661
aa(lp1662
S'FORBES'
p1663
ag1363
aS'A135'
p1664
aa(lp1665
S'FORBES'
p1666
ag1363
aS'A174'
p1667
aa(lp1668
S'FORBES'
p1669
ag1363
aS'A427'
p1670
aa(lp1671
S'FORBES'
p1672
ag1363
aS'218'
p1673
aa(lp1674
S'FORBES'
p1675
ag1363
aS'206'
p1676
aa(lp1677
S'FORBES'
p1678
ag1363
aS'108'
p1679
aa(lp1680
S'FORBES'
p1681
ag1363
aS'111'
p1682
aa(lp1683
S'FORBES'
p1684
ag1363
aS'109'
p1685
aa(lp1686
S'FORBES'
p1687
ag1363
aS'107'
p1688
aa(lp1689
S'FORBES'
p1690
ag1363
aS'110'
p1691
aa(lp1692
S'FORBES'
p1693
ag1363
aS'208'
p1694
aa(lp1695
S'FORBES'
p1696
ag1363
aS'A131'
p1697
aa(lp1698
S'FORBES'
p1699
ag1363
aS'207'
p1700
aa(lp1701
S'FORBES'
p1702
ag1363
aS'A132'
p1703
aa(lp1704
S'BUTLER'
p1705
ag318
aS'C204'
p1706
aa(lp1707
S'FORBES'
p1708
ag1363
aS'A328'
p1709
aa(lp1710
S'FORBES'
p1711
ag1363
aS'A125'
p1712
aa(lp1713
S'FORBES'
p1714
ag1363
aS'A178'
p1715
aa(lp1716
S'FORBES'
p1717
ag1363
aS'A323'
p1718
aa(lp1719
S'FORBES'
p1720
ag1363
aS'A327'
p1721
aa(lp1722
S'FORBES'
p1723
ag1363
aS'A237'
p1724
aa(lp1725
S'FORBES'
p1726
ag1363
aS'A236'
p1727
aa(lp1728
S'FORBES'
p1729
ag1363
aS'A238'
p1730
aa(lp1731
S'FORBES'
p1732
ag1363
aS'A232'
p1733
aa(lp1734
S'FORBES'
p1735
ag1363
aS'A137'
p1736
aa(lp1737
S'FORBES'
p1738
ag1363
aS'A138'
p1739
aa(lp1740
S'FORBES'
p1741
ag1363
aS'A228'
p1742
aa(lp1743
S'FORBES'
p1744
ag1363
aS'A336'
p1745
aa(lp1746
S'FORBES'
p1747
ag1363
aS'A334'
p1748
aa(lp1749
S'FORBES'
p1750
ag1363
aS'A332'
p1751
aa(lp1752
S'FORBES'
p1753
ag1363
aS'A234'
p1754
aa(lp1755
S'BUTLER'
p1756
ag733
aS'611'
p1757
aa(lp1758
S'FORBES'
p1759
ag1363
aS'A426'
p1760
aa(lp1761
S'FORBES'
p1762
ag1363
aS'A428'
p1763
aa(lp1764
S'FORBES'
p1765
ag1363
aS'A337'
p1766
aa(lp1767
S'FORBES'
p1768
ag1363
aS'303'
p1769
aa(lp1770
S'FORBES'
p1771
ag1363
aS'A338'
p1772
aa(lp1773
S'FORBES'
p1774
ag1363
aS'A432'
p1775
aa(lp1776
S'FORBES'
p1777
ag1363
aS'A378'
p1778
aa(lp1779
S'MATHEY'
p1780
ag842
aS'063'
p1781
aa(lp1782
S'MATHEY'
p1783
ag302
aS'514'
p1784
aa(lp1785
S'MATHEY'
p1786
ag71
aS'301'
p1787
aa(lp1788
S'MATHEY'
p1789
ag71
aS'329'
p1790
aa(lp1791
S'MATHEY'
p1792
ag71
aS'051'
p1793
aa(lp1794
S'MATHEY'
p1795
ag71
aS'311'
p1796
aa(lp1797
S'MATHEY'
p1798
ag71
aS'387'
p1799
aa(lp1800
S'MATHEY'
p1801
ag71
aS'074'
p1802
aa(lp1803
S'MATHEY'
p1804
ag370
aS'B92'
p1805
aa(lp1806
S'MATHEY'
p1807
ag71
aS'305'
p1808
aa(lp1809
S'MATHEY'
p1810
ag71
aS'071'
p1811
aa(lp1812
S'MATHEY'
p1813
ag370
aS'B51'
p1814
aa(lp1815
S'MATHEY'
p1816
ag71
aS'307'
p1817
aa(lp1818
S'MATHEY'
p1819
ag370
aS'B72'
p1820
aa(lp1821
S'MATHEY'
p1822
ag302
aS'112'
p1823
aa(lp1824
S'MATHEY'
p1825
ag302
aS'506'
p1826
aa(lp1827
S'MATHEY'
p1828
ag302
aS'508'
p1829
aa(lp1830
S'MATHEY'
p1831
ag370
aS'B61'
p1832
aa(lp1833
S'MATHEY'
p1834
ag71
aS'313'
p1835
aa(lp1836
S'MATHEY'
p1837
ag71
aS'309'
p1838
aa(lp1839
S'MATHEY'
p1840
ag370
aS'061'
p1841
aa(lp1842
S'MATHEY'
p1843
ag71
aS'013'
p1844
aa(lp1845
S'MATHEY'
p1846
ag370
aS'091'
p1847
aa(lp1848
S'MATHEY'
p1849
ag71
aS'042'
p1850
aa(lp1851
S'MATHEY'
p1852
ag71
aS'401'
p1853
aa(lp1854
S'MATHEY'
p1855
ag370
aS'084'
p1856
aa(lp1857
S'MATHEY'
p1858
ag370
aS'083'
p1859
aa(lp1860
S'MATHEY'
p1861
ag302
aS'511'
p1862
aa(lp1863
S'MATHEY'
p1864
ag302
aS'507'
p1865
aa(lp1866
S'MATHEY'
p1867
ag302
aS'503'
p1868
aa(lp1869
S'MATHEY'
p1870
ag302
aS'510'
p1871
aa(lp1872
S'MATHEY'
p1873
ag302
aS'501'
p1874
aa(lp1875
S'MATHEY'
p1876
ag71
aS'018'
p1877
aa(lp1878
S'MATHEY'
p1879
ag71
aS'031'
p1880
aa(lp1881
S'MATHEY'
p1882
ag71
aS'325'
p1883
aa(lp1884
S'MATHEY'
p1885
ag71
aS'327'
p1886
aa(lp1887
S'MATHEY'
p1888
ag302
aS'509'
p1889
aa(lp1890
S'MATHEY'
p1891
ag302
aS'505'
p1892
aa(lp1893
S'MATHEY'
p1894
ag392
aS'233'
p1895
aa(lp1896
S'MATHEY'
p1897
ag370
aS'081'
p1898
aa(lp1899
S'MATHEY'
p1900
ag71
aS'321'
p1901
aa(lp1902
S'MATHEY'
p1903
ag455
aS'212'
p1904
aa(lp1905
S'MATHEY'
p1906
ag455
aS'115'
p1907
aa(lp1908
S'MATHEY'
p1909
ag71
aS'053'
p1910
aa(lp1911
S'MATHEY'
p1912
ag71
aS'033'
p1913
aa(lp1914
S'MATHEY'
p1915
ag370
aS'053'
p1916
aa(lp1917
S'MATHEY'
p1918
ag370
aS'051'
p1919
aa(lp1920
S'MATHEY'
p1921
ag455
aS'211'
p1922
aa(lp1923
S'MATHEY'
p1924
ag370
aS'065'
p1925
aa(lp1926
S'MATHEY'
p1927
ag370
aS'092'
p1928
aa(lp1929
S'MATHEY'
p1930
ag370
aS'B41'
p1931
aa(lp1932
S'MATHEY'
p1933
ag302
aS'102'
p1934
aa(lp1935
S'MATHEY'
p1936
ag842
aS'052A'
p1937
aa(lp1938
S'MATHEY'
p1939
ag71
aS'081'
p1940
aa(lp1941
S'MATHEY'
p1942
ag392
aS'123'
p1943
aa(lp1944
S'MATHEY'
p1945
ag370
aS'B62'
p1946
aa(lp1947
S'MATHEY'
p1948
ag370
aS'B42'
p1949
aa(lp1950
S'ROCKEFELLER'
p1951
aS'WITHERSPOON'
p1952
aS'517'
p1953
aa(lp1954
S'ROCKEFELLER'
p1955
ag1952
aS'422'
p1956
aa(lp1957
S'ROCKEFELLER'
p1958
aS'HOLDER'
p1959
aS'088'
p1960
aa(lp1961
S'ROCKEFELLER'
p1962
ag1952
aS'417'
p1963
aa(lp1964
S'ROCKEFELLER'
p1965
ag1959
aS'012'
p1966
aa(lp1967
S'ROCKEFELLER'
p1968
aS'BUYERS'
p1969
aS'B13'
p1970
aa(lp1971
S'ROCKEFELLER'
p1972
ag1969
aS'034'
p1973
aa(lp1974
S'ROCKEFELLER'
p1975
ag1952
aS'421'
p1976
aa(lp1977
S'ROCKEFELLER'
p1978
ag1969
aS'024'
p1979
aa(lp1980
S'ROCKEFELLER'
p1981
ag1959
aS'076'
p1982
aa(lp1983
S'ROCKEFELLER'
p1984
ag1952
aS'006'
p1985
aa(lp1986
S'ROCKEFELLER'
p1987
ag1959
aS'074'
p1988
aa(lp1989
S'ROCKEFELLER'
p1990
ag1959
aS'068'
p1991
aa(lp1992
S'ROCKEFELLER'
p1993
ag1959
aS'142'
p1994
aa(lp1995
S'ROCKEFELLER'
p1996
ag1952
aS'317'
p1997
aa(lp1998
S'ROCKEFELLER'
p1999
ag1959
aS'079'
p2000
aa(lp2001
S'ROCKEFELLER'
p2002
ag1959
aS'011'
p2003
aa(lp2004
S'ROCKEFELLER'
p2005
ag1952
aS'117'
p2006
aa(lp2007
S'ROCKEFELLER'
p2008
ag1952
aS'222'
p2009
aa(lp2010
S'ROCKEFELLER'
p2011
ag842
aS'022'
p2012
aa(lp2013
S'ROCKEFELLER'
p2014
ag1952
aS'217'
p2015
aa(lp2016
S'ROCKEFELLER'
p2017
ag1952
aS'405'
p2018
aa(lp2019
S'ROCKEFELLER'
p2020
ag1952
aS'521'
p2021
aa(lp2022
S'ROCKEFELLER'
p2023
ag1952
aS'415'
p2024
aa(lp2025
S'ROCKEFELLER'
p2026
ag1952
aS'516'
p2027
aa(lp2028
S'ROCKEFELLER'
p2029
ag1952
aS'503'
p2030
aa(lp2031
S'ROCKEFELLER'
p2032
ag1952
aS'409'
p2033
aa(lp2034
S'ROCKEFELLER'
p2035
ag1952
aS'412'
p2036
aa(lp2037
S'ROCKEFELLER'
p2038
ag1952
aS'410'
p2039
aa(lp2040
S'ROCKEFELLER'
p2041
ag1952
aS'312'
p2042
aa(lp2043
S'ROCKEFELLER'
p2044
ag1952
aS'303'
p2045
aa(lp2046
S'ROCKEFELLER'
p2047
ag1952
aS'403'
p2048
aa(lp2049
S'ROCKEFELLER'
p2050
ag1952
aS'203'
p2051
aa(lp2052
S'ROCKEFELLER'
p2053
ag1952
aS'321'
p2054
aa(lp2055
S'ROCKEFELLER'
p2056
ag1952
aS'506'
p2057
aa(lp2058
S'ROCKEFELLER'
p2059
ag1952
aS'408'
p2060
aa(lp2061
S'ROCKEFELLER'
p2062
ag1952
aS'401'
p2063
aa(lp2064
S'ROCKEFELLER'
p2065
ag1959
aS'116'
p2066
aa(lp2067
S'ROCKEFELLER'
p2068
ag1969
aS'032'
p2069
aa(lp2070
S'ROCKEFELLER'
p2071
ag1952
aS'201'
p2072
aa(lp2073
S'ROCKEFELLER'
p2074
ag1959
aS'085'
p2075
aa(lp2076
S'ROCKEFELLER'
p2077
ag1969
aS'B22'
p2078
aa(lp2079
S'ROCKEFELLER'
p2080
ag1952
aS'205'
p2081
aa(lp2082
S'ROCKEFELLER'
p2083
ag1952
aS'208'
p2084
aa(lp2085
S'ROCKEFELLER'
p2086
ag1952
aS'206'
p2087
aa(lp2088
S'ROCKEFELLER'
p2089
ag1959
aS'067'
p2090
aa(lp2091
S'ROCKEFELLER'
p2092
ag1959
aS'057'
p2093
aa(lp2094
S'ROCKEFELLER'
p2095
ag1959
aS'047'
p2096
aa(lp2097
S'ROCKEFELLER'
p2098
ag1959
aS'027'
p2099
aa(lp2100
S'ROCKEFELLER'
p2101
ag1952
aS'121'
p2102
aa(lp2103
S'ROCKEFELLER'
p2104
ag842
aS'004B'
p2105
aa(lp2106
S'ROCKEFELLER'
p2107
ag842
aS'013'
p2108
aa(lp2109
S'ROCKEFELLER'
p2110
ag1952
aS'310'
p2111
aa(lp2112
S'ROCKEFELLER'
p2113
ag1969
aS'016'
p2114
aa(lp2115
S'ROCKEFELLER'
p2116
ag842
aS'014'
p2117
aa(lp2118
S'ROCKEFELLER'
p2119
ag1952
aS'215'
p2120
aa(lp2121
S'ROCKEFELLER'
p2122
ag1952
aS'211'
p2123
aa(lp2124
S'ROCKEFELLER'
p2125
ag1952
aS'216'
p2126
aa(lp2127
S'ROCKEFELLER'
p2128
ag1952
aS'221'
p2129
aa(lp2130
S'ROCKEFELLER'
p2131
ag1952
aS'210'
p2132
aa(lp2133
S'ROCKEFELLER'
p2134
ag1959
aS'066'
p2135
aa(lp2136
S'ROCKEFELLER'
p2137
ag1952
aS'214'
p2138
aa(lp2139
S'ROCKEFELLER'
p2140
ag1969
aS'018'
p2141
aa(lp2142
S'ROCKEFELLER'
p2143
ag1952
aS'209'
p2144
aa(lp2145
S'ROCKEFELLER'
p2146
ag1969
aS'B21'
p2147
aa(lp2148
S'ROCKEFELLER'
p2149
ag1959
aS'126'
p2150
aa(lp2151
S'ROCKEFELLER'
p2152
ag1959
aS'026'
p2153
aa(lp2154
S'ROCKEFELLER'
p2155
ag1952
aS'014'
p2156
aa(lp2157
S'ROCKEFELLER'
p2158
ag1952
aS'012'
p2159
aa(lp2160
S'ROCKEFELLER'
p2161
ag1959
aS'024'
p2162
aa(lp2163
S'ROCKEFELLER'
p2164
ag1959
aS'025'
p2165
aa(lp2166
S'ROCKEFELLER'
p2167
ag1959
aS'097'
p2168
aa(lp2169
S'ROCKEFELLER'
p2170
ag1959
aS'055'
p2171
aa(lp2172
S'ROCKEFELLER'
p2173
ag1952
aS'316'
p2174
aa(lp2175
S'ROCKEFELLER'
p2176
ag842
aS'003A'
p2177
aa(lp2178
S'ROCKEFELLER'
p2179
ag842
aS'003C'
p2180
aa(lp2181
S'ROCKEFELLER'
p2182
ag1959
aS'046'
p2183
aa(lp2184
S'ROCKEFELLER'
p2185
ag1959
aS'022'
p2186
aa(lp2187
S'ROCKEFELLER'
p2188
ag1952
aS'510'
p2189
aa(lp2190
S'ROCKEFELLER'
p2191
ag1959
aS'107'
p2192
aa(lp2193
S'ROCKEFELLER'
p2194
ag1959
aS'037'
p2195
aa(lp2196
S'ROCKEFELLER'
p2197
ag1952
aS'508'
p2198
aa(lp2199
S'ROCKEFELLER'
p2200
ag1952
aS'306'
p2201
aa(lp2202
S'ROCKEFELLER'
p2203
ag1952
aS'414'
p2204
aa(lp2205
S'ROCKEFELLER'
p2206
ag1969
aS'B23'
p2207
aa(lp2208
S'ROCKEFELLER'
p2209
ag842
aS'003B'
p2210
aa(lp2211
S'ROCKEFELLER'
p2212
ag1952
aS'404'
p2213
aa(lp2214
S'ROCKEFELLER'
p2215
ag1959
aS'095'
p2216
aa(lp2217
S'ROCKEFELLER'
p2218
ag1969
aS'033'
p2219
aa(lp2220
S'ROCKEFELLER'
p2221
ag1959
aS'063'
p2222
aa(lp2223
S'ROCKEFELLER'
p2224
ag1969
aS'B31'
p2225
aa(lp2226
S'ROCKEFELLER'
p2227
ag1959
aS'078'
p2228
aa(lp2229
S'ROCKEFELLER'
p2230
ag1959
aS'086'
p2231
aa(lp2232
S'ROCKEFELLER'
p2233
ag1959
aS'096'
p2234
aa(lp2235
S'ROCKEFELLER'
p2236
ag1959
aS'061'
p2237
aa(lp2238
S'ROCKEFELLER'
p2239
ag1969
aS'017'
p2240
aa(lp2241
S'ROCKEFELLER'
p2242
ag1952
aS'204'
p2243
aa(lp2244
S'ROCKEFELLER'
p2245
ag1959
aS'081'
p2246
aa(lp2247
S'ROCKEFELLER'
p2248
ag1959
aS'073'
p2249
aa(lp2250
S'ROCKEFELLER'
p2251
ag1959
aS'041'
p2252
aa(lp2253
S'ROCKEFELLER'
p2254
ag842
aS'026'
p2255
aa(lp2256
S'ROCKEFELLER'
p2257
ag1959
aS'062'
p2258
aa(lp2259
S'ROCKEFELLER'
p2260
ag1959
aS'143'
p2261
aa(lp2262
S'ROCKEFELLER'
p2263
ag1959
aS'042'
p2264
aa(lp2265
S'ROCKEFELLER'
p2266
ag1959
aS'092'
p2267
aa(lp2268
S'BUTLER'
p2269
ag733
aS'425'
p2270
aa(lp2271
S'WHITMAN'
p2272
ag277
aS'E209'
p2273
aa(lp2274
S'WHITMAN'
p2275
ag277
aS'E309'
p2276
aa(lp2277
S'WHITMAN'
p2278
ag520
aS'F015'
p2279
aa(lp2280
S'WHITMAN'
p2281
ag427
aS'A310'
p2282
aa(lp2283
S'WHITMAN'
p2284
ag246
aS'G406'
p2285
aa(lp2286
S'WHITMAN'
p2287
ag520
aS'F229'
p2288
aa(lp2289
S'WHITMAN'
p2290
ag246
aS'G402'
p2291
aa(lp2292
S'WHITMAN'
p2293
ag277
aS'E222'
p2294
aa(lp2295
S'WHITMAN'
p2296
ag260
aS'C213'
p2297
aa(lp2298
S'WHITMAN'
p2299
ag246
aS'G407B'
p2300
aa(lp2301
S'WHITMAN'
p2302
ag260
aS'B216'
p2303
aa(lp2304
S'WHITMAN'
p2305
ag260
aS'C217'
p2306
aa(lp2307
S'WHITMAN'
p2308
ag277
aS'E109'
p2309
aa(lp2310
S'WHITMAN'
p2311
ag277
aS'E108'
p2312
aa(lp2313
S'WHITMAN'
p2314
ag459
aS'D114'
p2315
aa(lp2316
S'WHITMAN'
p2317
ag459
aS'D107'
p2318
aa(lp2319
S'WHITMAN'
p2320
ag277
aS'E211'
p2321
aa(lp2322
S'WHITMAN'
p2323
ag277
aS'E123'
p2324
aa(lp2325
S'WHITMAN'
p2326
ag260
aS'B317'
p2327
aa(lp2328
S'WHITMAN'
p2329
ag277
aS'E318'
p2330
aa(lp2331
S'WHITMAN'
p2332
ag277
aS'E320'
p2333
aa(lp2334
S'WHITMAN'
p2335
ag277
aS'S102'
p2336
aa(lp2337
S'WHITMAN'
p2338
ag277
aS'E308'
p2339
aa(lp2340
S'WHITMAN'
p2341
ag277
aS'E125'
p2342
aa(lp2343
S'WHITMAN'
p2344
ag427
aS'A312'
p2345
aa(lp2346
S'WHITMAN'
p2347
ag277
aS'E107'
p2348
aa(lp2349
S'WHITMAN'
p2350
ag459
aS'D301'
p2351
aa(lp2352
S'WHITMAN'
p2353
ag277
aS'E419'
p2354
aa(lp2355
S'WHITMAN'
p2356
ag277
aS'S405'
p2357
aa(lp2358
S'WHITMAN'
p2359
ag277
aS'S406'
p2360
aa(lp2361
S'WHITMAN'
p2362
ag277
aS'S404'
p2363
aa(lp2364
S'WHITMAN'
p2365
ag277
aS'S403'
p2366
aa(lp2367
S'WHITMAN'
p2368
ag459
aS'D105'
p2369
aa(lp2370
S'WHITMAN'
p2371
ag277
aS'E323'
p2372
aa(lp2373
S'WHITMAN'
p2374
ag277
aS'S106'
p2375
aa(lp2376
S'WHITMAN'
p2377
ag277
aS'E312'
p2378
aa(lp2379
S'WHITMAN'
p2380
ag520
aS'F026'
p2381
aa(lp2382
S'WHITMAN'
p2383
ag520
aS'F305'
p2384
aa(lp2385
S'WHITMAN'
p2386
ag520
aS'F016'
p2387
aa(lp2388
S'WHITMAN'
p2389
ag520
aS'F024'
p2390
aa(lp2391
S'WHITMAN'
p2392
ag277
aS'E212'
p2393
aa(lp2394
S'WHITMAN'
p2395
ag277
aS'E214'
p2396
aa(lp2397
S'WHITMAN'
p2398
ag459
aS'D201'
p2399
aa(lp2400
S'WHITMAN'
p2401
ag459
aS'D209'
p2402
aa(lp2403
S'WHITMAN'
p2404
ag459
aS'D203'
p2405
aa(lp2406
S'WHITMAN'
p2407
ag459
aS'D311'
p2408
aa(lp2409
S'WHITMAN'
p2410
ag427
aS'A321'
p2411
aa(lp2412
S'WHITMAN'
p2413
ag427
aS'A317'
p2414
aa(lp2415
S'WHITMAN'
p2416
ag520
aS'F212'
p2417
aa(lp2418
S'WHITMAN'
p2419
ag260
aS'B311'
p2420
aa(lp2421
S'WHITMAN'
p2422
ag277
aS'E313'
p2423
aa(lp2424
S'WHITMAN'
p2425
ag260
aS'B205'
p2426
aa(lp2427
S'WHITMAN'
p2428
ag277
aS'E319'
p2429
aa(lp2430
S'WHITMAN'
p2431
ag277
aS'S202'
p2432
aa(lp2433
S'WHITMAN'
p2434
ag260
aS'B313'
p2435
aa(lp2436
S'WHITMAN'
p2437
ag459
aS'D307'
p2438
aa(lp2439
S'WHITMAN'
p2440
ag459
aS'D305'
p2441
aa(lp2442
S'WHITMAN'
p2443
ag520
aS'F228'
p2444
aa(lp2445
S'WHITMAN'
p2446
ag520
aS'F226'
p2447
aa(lp2448
S'WHITMAN'
p2449
ag277
aS'E310'
p2450
aa(lp2451
S'WHITMAN'
p2452
ag277
aS'S302'
p2453
aa(lp2454
S'WHITMAN'
p2455
ag277
aS'S402'
p2456
aa(lp2457
S'WHITMAN'
p2458
ag459
aS'D112'
p2459
aa(lp2460
S'WHITMAN'
p2461
ag260
aS'B410'
p2462
aa(lp2463
S'WHITMAN'
p2464
ag260
aS'B428'
p2465
aa(lp2466
S'WHITMAN'
p2467
ag520
aS'F114'
p2468
aa(lp2469
S'WHITMAN'
p2470
ag260
aS'B218'
p2471
aa(lp2472
S'WHITMAN'
p2473
ag427
aS'A221'
p2474
aa(lp2475
S'WHITMAN'
p2476
ag277
aS'E429'
p2477
aa(lp2478
S'WHITMAN'
p2479
ag427
aS'A216'
p2480
aa(lp2481
S'WHITMAN'
p2482
ag520
aS'F103'
p2483
aa(lp2484
S'WHITMAN'
p2485
ag520
aS'F007'
p2486
aa(lp2487
S'WHITMAN'
p2488
ag520
aS'F107'
p2489
aa(lp2490
S'WHITMAN'
p2491
ag459
aS'D109'
p2492
aa(lp2493
S'WHITMAN'
p2494
ag277
aS'E224'
p2495
aa(lp2496
S'WHITMAN'
p2497
ag277
aS'E215'
p2498
aa(lp2499
S'WHITMAN'
p2500
ag277
aS'E315'
p2501
aa(lp2502
S'WHITMAN'
p2503
ag277
aS'E311'
p2504
aa(lp2505
S'WHITMAN'
p2506
ag520
aS'F307'
p2507
aa(lp2508
S'WHITMAN'
p2509
ag277
aS'E306'
p2510
aa(lp2511
S'WHITMAN'
p2512
ag260
aS'B315'
p2513
aa(lp2514
S'WHITMAN'
p2515
ag277
aS'E316'
p2516
aa(lp2517
S'WHITMAN'
p2518
ag260
aS'B314'
p2519
aa(lp2520
S'WHITMAN'
p2521
ag614
aS'T302'
p2522
aa(lp2523
S'WHITMAN'
p2524
ag614
aS'T304'
p2525
aa(lp2526
S'WHITMAN'
p2527
ag277
aS'E218'
p2528
aa(lp2529
S'WHITMAN'
p2530
ag520
aS'F105'
p2531
aa(lp2532
S'WHITMAN'
p2533
ag277
aS'E219'
p2534
aa(lp2535
S'WHITMAN'
p2536
ag520
aS'F018'
p2537
aa(lp2538
S'WHITMAN'
p2539
ag277
aS'E314'
p2540
aa(lp2541
S'WHITMAN'
p2542
ag427
aS'A301'
p2543
aa(lp2544
S'WHITMAN'
p2545
ag520
aS'F116'
p2546
aa(lp2547
S'WHITMAN'
p2548
ag277
aS'E208'
p2549
aa(lp2550
S'WHITMAN'
p2551
ag260
aS'B320'
p2552
aa(lp2553
S'WHITMAN'
p2554
ag246
aS'G101D'
p2555
aa(lp2556
S'WILSON'
p2557
aS'WALKER'
p2558
aS'313'
p2559
aa(lp2560
S'WILSON'
p2561
ag2558
aS'324'
p2562
aa(lp2563
S'WILSON'
p2564
ag2558
aS'325'
p2565
aa(lp2566
S'WHITMAN'
p2567
ag520
aS'F117'
p2568
aa(lp2569
S'WILSON'
p2570
aS'1937'
p2571
aS'226'
p2572
aa(lp2573
S'WILSON'
p2574
ag2558
aS'304'
p2575
aa(lp2576
S'WILSON'
p2577
ag2558
aS'331'
p2578
aa(lp2579
S'WILSON'
p2580
ag2558
aS'314'
p2581
aa(lp2582
S'WILSON'
p2583
ag2558
aS'327'
p2584
aa(lp2585
S'WILSON'
p2586
ag2558
aS'319'
p2587
aa(lp2588
S'WILSON'
p2589
ag2558
aS'123'
p2590
aa(lp2591
S'WILSON'
p2592
ag2558
aS'214'
p2593
aa(lp2594
S'WILSON'
p2595
ag2558
aS'132'
p2596
aa(lp2597
S'WILSON'
p2598
ag2558
aS'232'
p2599
aa(lp2600
S'WILSON'
p2601
aS'DODGE OSBORN'
p2602
aS'226'
p2603
aa(lp2604
S'WILSON'
p2605
ag2558
aS'220'
p2606
aa(lp2607
S'WILSON'
p2608
ag2558
aS'223'
p2609
aa(lp2610
S'WILSON'
p2611
aS'1939'
p2612
aS'331'
p2613
aa(lp2614
S'WILSON'
p2615
ag2612
aS'120'
p2616
aa(lp2617
S'WILSON'
p2618
aS'1927'
p2619
aS'131'
p2620
aa(lp2621
S'WILSON'
p2622
ag2612
aS'115'
p2623
aa(lp2624
S'WILSON'
p2625
ag2612
aS'126'
p2626
aa(lp2627
S'WILSON'
p2628
ag2619
aS'122'
p2629
aa(lp2630
S'WILSON'
p2631
ag2571
aS'201'
p2632
aa(lp2633
S'WILSON'
p2634
ag2571
aS'204'
p2635
aa(lp2636
S'WILSON'
p2637
aS'GAUSS'
p2638
aS'117'
p2639
aa(lp2640
S'WILSON'
p2641
aS'1938'
p2642
aS'215'
p2643
aa(lp2644
S'WILSON'
p2645
ag2638
aS'116'
p2646
aa(lp2647
S'WILSON'
p2648
ag2612
aS'338'
p2649
aa(lp2650
S'WILSON'
p2651
ag2612
aS'339'
p2652
aa(lp2653
S'WILSON'
p2654
ag2612
aS'335'
p2655
aa(lp2656
S'WILSON'
p2657
ag2612
aS'337'
p2658
aa(lp2659
S'WILSON'
p2660
ag2612
aS'340'
p2661
aa(lp2662
S'WILSON'
p2663
ag2558
aS'231'
p2664
aa(lp2665
S'WILSON'
p2666
ag2558
aS'213'
p2667
aa(lp2668
S'WILSON'
p2669
ag2571
aS'122'
p2670
aa(lp2671
S'WILSON'
p2672
ag2612
aS'232'
p2673
aa(lp2674
S'WILSON'
p2675
ag2571
aS'213'
p2676
aa(lp2677
S'WILSON'
p2678
ag2571
aS'216'
p2679
aa(lp2680
S'WILSON'
p2681
ag2571
aS'232'
p2682
aa(lp2683
S'WILSON'
p2684
ag2602
aS'122'
p2685
aa(lp2686
S'WILSON'
p2687
ag2602
aS'227'
p2688
aa(lp2689
S'WILSON'
p2690
ag2571
aS'131'
p2691
aa(lp2692
S'WILSON'
p2693
ag2602
aS'212'
p2694
aa(lp2695
S'WILSON'
p2696
ag2619
aS'132'
p2697
aa(lp2698
S'WILSON'
p2699
ag2571
aS'104'
p2700
aa(lp2701
S'WILSON'
p2702
ag2602
aS'202'
p2703
aa(lp2704
S'WILSON'
p2705
ag2619
aS'112'
p2706
aa(lp2707
S'WILSON'
p2708
ag2602
aS'201'
p2709
aa(lp2710
S'WILSON'
p2711
ag2602
aS'217'
p2712
aa(lp2713
S'WILSON'
p2714
ag2642
aS'214'
p2715
aa(lp2716
S'WILSON'
p2717
ag2558
aS'221'
p2718
aa(lp2719
S'WILSON'
p2720
ag2642
aS'234'
p2721
aa(lp2722
S'WILSON'
p2723
ag2602
aS'121'
p2724
aa(lp2725
S'WILSON'
p2726
ag2602
aS'216'
p2727
aa(lp2728
S'WILSON'
p2729
ag2602
aS'213'
p2730
aa(lp2731
S'WILSON'
p2732
ag2602
aS'116'
p2733
aa(lp2734
S'WILSON'
p2735
aS'CLAPP'
p2736
aS'201'
p2737
aa(lp2738
S'WILSON'
p2739
ag2612
aS'222'
p2740
aa(lp2741
S'WILSON'
p2742
aS'FEINBERG'
p2743
aS'401'
p2744
aa(lp2745
S'WILSON'
p2746
ag2612
aS'342'
p2747
aa(lp2748
S'WILSON'
p2749
ag2612
aS'343'
p2750
aa(lp2751
S'WILSON'
p2752
ag2571
aS'206'
p2753
aa(lp2754
S'WILSON'
p2755
ag2571
aS'205'
p2756
aa(lp2757
S'WILSON'
p2758
ag2642
aS'225'
p2759
aa(lp2760
S'WILSON'
p2761
ag2642
aS'222'
p2762
aa(lp2763
S'WILSON'
p2764
ag2602
aS'211'
p2765
aa(lp2766
S'WILSON'
p2767
ag2642
aS'213'
p2768
aa(lp2769
S'WILSON'
p2770
ag2642
aS'212'
p2771
aa(lp2772
S'WILSON'
p2773
ag2642
aS'112'
p2774
aa(lp2775
S'WILSON'
p2776
ag2642
aS'235'
p2777
aa(lp2778
S'WILSON'
p2779
ag2642
aS'113'
p2780
aa(lp2781
S'WILSON'
p2782
ag2642
aS'211'
p2783
aa(lp2784
S'WILSON'
p2785
ag2571
aS'236'
p2786
aa(lp2787
S'WILSON'
p2788
ag2571
aS'202'
p2789
aa(lp2790
S'WILSON'
p2791
ag2571
aS'233'
p2792
aa(lp2793
S'WILSON'
p2794
ag2571
aS'203'
p2795
aa(lp2796
S'WILSON'
p2797
ag2736
aS'202'
p2798
aa(lp2799
S'WILSON'
p2800
ag2571
aS'103'
p2801
aa(lp2802
S'WILSON'
p2803
ag2612
aS'341'
p2804
aa(lp2805
S'WILSON'
p2806
ag2571
aS'126'
p2807
aa(lp2808
S'WILSON'
p2809
ag2602
aS'203'
p2810
aa(lp2811
S'WILSON'
p2812
ag2736
aS'212'
p2813
aa(lp2814
S'WILSON'
p2815
ag2612
aS'334'
p2816
aa(lp2817
S'WILSON'
p2818
ag2619
aS'135'
p2819
aa(lp2820
S'WILSON'
p2821
ag2736
aS'232'
p2822
aa(lp2823
S'WILSON'
p2824
ag2638
aS'114'
p2825
aa(lp2826
S'WILSON'
p2827
ag2638
aS'112'
p2828
aa(lp2829
S'WILSON'
p2830
ag2638
aS'111'
p2831
aa(lp2832
S'WILSON'
p2833
ag2619
aS'121'
p2834
aa(lp2835
S'WILSON'
p2836
ag2619
aS'111'
p2837
aa(lp2838
S'WILSON'
p2839
ag2571
aS'105'
p2840
aa(lp2841
S'WILSON'
p2842
ag2558
aS'301'
p2843
aa(lp2844
S'WILSON'
p2845
ag2638
aS'113'
p2846
aa(lp2847
S'WILSON'
p2848
ag2571
aS'123'
p2849
aa(lp2850
S'WILSON'
p2851
ag2642
aS'132'
p2852
aa(lp2853
S'WILSON'
p2854
ag2743
aS'301'
p2855
aa(lp2856
S'WILSON'
p2857
ag2743
aS'102'
p2858
aa(lp2859
S'WILSON'
p2860
ag2743
aS'402'
p2861
aa(lp2862
S'WILSON'
p2863
ag2612
aS'333'
p2864
aa(lp2865
S'WILSON'
p2866
ag2558
aS'322'
p2867
aa(lp2868
S'WILSON'
p2869
ag2558
aS'312'
p2870
aa(lp2871
S'WILSON'
p2872
ag2558
aS'305'
p2873
aa(lp2874
S'WILSON'
p2875
ag2558
aS'332'
p2876
aa(lp2877
S'WILSON'
p2878
ag2638
aS'101'
p2879
aa(lp2880
S'WILSON'
p2881
ag2612
aS'332'
p2882
aa(lp2883
S'WILSON'
p2884
ag2602
aS'204'
p2885
aa(lp2886
S'WILSON'
p2887
ag2558
aS'302'
p2888
aa(lp2889
S'WILSON'
p2890
ag2571
aS'121'
p2891
aa(lp2892
S'WILSON'
p2893
ag2638
aS'120'
p2894
aa(lp2895
S'WILSON'
p2896
ag2558
aS'303'
p2897
aa(lp2898
g2
ag56
aS'523A'
p2899
aa(lp2900
g2
ag86
aS'313'
p2901
aa(lp2902
g2
ag56
aS'522'
p2903
aa(lp2904
g2
aS'WRIGHT'
p2905
aS'306'
p2906
aa(lp2907
g2
ag56
aS'421'
p2908
aa(lp2909
g2
ag152
aS'115'
p2910
aa(lp2911
g2
ag152
aS'125'
p2912
aa(lp2913
g2
ag86
aS'T12'
p2914
aa(lp2915
g2
aS'BROWN'
p2916
aS'210'
p2917
aa(lp2918
g2
ag56
aS'502'
p2919
aa(lp2920
g2
ag51
aS'221'
p2921
aa(lp2922
g2
ag56
aS'212'
p2923
aa(lp2924
g2
aS'CUYLER'
p2925
aS'403'
p2926
aa(lp2927
g2
ag2916
aS'329'
p2928
aa(lp2929
g2
ag37
aS'413'
p2930
aa(lp2931
g2
aS'FOULKE'
p2932
aS'316'
p2933
aa(lp2934
g2
ag2932
aS'321'
p2935
aa(lp2936
g2
ag32
aS'150'
p2937
aa(lp2938
g2
ag32
aS'148'
p2939
aa(lp2940
g2
ag56
aS'402'
p2941
aa(lp2942
g2
ag37
aS'403'
p2943
aa(lp2944
S'WHITMAN'
p2945
ag520
aS'F113'
p2946
aa(lp2947
g2
ag71
aS'124'
p2948
aa(lp2949
g2
ag37
aS'401'
p2950
aa(lp2951
g2
ag56
aS'531'
p2952
aa(lp2953
g2
ag56
aS'517'
p2954
aa(lp2955
g2
ag56
aS'532'
p2956
aa(lp2957
g2
ag56
aS'528'
p2958
aa(lp2959
g2
ag2932
aS'318'
p2960
aa(lp2961
g2
ag2932
aS'317'
p2962
aa(lp2963
g2
ag51
aS'322'
p2964
aa(lp2965
g2
ag37
aS'411'
p2966
aa(lp2967
g2
ag37
aS'401S'
p2968
aa(lp2969
g2
aS'1901'
p2970
aS'411'
p2971
aa(lp2972
g2
ag2970
aS'421'
p2973
aa(lp2974
g2
ag51
aS'621'
p2975
aa(lp2976
g2
ag51
aS'623'
p2977
aa(lp2978
g2
ag2916
aS'410'
p2979
aa(lp2980
g2
ag71
aS'095'
p2981
aa(lp2982
g2
ag2916
aS'429'
p2983
aa(lp2984
g2
ag51
aS'511'
p2985
aa(lp2986
g2
ag37
aS'401N'
p2987
aa(lp2988
g2
ag51
aS'211'
p2989
aa(lp2990
g2
ag2925
aS'413'
p2991
aa(lp2992
g2
ag56
aS'241'
p2993
aa(lp2994
g2
ag32
aS'244'
p2995
aa(lp2996
g2
ag32
aS'232'
p2997
aa(lp2998
g2
ag32
aS'215'
p2999
aa(lp3000
g2
ag32
aS'213'
p3001
aa(lp3002
g2
ag32
aS'302'
p3003
aa(lp3004
g2
ag32
aS'234'
p3005
aa(lp3006
g2
ag2916
aS'225'
p3007
aa(lp3008
g2
ag37
aS'201'
p3009
aa(lp3010
g2
ag32
aS'233'
p3011
aa(lp3012
g2
ag2916
aS'214'
p3013
aa(lp3014
g2
ag32
aS'231'
p3015
aa(lp3016
g2
ag32
aS'225'
p3017
aa(lp3018
g2
ag32
aS'108'
p3019
aa(lp3020
g2
ag32
aS'235'
p3021
aa(lp3022
g2
ag56
aS'243'
p3023
aa(lp3024
g2
ag3
aS'062'
p3025
aa(lp3026
g2
ag86
aS'310'
p3027
aa(lp3028
g2
ag86
aS'307'
p3029
aa(lp3030
g2
ag2970
aS'116'
p3031
aa(lp3032
g2
ag2970
aS'115'
p3033
aa(lp3034
g2
ag152
aS'225'
p3035
aa(lp3036
g2
ag2970
aS'121'
p3037
aa(lp3038
g2
ag32
aS'414'
p3039
aa(lp3040
g2
ag56
aS'131'
p3041
aa(lp3042
g2
ag56
aS'231'
p3043
aa(lp3044
g2
ag56
aS'233'
p3045
aa(lp3046
g2
ag56
aS'132'
p3047
aa(lp3048
g2
ag32
aS'415'
p3049
aa(lp3050
g2
ag56
aS'237'
p3051
aa(lp3052
g2
ag56
aS'216'
p3053
aa(lp3054
g2
ag56
aS'112'
p3055
aa(lp3056
g2
ag37
aS'300S'
p3057
aa(lp3058
g2
ag37
aS'300N'
p3059
aa(lp3060
g2
ag51
aS'726'
p3061
aa(lp3062
g2
ag2916
aS'111'
p3063
aa(lp3064
g2
ag51
aS'721'
p3065
aa(lp3066
g2
ag56
aS'503'
p3067
aa(lp3068
g2
ag86
aS'311'
p3069
aa(lp3070
g2
ag56
aS'516'
p3071
aa(lp3072
g2
ag56
aS'511'
p3073
aa(lp3074
g2
ag37
aS'200N'
p3075
aa(lp3076
g2
ag37
aS'201S'
p3077
aa(lp3078
g2
ag51
aS'634'
p3079
aa(lp3080
g2
ag51
aS'625'
p3081
aa(lp3082
g2
ag51
aS'633'
p3083
aa(lp3084
g2
ag2970
aS'322'
p3085
aa(lp3086
g2
ag37
aS'204'
p3087
aa(lp3088
g2
ag37
aS'101N'
p3089
aa(lp3090
g2
ag56
aS'521'
p3091
aa(lp3092
g2
ag56
aS'536'
p3093
aa(lp3094
g2
ag56
aS'527'
p3095
aa(lp3096
g2
ag86
aS'075'
p3097
aa(lp3098
g2
ag86
aS'074'
p3099
aa(lp3100
g2
ag2916
aS'119'
p3101
aa(lp3102
g2
ag2970
aS'112'
p3103
aa(lp3104
g2
ag2970
aS'113'
p3105
aa(lp3106
g2
ag2970
aS'111'
p3107
aa(lp3108
g2
ag86
aS'T05'
p3109
aa(lp3110
g2
ag37
aS'205'
p3111
aa(lp3112
g2
ag37
aS'400N'
p3113
aa(lp3114
g2
ag37
aS'216'
p3115
aa(lp3116
g2
ag32
aS'333'
p3117
aa(lp3118
g2
ag32
aS'331'
p3119
aa(lp3120
g2
ag37
aS'207'
p3121
aa(lp3122
g2
ag51
aS'332'
p3123
aa(lp3124
g2
ag37
aS'206'
p3125
aa(lp3126
g2
ag32
aS'131'
p3127
aa(lp3128
g2
ag51
aS'313'
p3129
aa(lp3130
g2
ag2970
aS'404'
p3131
aa(lp3132
g2
ag51
aS'616'
p3133
aa(lp3134
g2
ag51
aS'613'
p3135
aa(lp3136
g2
ag51
aS'611'
p3137
aa(lp3138
g2
ag51
aS'615'
p3139
aa(lp3140
g2
ag51
aS'617'
p3141
aa(lp3142
g2
ag51
aS'612'
p3143
aa(lp3144
g2
ag51
aS'436'
p3145
aa(lp3146
g2
ag152
aS'217'
p3147
aa(lp3148
g2
ag152
aS'216'
p3149
aa(lp3150
g2
ag56
aS'414'
p3151
aa(lp3152
g2
ag56
aS'526'
p3153
aa(lp3154
g2
ag56
aS'524'
p3155
aa(lp3156
g2
ag37
aS'400S'
p3157
aa(lp3158
g2
ag32
aS'133'
p3159
aa(lp3160
g2
ag86
aS'087'
p3161
aa(lp3162
g2
ag152
aS'215'
p3163
aa(lp3164
g2
ag32
aS'221'
p3165
aa(lp3166
g2
ag2970
aS'431'
p3167
aa(lp3168
g2
ag2970
aS'333'
p3169
aa(lp3170
g2
ag2905
aS'301'
p3171
aa(lp3172
g2
ag2905
aS'303'
p3173
aa(lp3174
g2
ag2905
aS'406'
p3175
aa(lp3176
g2
ag2905
aS'404'
p3177
aa(lp3178
g2
ag2905
aS'402'
p3179
aa(lp3180
g2
ag2970
aS'412'
p3181
aa(lp3182
g2
aS'LAUGHLIN'
p3183
aS'513'
p3184
aa(lp3185
g2
ag2925
aS'511'
p3186
aa(lp3187
g2
ag32
aS'358'
p3188
aa(lp3189
g2
ag32
aS'356'
p3190
aa(lp3191
g2
ag32
aS'238'
p3192
aa(lp3193
g2
ag32
aS'240'
p3194
aa(lp3195
g2
ag2925
aS'521'
p3196
aa(lp3197
g2
ag2925
aS'437'
p3198
aa(lp3199
g2
ag2970
aS'132'
p3200
aa(lp3201
g2
ag51
aS'342'
p3202
aa(lp3203
g2
ag2932
aS'305'
p3204
aa(lp3205
g2
ag2925
aS'401'
p3206
aa(lp3207
g2
ag32
aS'154'
p3208
aa(lp3209
g2
ag32
aS'152'
p3210
aa(lp3211
g2
ag32
aS'308'
p3212
aa(lp3213
g2
ag51
aS'603'
p3214
aa(lp3215
g2
ag56
aS'134'
p3216
aa(lp3217
g2
ag2916
aS'118'
p3218
aa(lp3219
S'WILSON'
p3220
ag2642
aS'121'
p3221
aa(lp3222
g2
ag51
aS'213'
p3223
aa(lp3224
g2
ag51
aS'224'
p3225
aa(lp3226
g2
ag51
aS'223'
p3227
aa(lp3228
g2
ag51
aS'632'
p3229
aa(lp3230
g2
ag51
aS'624'
p3231
aa(lp3232
g2
ag51
aS'321'
p3233
aa(lp3234
g2
ag2970
aS'312'
p3235
aa(lp3236
g2
ag2970
aS'313'
p3237
aa(lp3238
g2
ag51
aS'727'
p3239
aa(lp3240
g2
ag32
aS'315'
p3241
aa(lp3242
g2
ag32
aS'313'
p3243
aa(lp3244
g2
ag32
aS'256'
p3245
aa(lp3246
g2
ag32
aS'258'
p3247
aa(lp3248
g2
ag32
aS'321'
p3249
aa(lp3250
g2
ag32
aS'355'
p3251
aa(lp3252
g2
ag56
aS'322'
p3253
aa(lp3254
g2
ag56
aS'332'
p3255
aa(lp3256
g2
ag56
aS'431'
p3257
aa(lp3258
g2
ag56
aS'333'
p3259
aa(lp3260
g2
ag152
aS'322'
p3261
aa(lp3262
g2
ag2932
aS'204'
p3263
aa(lp3264
g2
ag2932
aS'205'
p3265
aa(lp3266
g2
ag2932
aS'202'
p3267
aa(lp3268
g2
ag2932
aS'203'
p3269
aa(lp3270
g2
ag2932
aS'201'
p3271
aa(lp3272
g2
ag32
aS'323'
p3273
aa(lp3274
g2
ag2932
aS'325'
p3275
aa(lp3276
g2
ag2932
aS'315'
p3277
aa(lp3278
g2
ag2932
aS'324'
p3279
aa(lp3280
g2
ag2932
aS'314'
p3281
aa(lp3282
g2
ag2932
aS'335'
p3283
aa(lp3284
g2
ag2932
aS'334'
p3285
aa(lp3286
g2
ag51
aS'344'
p3287
aa(lp3288
g2
ag56
aS'227'
p3289
aa(lp3290
g2
ag56
aS'225'
p3291
aa(lp3292
g2
ag32
aS'140'
p3293
aa(lp3294
g2
ag56
aS'125'
p3295
aa(lp3296
g2
ag3
aS'072'
p3297
aa(lp3298
g2
ag3183
aS'523'
p3299
aa(lp3300
g2
ag86
aS'041'
p3301
aa(lp3302
g2
ag32
aS'222'
p3303
aa(lp3304
g2
ag32
aS'325'
p3305
aa(lp3306
g2
ag32
aS'327'
p3307
aa(lp3308
g2
ag2932
aS'222'
p3309
aa(lp3310
g2
ag2932
aS'214'
p3311
aa(lp3312
g2
ag2932
aS'121'
p3313
aa(lp3314
g2
ag37
aS'301N'
p3315
aa(lp3316
g2
ag56
aS'215'
p3317
aa(lp3318
g2
ag32
aS'254'
p3319
aa(lp3320
g2
ag32
aS'252'
p3321
aa(lp3322
g2
ag32
aS'350'
p3323
aa(lp3324
g2
ag32
aS'354'
p3325
aa(lp3326
g2
ag32
aS'348'
p3327
aa(lp3328
g2
ag32
aS'352'
p3329
aa(lp3330
g2
ag32
aS'436'
p3331
aa(lp3332
g2
ag32
aS'247'
p3333
aa(lp3334
g2
ag152
aS'121'
p3335
aa(lp3336
g2
ag86
aS'408'
p3337
aa(lp3338
g2
ag56
aS'221'
p3339
aa(lp3340
g2
ag51
aS'412'
p3341
aa(lp3342
g2
ag86
aS'083'
p3343
aa(lp3344
g2
ag86
aS'T08'
p3345
aa(lp3346
g2
ag56
aS'222'
p3347
aa(lp3348
g2
ag51
aS'413'
p3349
aa(lp3350
g2
ag51
aS'414'
p3351
aa(lp3352
g2
ag51
aS'411'
p3353
aa(lp3354
g2
ag37
aS'415'
p3355
aa(lp3356
g2
ag152
aS'116'
p3357
aa(lp3358
g2
ag152
aS'213'
p3359
aa(lp3360
g2
ag37
aS'405'
p3361
aa(lp3362
g2
ag37
aS'202S'
p3363
aa(lp3364
g2
ag51
aS'134'
p3365
aa(lp3366
g2
ag2970
aS'441'
p3367
aa(lp3368
g2
ag56
aS'513'
p3369
aa(lp3370
g2
ag56
aS'514'
p3371
aa(lp3372
g2
ag56
aS'143'
p3373
aa(lp3374
g2
ag56
aS'113'
p3375
aa(lp3376
g2
ag56
aS'111'
p3377
aa(lp3378
g2
ag56
aS'211'
p3379
aa(lp3380
g2
ag56
aS'512'
p3381
aa(lp3382
g2
ag56
aS'323'
p3383
aa(lp3384
g2
ag56
aS'121'
p3385
aa(lp3386
g2
ag37
aS'302S'
p3387
aa(lp3388
g2
ag56
aS'312'
p3389
aa(lp3390
g2
ag51
aS'334'
p3391
aa(lp3392
g2
ag51
aS'331'
p3393
aa(lp3394
g2
ag51
aS'312'
p3395
aa(lp3396
g2
ag51
aS'343'
p3397
aa(lp3398
g2
ag51
aS'311'
p3399
aa(lp3400
g2
ag2932
aS'333'
p3401
aa(lp3402
g2
ag2932
aS'332'
p3403
aa(lp3404
g2
ag37
aS'201N'
p3405
aa(lp3406
g2
ag37
aS'101S'
p3407
aa(lp3408
g2
ag37
aS'102S'
p3409
aa(lp3410
g2
ag2932
aS'101'
p3411
aa(lp3412
g2
ag2932
aS'102'
p3413
aa(lp3414
g2
ag2916
aS'219'
p3415
aa(lp3416
g2
ag32
aS'440'
p3417
aa(lp3418
g2
ag131
aS'212'
p3419
aa(lp3420
g2
ag51
aS'241'
p3421
aa(lp3422
g2
ag51
aS'243'
p3423
aa(lp3424
g2
ag51
aS'341'
p3425
aa(lp3426
g2
ag86
aS'T02'
p3427
aa(lp3428
g2
ag86
aS'089'
p3429
aa(lp3430
g2
ag86
aS'064'
p3431
aa(lp3432
g2
ag51
aS'144'
p3433
aa(lp3434
g2
ag86
aS'070'
p3435
aa(lp3436
g2
ag51
aS'433'
p3437
aa(lp3438
g2
ag2932
aS'313'
p3439
aa(lp3440
g2
ag51
aS'426'
p3441
aa(lp3442
g2
ag51
aS'427'
p3443
aa(lp3444
g2
ag2905
aS'401'
p3445
aa(lp3446
g2
ag131
aS'402'
p3447
aa(lp3448
g2
ag131
aS'241'
p3449
aa(lp3450
g2
ag131
aS'401'
p3451
aa(lp3452
g2
ag37
aS'301'
p3453
aa(lp3454
g2
ag32
aS'227'
p3455
aa(lp3456
g2
ag37
aS'202N'
p3457
aa(lp3458
g2
ag51
aS'714'
p3459
aa(lp3460
g2
ag37
aS'211'
p3461
aa(lp3462
g2
ag71
aS'399'
p3463
aa(lp3464
g2
ag71
aS'112'
p3465
aa(lp3466
g2
ag51
aS'214'
p3467
aa(lp3468
g2
ag2970
aS'142'
p3469
aa(lp3470
g2
ag32
aS'340'
p3471
aa(lp3472
g2
ag51
aS'425'
p3473
aa(lp3474
g2
ag51
aS'428'
p3475
aa(lp3476
g2
ag51
aS'422'
p3477
aa(lp3478
g2
ag51
aS'423'
p3479
aa(lp3480
g2
ag51
aS'421'
p3481
aa(lp3482
g2
ag86
aS'T04'
p3483
aa(lp3484
g2
ag86
aS'T07'
p3485
aa(lp3486
g2
ag86
aS'T09'
p3487
aa(lp3488
g2
ag2925
aS'404'
p3489
aa(lp3490
g2
ag51
aS'435'
p3491
aa(lp3492
g2
ag2932
aS'323'
p3493
aa(lp3494
g2
ag2932
aS'123'
p3495
aa(lp3496
g2
ag2905
aS'302'
p3497
aa(lp3498
g2
ag2970
aS'202'
p3499
aa(lp3500
g2
ag51
aS'438'
p3501
aa(lp3502
g2
ag51
aS'324'
p3503
aa(lp3504
g2
ag51
aS'325'
p3505
aa(lp3506
g2
ag56
aS'313'
p3507
aa(lp3508
g2
ag32
aS'345'
p3509
aa(lp3510
g2
ag37
aS'200'
p3511
aa(lp3512
g2
ag51
aS'424'
p3513
aa(lp3514
g2
ag51
aS'431'
p3515
aa(lp3516
g2
ag51
aS'429'
p3517
aa(lp3518
g2
ag51
aS'439'
p3519
aa(lp3520
g2
ag2970
aS'311'
p3521
aa(lp3522
g2
ag32
aS'125'
p3523
aa(lp3524
g2
ag32
aS'115'
p3525
aa(lp3526
g2
ag32
aS'127'
p3527
aa(lp3528
g2
ag32
aS'113'
p3529
aa(lp3530
g2
ag56
aS'234'
p3531
aa(lp3532
g2
ag32
aS'202'
p3533
aa(lp3534
g2
ag32
aS'102'
p3535
aa(lp3536
g2
ag56
aS'525'
p3537
aa(lp3538
g2
ag32
aS'418'
p3539
aa(lp3540
g2
ag32
aS'410'
p3541
aa(lp3542
g2
ag32
aS'428'
p3543
aa(lp3544
g2
ag32
aS'412'
p3545
aa(lp3546
g2
ag3183
aS'626'
p3547
aa(lp3548
g2
ag86
aS'T11'
p3549
aa(lp3550
g2
ag152
aS'313'
p3551
aa(lp3552
S'WILSON'
p3553
ag2612
aS'336'
p3554
aa(lp3555
g2
ag32
aS'121'
p3556
aa(lp3557
g2
ag37
aS'301S'
p3558
aa(lp3559
g2
ag32
aS'432'
p3560
aa(lp3561
g2
ag3183
aS'622'
p3562
aa(lp3563
g2
ag3183
aS'624'
p3564
aa(lp3565
g2
ag2970
aS'413'
p3566
aa(lp3567
g2
ag3183
aS'623'
p3568
aa(lp3569
g2
ag37
aS'402N'
p3570
aa(lp3571
g2
ag2970
aS'314'
p3572
aa(lp3573
g2
ag32
aS'223'
p3574
aa(lp3575
g2
ag71
aS'A46'
p3576
aa(lp3577
g2
ag71
aS'A28'
p3578
aa(lp3579
g2
ag56
aS'235'
p3580
aa(lp3581
g2
ag56
aS'224'
p3582
aa(lp3583
g2
ag56
aS'223'
p3584
aa(lp3585
g2
ag2916
aS'114'
p3586
aa(lp3587
g2
ag2905
aS'032'
p3588
aa(lp3589
g2
ag51
aS'225'
p3590
aa(lp3591
g2
ag32
aS'349'
p3592
aa(lp3593
g2
ag32
aS'347'
p3594
aa(lp3595
g2
ag56
aS'142'
p3596
aa(lp3597
g2
ag56
aS'515'
p3598
aa(lp3599
g2
ag2925
aS'421'
p3600
aa(lp3601
g2
ag56
aS'124'
p3602
aa(lp3603
g2
ag37
aS'215'
p3604
aa(lp3605
g2
ag37
aS'210'
p3606
aa(lp3607
g2
ag56
aS'126'
p3608
aa(lp3609
g2
ag56
aS'136'
p3610
aa(lp3611
g2
ag56
aS'135'
p3612
aa(lp3613
g2
ag71
aS'111'
p3614
aa(lp3615
g2
ag56
aS'114'
p3616
aa(lp3617
g2
ag71
aS'A20'
p3618
aa(lp3619
g2
ag2905
aS'010'
p3620
aa(lp3621
g2
ag2916
aS'222'
p3622
aa(lp3623
g2
ag2916
aS'221'
p3624
aa(lp3625
g2
ag37
aS'202'
p3626
aa(lp3627
g2
ag56
aS'433'
p3628
aa(lp3629
g2
ag2925
aS'438'
p3630
aa(lp3631
g2
ag56
aS'523'
p3632
aa(lp3633
g2
ag37
aS'302N'
p3634
aa(lp3635
g2
ag37
aS'300'
p3636
aa(lp3637
g2
ag37
aS'102N'
p3638
aa(lp3639
g2
ag37
aS'311'
p3640
aa(lp3641
g2
ag37
aS'314'
p3642
aa(lp3643
g2
ag152
aS'301'
p3644
aa(lp3645
g2
ag32
aS'158'
p3646
aa(lp3647
g2
ag2925
aS'432'
p3648
aa(lp3649
g2
ag37
aS'416'
p3650
aa(lp3651
g2
ag37
aS'404'
p3652
aa(lp3653
g2
ag37
aS'414'
p3654
aa(lp3655
g2
ag37
aS'402S'
p3656
aa(lp3657
g2
ag37
aS'417'
p3658
aa(lp3659
g2
ag37
aS'407'
p3660
aa(lp3661
g2
ag86
aS'308'
p3662
aa(lp3663
g2
ag56
aS'411'
p3664
aa(lp3665
g2
ag2925
aS'433'
p3666
aa(lp3667
g2
ag2925
aS'439'
p3668
aa(lp3669
g2
ag2925
aS'431'
p3670
aa(lp3671
g2
ag32
aS'371'
p3672
aa(lp3673
g2
ag32
aS'373'
p3674
aa(lp3675
g2
ag152
aS'204'
p3676
aa(lp3677
g2
ag32
aS'123'
p3678
aa(lp3679
g2
ag131
aS'413'
p3680
aa(lp3681
g2
ag56
aS'432'
p3682
aa(lp3683
g2
ag2970
aS'405'
p3684
aa(lp3685
g2
ag3183
aS'633'
p3686
aa(lp3687
g2
ag86
aS'040'
p3688
aa(lp3689
g2
ag3183
aS'627'
p3690
aa(lp3691
g2
ag32
aS'253'
p3692
aa(lp3693
g2
ag2916
aS'312'
p3694
aa(lp3695
g2
ag2916
aS'314'
p3696
aa(lp3697
g2
ag56
aS'141'
p3698
aa(lp3699
g2
ag2916
aS'321'
p3700
aa(lp3701
g2
ag2970
aS'402'
p3702
aa(lp3703
g2
ag51
aS'711'
p3704
aa(lp3705
g2
ag51
aS'713'
p3706
aa(lp3707
g2
ag51
aS'712'
p3708
aa(lp3709
g2
ag51
aS'715'
p3710
aa(lp3711
g2
ag51
aS'719'
p3712
aa(lp3713
g2
ag51
aS'731'
p3714
aa(lp3715
g2
ag51
aS'732'
p3716
aa(lp3717
g2
ag51
aS'717'
p3718
aa(lp3719
g2
ag152
aS'233'
p3720
aa(lp3721
g2
ag86
aS'309'
p3722
aa(lp3723
g2
ag152
aS'203'
p3724
aa(lp3725
g2
ag131
aS'112'
p3726
aa(lp3727
g2
ag3183
aS'615'
p3728
aa(lp3729
g2
ag131
aS'102'
p3730
aa(lp3731
g2
ag2905
aS'403'
p3732
aa(lp3733
g2
ag86
aS'T10'
p3734
aa(lp3735
g2
ag2916
aS'325'
p3736
aa(lp3737
g2
ag2916
aS'220'
p3738
aa(lp3739
g2
ag2916
aS'213'
p3740
aa(lp3741
g2
ag51
aS'123'
p3742
aa(lp3743
g2
ag2925
aS'233'
p3744
aa(lp3745
g2
ag37
aS'406'
p3746
aa(lp3747
g2
ag37
aS'213'
p3748
aa(lp3749
g2
ag131
aS'313'
p3750
aa(lp3751
g2
ag131
aS'312'
p3752
aa(lp3753
g2
ag131
aS'315'
p3754
aa(lp3755
g2
ag131
aS'411'
p3756
aa(lp3757
g2
ag2916
aS'328'
p3758
aa(lp3759
g2
ag152
aS'205'
p3760
aa(lp3761
g2
ag37
aS'316'
p3762
aa(lp3763
g2
ag2925
aS'235'
p3764
aa(lp3765
g2
ag2925
aS'236'
p3766
aa(lp3767
g2
ag2925
aS'232'
p3768
aa(lp3769
g2
ag152
aS'312'
p3770
aa(lp3771
g2
ag2925
aS'632'
p3772
aa(lp3773
g2
ag37
aS'315'
p3774
aa(lp3775
g2
ag37
aS'317'
p3776
aa(lp3777
g2
ag56
aS'244'
p3778
aa(lp3779
g2
ag152
aS'236'
p3780
aa(lp3781
g2
ag152
aS'207'
p3782
aa(lp3783
g2
ag56
aS'242'
p3784
aa(lp3785
g2
ag71
aS'141'
p3786
aa(lp3787
g2
ag56
aS'232'
p3788
aa(lp3789
g2
ag152
aS'206'
p3790
aa(lp3791
g2
ag2916
aS'319'
p3792
aa(lp3793
g2
ag32
aS'264'
p3794
aa(lp3795
g2
ag32
aS'266'
p3796
aa(lp3797
g2
ag32
aS'362'
p3798
aa(lp3799
g2
ag32
aS'268'
p3800
aa(lp3801
g2
ag152
aS'324'
p3802
aa(lp3803
g2
ag152
aS'220'
p3804
aa(lp3805
g2
ag152
aS'229'
p3806
aa(lp3807
g2
ag152
aS'214'
p3808
aa(lp3809
g2
ag152
aS'224'
p3810
aa(lp3811
g2
ag152
aS'151'
p3812
aa(lp3813
g2
ag152
aS'211'
p3814
aa(lp3815
g2
ag152
aS'202'
p3816
aa(lp3817
g2
ag2970
aS'223'
p3818
aa(lp3819
g2
ag51
aS'601'
p3820
aa(lp3821
g2
ag51
aS'722'
p3822
aa(lp3823
g2
ag51
aS'741'
p3824
aa(lp3825
g2
ag86
aS'T06'
p3826
aa(lp3827
g2
ag37
aS'304'
p3828
aa(lp3829
g2
ag51
aS'701'
p3830
aa(lp3831
g2
ag51
aS'703'
p3832
aa(lp3833
g2
ag51
aS'702'
p3834
aa(lp3835
g2
ag51
aS'705'
p3836
aa(lp3837
g2
ag152
aS'201'
p3838
aa(lp3839
g2
ag32
aS'122'
p3840
aa(lp3841
g2
ag2925
aS'112'
p3842
aa(lp3843
g2
ag32
aS'338'
p3844
aa(lp3845
g2
ag32
aS'336'
p3846
aa(lp3847
g2
ag152
aS'230'
p3848
aa(lp3849
g2
ag152
aS'136'
p3850
aa(lp3851
g2
ag152
aS'231'
p3852
aa(lp3853
g2
ag152
aS'235'
p3854
aa(lp3855
g2
ag152
aS'132'
p3856
aa(lp3857
g2
ag32
aS'134'
p3858
aa(lp3859
g2
ag32
aS'132'
p3860
aa(lp3861
g2
ag32
aS'142'
p3862
aa(lp3863
g2
ag32
aS'144'
p3864
aa(lp3865
g2
ag32
aS'138'
p3866
aa(lp3867
g2
ag32
aS'136'
p3868
aa(lp3869
S'FORBES'
p3870
ag1363
aS'A374'
p3871
aa(lp3872
g2
ag32
aS'326'
p3873
aa(lp3874
g2
ag32
aS'330'
p3875
aa(lp3876
g2
ag32
aS'328'
p3877
aa(lp3878
g2
ag32
aS'324'
p3879
aa(lp3880
g2
ag32
aS'249'
p3881
aa(lp3882
g2
ag71
aS'146'
p3883
aa(lp3884
g2
ag37
aS'312'
p3885
aa(lp3886
g2
ag32
aS'128'
p3887
aa(lp3888
g2
ag32
aS'130'
p3889
aa(lp3890
g2
ag2970
aS'114'
p3891
aa(lp3892
g2
ag2932
aS'301'
p3893
aa(lp3894
g2
ag2932
aS'302'
p3895
aa(lp3896
g2
ag2932
aS'307'
p3897
aa(lp3898
g2
ag2932
aS'306'
p3899
aa(lp3900
g2
ag2932
aS'303'
p3901
aa(lp3902
g2
ag71
aS'115'
p3903
aa(lp3904
g2
ag152
aS'218'
p3905
aa(lp3906
g2
ag152
aS'226'
p3907
aa(lp3908
g2
ag2970
aS'235'
p3909
aa(lp3910
g2
ag2970
aS'233'
p3911
aa(lp3912
g2
ag2970
aS'234'
p3913
aa(lp3914
g2
ag2916
aS'326'
p3915
aa(lp3916
g2
ag32
aS'334'
p3917
aa(lp3918
g2
ag131
aS'114'
p3919
aa(lp3920
g2
ag131
aS'242'
p3921
aa(lp3922
g2
ag131
aS'111'
p3923
aa(lp3924
g2
ag32
aS'117'
p3925
aa(lp3926
g2
ag2932
aS'341'
p3927
aa(lp3928
g2
ag32
aS'318'
p3929
aa(lp3930
g2
ag32
aS'316'
p3931
aa(lp3932
g2
ag32
aS'314'
p3933
aa(lp3934
g2
ag32
aS'270'
p3935
aa(lp3936
g2
ag2925
aS'601'
p3937
aa(lp3938
g2
ag32
aS'312'
p3939
aa(lp3940
g2
ag32
aS'420'
p3941
aa(lp3942
g2
ag152
aS'232'
p3943
aa(lp3944
g2
ag32
aS'166'
p3945
aa(lp3946
g2
ag32
aS'164'
p3947
aa(lp3948
g2
ag86
aS'080'
p3949
aa(lp3950
g2
ag51
aS'316'
p3951
aa(lp3952
g2
ag2932
aS'312'
p3953
aa(lp3954
g2
ag32
aS'360'
p3955
aa(lp3956
g2
ag51
aS'642'
p3957
aa(lp3958
g2
ag3183
aS'512'
p3959
aa(lp3960
g2
ag37
aS'306'
p3961
aa(lp3962
g2
ag86
aS'T03'
p3963
aa(lp3964
g2
ag71
aS'142'
p3965
aa(lp3966
g2
ag51
aS'222'
p3967
aa(lp3968
g2
ag3183
aS'522'
p3969
aa(lp3970
g2
ag32
aS'272'
p3971
aa(lp3972
g2
ag32
aS'353'
p3973
aa(lp3974
g2
ag51
aS'212'
p3975
aa(lp3976
g2
ag86
aS'076'
p3977
aa(lp3978
g2
ag2925
aS'122'
p3979
aa(lp3980
g2
ag86
aS'060'
p3981
aa(lp3982
g2
ag152
aS'141'
p3983
aa(lp3984
g2
ag56
aS'422'
p3985
aa(lp3986
g2
ag71
aS'123'
p3987
aa(lp3988
g2
ag2970
aS'224'
p3989
aa(lp3990
g2
ag2970
aS'301'
p3991
aa(lp3992
g2
ag2916
aS'420'
p3993
aa(lp3994
g2
ag2970
aS'214'
p3995
aa(lp3996
g2
ag2970
aS'213'
p3997
aa(lp3998
g2
ag3183
aS'621'
p3999
aa(lp4000
g2
ag2970
aS'324'
p4001
aa(lp4002
g2
ag2970
aS'225'
p4003
aa(lp4004
g2
ag2925
aS'622'
p4005
aa(lp4006
g2
ag2970
aS'226'
p4007
aa(lp4008
g2
ag2970
aS'321'
p4009
aa(lp4010
g2
ag32
aS'245'
p4011
aa(lp4012
g2
ag2905
aS'304'
p4013
aa(lp4014
g2
ag32
aS'156'
p4015
aa(lp4016
g2
ag32
aS'310'
p4017
aa(lp4018
g2
ag56
aS'534'
p4019
aa(lp4020
g2
ag37
aS'103'
p4021
aa(lp4022
g2
ag2932
aS'331'
p4023
aa(lp4024
g2
ag2932
aS'132'
p4025
aa(lp4026
g2
ag2932
aS'122'
p4027
aa(lp4028
g2
ag2932
aS'213'
p4029
aa(lp4030
g2
ag2932
aS'215'
p4031
aa(lp4032
g2
ag37
aS'310'
p4033
aa(lp4034
g2
ag71
aS'131'
p4035
aa(lp4036
g2
ag131
aS'211'
p4037
aa(lp4038
g2
ag2970
aS'335'
p4039
aa(lp4040
g2
ag32
aS'218'
p4041
aa(lp4042
g2
ag2916
aS'113'
p4043
aa(lp4044
g2
ag32
aS'217'
p4045
aa(lp4046
g2
ag32
aS'216'
p4047
aa(lp4048
g2
ag2916
aS'121'
p4049
aa(lp4050
g2
ag2970
aS'201'
p4051
aa(lp4052
g2
ag152
aS'123'
p4053
aa(lp4054
g2
ag131
aS'331'
p4055
aa(lp4056
g2
ag2970
aS'103'
p4057
aa(lp4058
g2
ag44
aS'E402'
p4059
aa(lp4060
g2
ag131
aS'412'
p4061
aa(lp4062
g2
ag131
aS'333'
p4063
aa(lp4064
g2
ag131
aS'421'
p4065
aa(lp4066
g2
ag2970
aS'126'
p4067
aa(lp4068
g2
ag37
aS'305'
p4069
aa(lp4070
g2
ag131
aS'101'
p4071
aa(lp4072
g2
ag131
aS'104'
p4073
aa(lp4074
g2
ag86
aS'062'
p4075
aa(lp4076
g2
ag37
aS'302'
p4077
aa(lp4078
g2
ag2970
aS'105'
p4079
aa(lp4080
g2
ag51
aS'315'
p4081
aa(lp4082
g2
ag51
aS'742'
p4083
aa(lp4084
g2
ag2970
aS'131'
p4085
aa(lp4086
g2
ag2916
aS'322'
p4087
aa(lp4088
g2
ag152
aS'321'
p4089
aa(lp4090
g2
ag2916
aS'123'
p4091
aa(lp4092
g2
ag71
aS'A10'
p4093
aa(lp4094
g2
ag2916
aS'125'
p4095
aa(lp4096
g2
ag37
aS'307'
p4097
aa(lp4098
g2
ag37
aS'217'
p4099
aa(lp4100
g2
ag32
aS'212'
p4101
aa(lp4102
g2
ag32
aS'214'
p4103
aa(lp4104
g2
ag2932
aS'308'
p4105
aa(lp4106
g2
ag152
aS'221'
p4107
aa(lp4108
g2
ag51
aS'716'
p4109
aa(lp4110
g2
ag2905
aS'031'
p4111
aa(lp4112
g2
ag51
aS'733'
p4113
aa(lp4114
g2
ag32
aS'201'
p4115
aa(lp4116
g2
ag32
aS'124'
p4117
aa(lp4118
g2
ag32
aS'149'
p4119
aa(lp4120
g2
ag32
aS'430'
p4121
aa(lp4122
g2
ag71
aS'122'
p4123
aa(lp4124
g2
ag56
aS'334'
p4125
aa(lp4126
g2
ag32
aS'361'
p4127
aa(lp4128
g2
ag56
aS'133'
p4129
aa(lp4130
g2
ag152
aS'133'
p4131
aa(lp4132
g2
ag3183
aS'533'
p4133
aa(lp4134
g2
ag3183
aS'614'
p4135
aa(lp4136
g2
ag2970
aS'117'
p4137
aa(lp4138
g2
ag2970
aS'232'
p4139
aa(lp4140
g2
ag2916
aS'414'
p4141
aa(lp4142
g2
ag2925
aS'623'
p4143
aa(lp4144
g2
ag152
aS'137'
p4145
aa(lp4146
g2
ag2916
aS'413'
p4147
aa(lp4148
g2
ag71
aS'121'
p4149
aa(lp4150
g2
ag71
aS'143'
p4151
aa(lp4152
g2
ag2916
aS'117'
p4153
aa(lp4154
g2
ag71
aS'134'
p4155
aa(lp4156
g2
ag2925
aS'634'
p4157
aa(lp4158
g2
ag32
aS'335'
p4159
aa(lp4160
g2
ag2916
aS'313'
p4161
aa(lp4162
g2
ag3183
aS'534'
p4163
aa(lp4164
g2
ag131
aS'325'
p4165
aa(lp4166
g2
ag3183
aS'532'
p4167
aa(lp4168
g2
ag71
aS'101'
p4169
aa(lp4170
g2
ag32
aS'438'
p4171
aa(lp4172
g2
ag71
aS'A56'
p4173
aa(lp4174
g2
ag51
aS'643'
p4175
aa(lp4176
g2
ag152
aS'222A'
p4177
aa(lp4178
g2
ag152
aS'314'
p4179
aa(lp4180
g2
ag2970
aS'223A'
p4181
aa(lp4182
g2
ag32
aS'204'
p4183
aa(lp4184
g2
ag32
aS'226'
p4185
aa(lp4186
g2
ag32
aS'434'
p4187
aa(lp4188
g2
ag32
aS'433'
p4189
aa(lp4190
g2
ag3183
aS'531'
p4191
aa(lp4192
g2
ag2970
aS'401'
p4193
aa(lp4194
g2
ag56
aS'533'
p4195
aa(lp4196
g2
ag2916
aS'126'
p4197
aa(lp4198
g2
ag2970
aS'215'
p4199
aa(lp4200
g2
ag131
aS'423'
p4201
aa(lp4202
g2
ag131
aS'332'
p4203
aa(lp4204
g2
ag2970
aS'211'
p4205
aa(lp4206
g2
ag131
aS'422'
p4207
aa(lp4208
g2
ag86
aS'072'
p4209
aa(lp4210
g2
ag86
aS'073'
p4211
aa(lp4212
g2
ag2905
aS'021'
p4213
aa(lp4214
g2
ag2916
aS'425'
p4215
aa(lp4216
g2
ag2925
aS'436'
p4217
aa(lp4218
g2
ag3183
aS'612'
p4219
aa(lp4220
g2
ag2932
aS'328'
p4221
aa(lp4222
g2
ag152
aS'134'
p4223
aa(lp4224
g2
ag86
aS'088'
p4225
aa(lp4226
g2
ag2925
aS'231'
p4227
aa(lp4228
g2
ag86
aS'061'
p4229
aa(lp4230
g2
ag32
aS'301'
p4231
aa(lp4232
g2
ag2905
aS'011'
p4233
aa(lp4234
g2
ag2916
aS'422'
p4235
aa(lp4236
g2
ag2970
aS'332'
p4237
aa(lp4238
g2
ag2925
aS'111'
p4239
aa(lp4240
g2
ag2925
aS'121'
p4241
aa(lp4242
g2
ag32
aS'442'
p4243
aa(lp4244
g2
ag32
aS'274'
p4245
aa(lp4246
g2
ag32
aS'374'
p4247
aa(lp4248
g2
ag86
aS'312'
p4249
aa(lp4250
g2
ag2925
aS'434'
p4251
aa(lp4252
g2
ag2916
aS'426'
p4253
aa(lp4254
g2
ag2916
aS'417'
p4255
aa(lp4256
g2
ag2925
aS'435'
p4257
aa(lp4258
g2
ag2916
aS'218'
p4259
aa(lp4260
g2
ag131
aS'201'
p4261
aa(lp4262
g2
ag56
aS'413'
p4263
aa(lp4264
g2
ag32
aS'104'
p4265
aa(lp4266
g2
ag32
aS'106'
p4267
aa(lp4268
g2
ag32
aS'236'
p4269
aa(lp4270
g2
ag32
aS'435'
p4271
aa(lp4272
g2
ag56
aS'321'
p4273
aa(lp4274
g2
ag32
aS'126'
p4275
aa(lp4276
g2
ag56
aS'324'
p4277
aa(lp4278
g2
ag32
aS'448'
p4279
aa(lp4280
g2
ag37
aS'303'
p4281
aa(lp4282
g2
ag51
aS'725'
p4283
aa(lp4284
g2
ag51
aS'442'
p4285
aa(lp4286
g2
ag51
aS'743'
p4287
aa(lp4288
g2
ag32
aS'322'
p4289
aa(lp4290
g2
ag32
aS'118'
p4291
aa(lp4292
g2
ag32
aS'116'
p4293
aa(lp4294
g2
ag152
aS'131'
p4295
aa(lp4296
g2
ag152
aS'234'
p4297
aa(lp4298
g2
ag51
aS'143'
p4299
aa(lp4300
g2
ag32
aS'101'
p4301
aa(lp4302
g2
ag51
aS'724'
p4303
aa(lp4304
g2
ag32
aS'242'
p4305
aa(lp4306
g2
ag152
aS'223'
p4307
aa(lp4308
g2
ag51
aS'432'
p4309
aa(lp4310
g2
ag37
aS'313'
p4311
aa(lp4312
g2
ag2905
aS'020'
p4313
aa(lp4314
g2
ag2905
aS'407'
p4315
aa(lp4316
g2
ag2925
aS'631'
p4317
aa(lp4318
g2
ag2925
aS'234'
p4319
aa(lp4320
g2
ag32
aS'422'
p4321
aa(lp4322
g2
ag32
aS'444'
p4323
aa(lp4324
g2
ag32
aS'332'
p4325
aa(lp4326
g2
ag32
aS'446'
p4327
aa(lp4328
g2
ag32
aS'110'
p4329
aa(lp4330
g2
ag32
aS'224'
p4331
aa(lp4332
g2
ag32
aS'210'
p4333
aa(lp4334
g2
ag32
aS'206'
p4335
aa(lp4336
g2
ag32
aS'416'
p4337
aa(lp4338
g2
ag32
aS'408'
p4339
aa(lp4340
g2
ag32
aS'406'
p4341
aa(lp4342
g2
ag71
aS'A40'
p4343
aa(lp4344
g2
ag152
aS'323'
p4345
aa(lp4346
g2
ag152
aS'311'
p4347
aa(lp4348
g2
ag71
aS'A38'
p4349
aa(lp4350
g2
ag2932
aS'114'
p4351
aa(lp4352
g2
ag2932
aS'329A'
p4353
aa(lp4354
g2
ag2932
aS'111'
p4355
aa(lp4356
g2
ag32
aS'403'
p4357
aa(lp4358
g2
ag32
aS'404'
p4359
aa(lp4360
g2
ag2970
aS'101'
p4361
aa(lp4362
g2
ag2970
aS'102'
p4363
aa(lp4364
g2
ag56
aS'314'
p4365
aa(lp4366
g2
ag32
aS'417'
p4367
aa(lp4368
g2
ag51
aS'630'
p4369
aa(lp4370
g2
ag2916
aS'327'
p4371
aa(lp4372
g2
ag32
aS'437'
p4373
aa(lp4374
g2
ag152
aS'331'
p4375
aa(lp4376
g2
ag152
aS'333'
p4377
aa(lp4378
g2
ag152
aS'332'
p4379
aa(lp4380
g2
ag32
aS'441'
p4381
aa(lp4382
g2
ag32
aS'439'
p4383
aa(lp4384
g2
ag32
aS'443'
p4385
aa(lp4386
g2
ag32
aS'402'
p4387
aa(lp4388
g2
ag51
aS'232'
p4389
aa(lp4390
g2
ag32
aS'445'
p4391
aa(lp4392
g2
ag51
aS'231A'
p4393
aa(lp4394
g2
ag2932
aS'329'
p4395
aa(lp4396
g2
ag2932
aS'327'
p4397
aa(lp4398
g2
ag2970
aS'119'
p4399
aa(lp4400
g2
ag51
aS'437'
p4401
aa(lp4402
g2
ag2932
aS'322'
p4403
aa(lp4404
g2
ag2932
aS'124'
p4405
aa(lp4406
g2
ag2932
aS'133'
p4407
aa(lp4408
g2
ag56
aS'401'
p4409
aa(lp4410
g2
ag32
aS'364'
p4411
aa(lp4412
g2
ag2925
aS'611'
p4413
aa(lp4414
g2
ag32
aS'413'
p4415
aa(lp4416
g2
ag2925
aS'613'
p4417
aa(lp4418
g2
ag32
aS'153'
p4419
aa(lp4420
g2
ag32
aS'407'
p4421
aa(lp4422
g2
ag2916
aS'122'
p4423
aa(lp4424
g2
ag32
aS'405'
p4425
aa(lp4426
g2
ag32
aS'368'
p4427
aa(lp4428
g2
ag32
aS'370'
p4429
aa(lp4430
g2
ag51
aS'626'
p4431
aa(lp4432
g2
ag2925
aS'414'
p4433
aa(lp4434
g2
ag152
aS'227'
p4435
aa(lp4436
g2
ag2970
aS'124'
p4437
aa(lp4438
g2
ag131
aS'431'
p4439
aa(lp4440
g2
ag32
aS'409'
p4441
aa(lp4442
g2
ag32
aS'372'
p4443
aa(lp4444
g2
ag32
aS'366'
p4445
aa(lp4446
g2
ag32
aS'401'
p4447
aa(lp4448
S'MATHEY'
p4449
ag32
aS'447'
p4450
aa(lp4451
g2
ag32
aS'147'
p4452
aa(lp4453
g2
ag2916
aS'212'
p4454
aa(lp4455
g2
ag152
aS'228'
p4456
aa(lp4457
g2
ag152
aS'122'
p4458
aa(lp4459
g2
ag2970
aS'221'
p4460
aa(lp4461
g2
ag51
aS'335'
p4462
aa(lp4463
g2
ag51
aS'728'
p4464
aa(lp4465
g2
ag51
aS'441A'
p4466
aa(lp4467
S'BUTLER'
p4468
ag51
aS'441'
p4469
aa(lp4470
g2
ag51
aS'440'
p4471
aa(lp4472
g2
ag86
aS'T01'
p4473
aa(lp4474
g2
ag86
aS'090'
p4475
aa(lp4476
g2
ag51
aS'346'
p4477
aa(lp4478
g2
ag131
aS'213'
p4479
aa(lp4480
g2
ag2970
aS'222A'
p4481
aa(lp4482
g2
ag2925
aS'612'
p4483
aa(lp4484
g2
ag86
aS'063'
p4485
aa(lp4486
g2
ag152
aS'113'
p4487
aa(lp4488
g2
ag152
aS'114'
p4489
aa(lp4490
g2
ag2970
aS'122'
p4491
aa(lp4492
g2
ag131
aS'223'
p4493
aa(lp4494
g2
ag131
aS'121'
p4495
aa(lp4496
g2
ag2932
aS'221'
p4497
aa(lp4498
g2
ag51
aS'631A'
p4499
aa(lp4500
g2
ag51
aS'631'
p4501
aa(lp4502
g2
ag51
aS'230'
p4503
aa(lp4504
g2
ag2970
aS'125'
p4505
aa(lp4506
g2
ag56
aS'226'
p4507
aa(lp4508
g2
ag152
aS'222'
p4509
aa(lp4510
g2
ag86
aS'081'
p4511
aa(lp4512
g2
ag2970
aS'203'
p4513
aa(lp4514
g2
ag2925
aS'311'
p4515
aa(lp4516
g2
ag2925
aS'312'
p4517
aa(lp4518
g2
ag71
aS'A48'
p4519
aa(lp4520
g2
ag86
aS'030'
p4521
aa(lp4522
g2
ag2925
aS'211'
p4523
aa(lp4524
g2
ag131
aS'214'
p4525
aa(lp4526
g2
ag2970
aS'331'
p4527
aa(lp4528
g2
ag2970
aS'222'
p4529
aa(lp4530
g2
ag2932
aS'304'
p4531
aa(lp4532
g2
ag56
aS'311'
p4533
aa(lp4534
g2
ag2916
aS'419'
p4535
aa(lp4536
g2
ag2916
aS'418'
p4537
aa(lp4538
g2
ag51
aS'602'
p4539
aa(lp4540
g2
ag2970
aS'118'
p4541
aa(lp4542
g2
ag2916
aS'127'
p4543
aa(lp4544
g2
ag2916
aS'128'
p4545
aa(lp4546
g2
ag56
aS'501'
p4547
aa(lp4548
g2
ag2925
aS'212'
p4549
aa(lp4550
g2
ag51
aS'641'
p4551
aa(lp4552
g2
ag2932
aS'311'
p4553
aa(lp4554
g2
ag71
aS'091'
p4555
aa(lp4556
g2
ag71
aS'093'
p4557
aa(lp4558
g2
ag2925
aS'522'
p4559
aa(lp4560
g2
ag2925
aS'321'
p4561
aa(lp4562
g2
ag2925
aS'322'
p4563
aa(lp4564
S'BUTLER'
p4565
ag733
aS'424'
p4566
aa(lp4567
g2
ag3183
aS'631'
p4568
aa(lp4569
g2
ag51
aS'141'
p4570
aa(lp4571
g2
ag2932
aS'131'
p4572
aa(lp4573
g2
ag2925
aS'621'
p4574
aa(lp4575
g2
ag32
aS'107'
p4576
aa(lp4577
g2
ag51
aS'443'
p4578
aa(lp4579
g2
ag2970
aS'104'
p4580
aa(lp4581
g2
ag2925
aS'222'
p4582
aa(lp4583
g2
ag2925
aS'221'
p4584
aa(lp4585
g2
ag3183
aS'616'
p4586
aa(lp4587
g2
ag2916
aS'112'
p4588
aa(lp4589
g2
ag131
aS'311'
p4590
aa(lp4591
g2
ag2925
aS'422'
p4592
aa(lp4593
g2
ag131
aS'234'
p4594
aa(lp4595
g2
ag2970
aS'133'
p4596
aa(lp4597
g2
ag2916
aS'318'
p4598
aa(lp4599
g2
ag51
aS'333'
p4600
aa(lp4601
g2
ag51
aS'142'
p4602
aa(lp4603
g2
ag51
aS'242'
p4604
aa(lp4605
g2
ag152
aS'112'
p4606
aa(lp4607
g2
ag152
aS'111'
p4608
aa(lp4609
g2
ag2916
aS'228'
p4610
aa(lp4611
S'BUTLER'
p4612
ag733
aS'524'
p4613
aa(lp4614
g2
ag2916
aS'227'
p4615
aa(lp4616
g2
ag2970
aS'403'
p4617
aa(lp4618
g2
ag51
aS'314'
p4619
aa(lp4620
g2
ag2925
aS'412'
p4621
aa(lp4622
g2
ag51
aS'323'
p4623
aa(lp4624
g2
ag56
aS'504'
p4625
aa(lp4626
g2
ag51
aS'614'
p4627
aa(lp4628
g2
ag51
aS'718'
p4629
aa(lp4630
g2
ag71
aS'097'
p4631
aa(lp4632
g2
ag2925
aS'402'
p4633
aa(lp4634
g2
ag131
aS'113'
p4635
aa(lp4636
g2
ag131
aS'321'
p4637
aa(lp4638
g2
ag51
aS'734'
p4639
aa(lp4640
g2
ag2916
aS'211'
p4641
aa(lp4642
g2
ag2932
aS'211'
p4643
aa(lp4644
g2
ag51
aS'704'
p4645
aa(lp4646
g2
ag51
aS'345'
p4647
aa(lp4648
g2
ag32
aS'207'
p4649
aa(lp4650
g2
ag56
aS'236'
p4651
aa(lp4652
g2
ag56
aS'213'
p4653
aa(lp4654
g2
ag2932
aS'326'
p4655
aa(lp4656
g2
ag56
aS'123'
p4657
aa(lp4658
g2
ag71
aS'105'
p4659
aa(lp4660
g2
ag3183
aS'625'
p4661
aa(lp4662
g2
ag56
aS'535'
p4663
aa(lp4664
g2
ag2916
aS'427'
p4665
aa(lp4666
S'BUTLER'
p4667
ag733
aS'523'
p4668
aa(lp4669
g2
ag152
aS'212'
p4670
aa(lp4671
g2
ag2916
aS'421'
p4672
aa(lp4673
S'BUTLER'
p4674
ag56
aS'331'
p4675
aa(lp4676
g2
ag2916
aS'412'
p4677
aa(lp4678
g2
ag2916
aS'411'
p4679
aa(lp4680
g2
ag2970
aS'212'
p4681
aa(lp4682
S'BUTLER'
p4683
ag733
aS'521'
p4684
aa(lp4685
g2
ag2970
aS'323'
p4686
aa(lp4687
g2
ag131
aS'103'
p4688
aa(lp4689
g2
ag3183
aS'511'
p4690
aa(lp4691
g2
ag3183
aS'521'
p4692
aa(lp4693
g2
ag51
aS'735'
p4694
aa(lp4695
g2
ag2925
aS'633'
p4696
aa(lp4697
g2
ag152
aS'302'
p4698
aa(lp4699
S'BUTLER'
p4700
ag733
aS'513'
p4701
aa(lp4702
g2
ag51
aS'131'
p4703
aa(lp4704
g2
ag2970
aS'141'
p4705
aa(lp4706
g2
ag2916
aS'311'
p4707
aa(lp4708
S'BUTLER'
p4709
ag733
aS'512'
p4710
aa(lp4711
g2
ag733
aS'413'
p4712
aa(lp4713
g2
ag2916
aS'428'
p4714
aa(lp4715
g2
ag2916
aS'320'
p4716
aa(lp4717
g2
ag71
aS'145'
p4718
aa(lp4719
g2
ag71
aS'103'
p4720
aa(lp4721
g2
ag71
aS'A54'
p4722
aa(lp4723
g2
ag3183
aS'617'
p4724
aa(lp4725
g2
ag131
aS'432'
p4726
aa(lp4727
g2
ag3183
aS'632'
p4728
aa(lp4729
g2
ag2970
aS'123'
p4730
aa(lp4731
g2
ag32
aS'307'
p4732
aa(lp4733
g2
ag152
aS'124'
p4734
aa(lp4735
g2
ag131
aS'232'
p4736
aa(lp4737
S'BUTLER'
p4738
ag733
aS'522'
p4739
aa(lp4740
S'BUTLER'
p4741
ag733
aS'623'
p4742
aa.